gplink-1.4.0 #1107 (May  9 2015)
Map File - Created 12-2-2016  22:01:25

                                 Section Info
                  Section       Type    Address   Location Size(Bytes)
                ---------  ---------  ---------  ---------  ---------
                   .cinit    romdata   0x0069d0    program   0x00000e
                 .idata_i    romdata   0x0069de    program   0x00000a
.config_300001_BUILD/SDCC/PRODUCTION/PIC_MAIN.O    romdata   0x300001    program   0x000001
.config_300002_BUILD/SDCC/PRODUCTION/PIC_MAIN.O    romdata   0x300002    program   0x000001
.config_300003_BUILD/SDCC/PRODUCTION/PIC_MAIN.O    romdata   0x300003    program   0x000001
.config_300005_BUILD/SDCC/PRODUCTION/PIC_MAIN.O    romdata   0x300005    program   0x000001
.config_300006_BUILD/SDCC/PRODUCTION/PIC_MAIN.O    romdata   0x300006    program   0x000001
.config_300008_BUILD/SDCC/PRODUCTION/PIC_MAIN.O    romdata   0x300008    program   0x000001
.config_300009_BUILD/SDCC/PRODUCTION/PIC_MAIN.O    romdata   0x300009    program   0x000001
.config_30000A_BUILD/SDCC/PRODUCTION/PIC_MAIN.O    romdata   0x30000a    program   0x000001
.config_30000B_BUILD/SDCC/PRODUCTION/PIC_MAIN.O    romdata   0x30000b    program   0x000001
.config_30000C_BUILD/SDCC/PRODUCTION/PIC_MAIN.O    romdata   0x30000c    program   0x000001
.config_30000D_BUILD/SDCC/PRODUCTION/PIC_MAIN.O    romdata   0x30000d    program   0x000001
         S_crt0iz___entry       code   0x000000    program   0x000004
 S___eeprom_gptrget1_stub       code   0x000004    program   0x000004
  S_pic_main_ivec_0x1_isr       code   0x000008    program   0x000004
S_RF24Network_cg__RF24N_enqueue       code   0x00000c    program   0x0007d0
S_RF24Network_cg__RF24N_update       code   0x0007dc    program   0x0004e0
S_RF24Network_cg__RF24N_write_       code   0x000cbc    program   0x0004d0
      S_spi__digitalWrite       code   0x00118c    program   0x000384
           S_spi__pinMode       code   0x001510    program   0x000384
S_RF24Network_cg__RF24N_write       code   0x001894    program   0x000302
       S_spi__digitalRead       code   0x001b96    program   0x0002a6
S_RF24Network_cg__RF24N_read       code   0x001e3c    program   0x00029e
S_RF24_cg__RF24_openReadingPipe_d       code   0x0020da    program   0x000248
    S_helloworld_tx__loop       code   0x002322    program   0x000246
      S_mullong___mullong       code   0x002568    program   0x000214
S_RF24Network_cg__RF24N__write       code   0x00277c    program   0x000208
S_RF24Network_cg__RF24N_pipe_address       code   0x002984    program   0x000206
       S_memmove__memmove       code   0x002b8a    program   0x0001fa
S_RF24_cg__RF24_openReadingPipe       code   0x002d84    program   0x0001ec
S_RF24Network_cg__RF24N_logicalToPhysicalAddress       code   0x002f70    program   0x0001e2
            S_ltoa__ultoa       code   0x003152    program   0x0001b8
S_RF24Network_cg__RF24N_begin_d       code   0x00330a    program   0x0001a8
S_RF24_cg__RF24_txStandBy_t       code   0x0034b2    program   0x000148
S_RF24_cg__RF24_writeBlocking       code   0x0035fa    program   0x000148
    S_RF24_cg__RF24_begin       code   0x003742    program   0x000146
S_RF24Network_cg__RF24N_write_to_pipe       code   0x003888    program   0x000144
    S_modulong___modulong       code   0x0039cc    program   0x00013a
S_RF24Network_cg__RF24N_multicast       code   0x003b06    program   0x00012e
   S_serial__Serial_begin       code   0x003c34    program   0x000128
S_RF24_cg__RF24_openWritingPipe_d       code   0x003d5c    program   0x000122
    S_divulong___divulong       code   0x003e7e    program   0x000120
         S_memcpy__memcpy       code   0x003f9e    program   0x000104
S_RF24Network_cg__RF24N_peek       code   0x0040a2    program   0x0000fe
S_RF24_cg__RF24_write_payload       code   0x0041a0    program   0x0000fa
S_RF24Network_cg__RF24NH_init       code   0x00429a    program   0x0000f8
S_RF24_cg__RF24_whatHappened       code   0x004392    program   0x0000f4
S_RF24_cg__RF24_read_payload       code   0x004486    program   0x0000ee
S_RF24Network_cg__RF24N_setup_address       code   0x004574    program   0x0000e8
S_RF24_cg__RF24_stopListening       code   0x00465c    program   0x0000c6
             S_ltoa__ltoa       code   0x004722    program   0x0000c6
S_RF24_cg__RF24_writeAckPayload       code   0x0047e8    program   0x0000be
S_RF24Network_cg__RF24N_addressOfPipe       code   0x0048a6    program   0x0000bc
      S_moduint___moduint       code   0x004962    program   0x0000ba
S_RF24_cg__RF24_startListening       code   0x004a1c    program   0x0000b2
S_RF24Network_cg__RF24N_write_m       code   0x004ace    program   0x0000b2
      S_divuint___divuint       code   0x004b80    program   0x0000b0
S_RF24_cg__RF24_setDataRate       code   0x004c30    program   0x0000ae
       S_crt0iz___startup       code   0x004cde    program   0x0000ac
  S_RF24_cg__RF24_write_m       code   0x004d8a    program   0x0000aa
S_RF24_cg__RF24_read_register_m_d       code   0x004e34    program   0x0000a8
             S_spi__delay       code   0x004edc    program   0x0000a6
S_RF24_cg__RF24_writeFast_m       code   0x004f82    program   0x0000a6
S_RF24_cg__RF24_write_register_c_d       code   0x005028    program   0x0000a6
S_RF24Network_cg__RF24N_init       code   0x0050ce    program   0x0000a6
   S_helloworld_tx__setup       code   0x005174    program   0x0000a2
S_RF24Network_cg__RF24N_multicastLevel       code   0x005216    program   0x0000a2
S_RF24Network_cg__RF24N_is_direct_child       code   0x0052b8    program   0x0000a2
        S_mulint___mulint       code   0x00535a    program   0x0000a0
S_RF24_cg__RF24_startWrite       code   0x0053fa    program   0x00009c
   S_serial__Serial_print       code   0x005496    program   0x00009a
S_RF24_cg__RF24_startFastWrite       code   0x005530    program   0x00009a
  S_RF24_cg__RF24_maskIRQ       code   0x0055ca    program   0x000096
S_RF24Network_cg__RF24N_levelToAddress       code   0x005660    program   0x000092
S_RF24_cg__RF24_closeReadingPipe       code   0x0056f2    program   0x00008c
 S_spi__delayMicroseconds       code   0x00577e    program   0x00008a
S_RF24_cg__RF24_setAutoAck_p       code   0x005808    program   0x00008a
S_RF24_cg__RF24_openWritingPipe       code   0x005892    program   0x000086
      S_serial__Serial_rx       code   0x005918    program   0x000084
          S_serial__itoa_       code   0x00599c    program   0x000080
S_RF24_cg__RF24_available_p       code   0x005a1c    program   0x000080
S_RF24Network_cg__RF24N_is_valid_address       code   0x005a9c    program   0x000074
     S_RF24_cg__RF24_read       code   0x005b10    program   0x00006e
 S_serial__Serial_println       code   0x005b7e    program   0x00006c
S_RF24_cg__RF24_setPALevel       code   0x005bea    program   0x000066
S_RF24_cg__RF24_writeFast       code   0x005c50    program   0x000066
    S_RF24_cg__RF24_write       code   0x005cb6    program   0x000066
S_RF24Network_cg__RF24N_direct_child_route_to       code   0x005d1c    program   0x000066
          S_pic_main__isr       code   0x005d82    program   0x000062
     S_RF24_cg__RF24_init       code   0x005de4    program   0x000060
S_RF24_cg__RF24_txStandBy       code   0x005e44    program   0x00005e
S_RF24_cg__RF24_getCRCLength       code   0x005ea2    program   0x00005c
S_RF24_cg__RF24_enableAckPayload       code   0x005efe    program   0x00005c
S_RF24_cg__RF24_enableDynamicPayloads       code   0x005f5a    program   0x00005a
S_RF24_cg__RF24_setRetries       code   0x005fb4    program   0x000058
                    .code       code   0x00600c    program   0x000056
S_RF24_cg__RF24_setCRCLength       code   0x006062    program   0x000056
S_RF24_cg__RF24_getDynamicPayloadSize       code   0x0060b8    program   0x000054
S_RF24_cg__RF24_setAddressWidth       code   0x00610c    program   0x000050
S_RF24_cg__RF24_write_register_d       code   0x00615c    program   0x000050
S_RF24Network_cg__RF24N_is_descendant       code   0x0061ac    program   0x000050
S_RF24Network_cg__RF24N_available       code   0x0061fc    program   0x000050
S_RF24_cg__RF24_getDataRate       code   0x00624c    program   0x00004a
  S_RF24_cg__RF24_powerUp       code   0x006296    program   0x000048
S_RF24_cg__RF24_setAutoAck       code   0x0062de    program   0x000042
S_RF24_cg__RF24_read_register_d       code   0x006320    program   0x000040
S_RF24_cg__RF24_powerDown       code   0x006360    program   0x00003e
    S_RF24_cg__RF24_csn_d       code   0x00639e    program   0x00003e
S_RF24Network_cg__RF24N_begin       code   0x0063dc    program   0x00003e
  S_RF24_cg__RF24_reUseTX       code   0x00641a    program   0x00003c
     S_RF24_cg__RF24_ce_d       code   0x006456    program   0x000038
S_RF24_cg__RF24_isAckPayloadAvailable       code   0x00648e    program   0x000036
S_RF24_cg__RF24_setChannel       code   0x0064c4    program   0x000036
S_RF24_cg__RF24_disableCRC       code   0x0064fa    program   0x000034
S_RF24_cg__RF24_enableDynamicAck       code   0x00652e    program   0x000034
         S_pic_main__main       code   0x006562    program   0x000032
 S_RF24_cg__RF24_spiTrans       code   0x006594    program   0x000032
  S_RF24_cg__RF24_isValid       code   0x0065c6    program   0x000030
S_RF24_cg__RF24_getPALevel       code   0x0065f6    program   0x00002e
S_RF24_cg__RF24_available       code   0x006624    program   0x00002e
S_RF24_cg__RF24_setPayloadSize       code   0x006652    program   0x00002c
    S_gptrget2___gptrget2       code   0x00667e    program   0x00002c
S_eeprom16_gptrput2____eeprom16_gptrput2       code   0x0066aa    program   0x00002c
S_RF24_cg__RF24_toggle_features_d       code   0x0066d6    program   0x00002a
      S_spi__SPI_transfer       code   0x006700    program   0x000028
  S_RF24_cg__RF24_testRPD       code   0x006728    program   0x000028
S_RF24_cg__RF24_testCarrier       code   0x006750    program   0x000028
S_RF24_cg__RF24_rxFifoFull       code   0x006778    program   0x000028
         S_spi__SPI_begin       code   0x0067a0    program   0x000026
S_RF24Network_cg__RF24N_parent       code   0x0067c6    program   0x000026
S_eeprom16_gptrget2____eeprom16_gptrget2       code   0x0067ec    program   0x000026
S_RF24_cg__RF24_getChannel       code   0x006812    program   0x000024
S_RF24_cg__RF24_get_status       code   0x006836    program   0x000024
 S_RF24_cg__RF24_flush_tx       code   0x00685a    program   0x000024
 S_RF24_cg__RF24_flush_rx       code   0x00687e    program   0x000024
S_eeprom16_gptrput1____eeprom16_gptrput1       code   0x0068a2    program   0x000024
    S_gptrget1___gptrget1       code   0x0068c6    program   0x000022
            S_spi__millis       code   0x0068e8    program   0x00001e
S_eeprom16_gptrget1____eeprom16_gptrget1       code   0x006906    program   0x00001c
    S_gptrput2___gptrput2       code   0x006922    program   0x00001a
      S_serial__Serial_tx       code   0x00693c    program   0x000018
S_RF24_cg__RF24_endTransaction       code   0x006954    program   0x000018
S_RF24_cg__RF24_beginTransaction       code   0x00696c    program   0x000018
    S_gptrput1___gptrput1       code   0x006984    program   0x000016
S_RF24_cg__RF24_isPVariant       code   0x00699a    program   0x000012
S_RF24_cg__RF24_getPayloadSize       code   0x0069ac    program   0x000012
S_eeprom16_write____eeprom16_write       code   0x0069be    program   0x000012
 S___eeprom_gptrput2_stub       code   0x0069e8    program   0x000004
 S___eeprom_gptrput1_stub       code   0x0069ec    program   0x000004
 S___eeprom_gptrget2_stub       code   0x0069f0    program   0x000004
                   .idata      idata   0x0000c0       data   0x00000a
               .registers      udata   0x000000       data   0x00001b
             udata_ltoa_0      udata   0x000080       data   0x000020
          udata_RF24_cg_0      udata   0x0000a0       data   0x000016
           udata_serial_0      udata   0x0000b6       data   0x00000a
    udata_helloworld_tx_2      udata   0x0000ca       data   0x000008
    udata_helloworld_tx_3      udata   0x0000d2       data   0x000008
          udata_RF24_cg_1      udata   0x0000da       data   0x000005
          udata_RF24_cg_2      udata   0x0000df       data   0x000005
   udata_RF24Network_cg_1      udata   0x0000e4       data   0x000005
   udata_RF24Network_cg_7      udata   0x0000e9       data   0x000005
   udata_RF24Network_cg_8      udata   0x0000ee       data   0x000005
   udata_RF24Network_cg_9      udata   0x0000f3       data   0x000005
    udata_helloworld_tx_0      udata   0x0000f8       data   0x000004
    udata_helloworld_tx_1      udata   0x0000fc       data   0x000004
            stack_section      udata   0x000700       data   0x000100
   udata_RF24Network_cg_0      udata   0x000800       data   0x000175
              udata_spi_0      udata   0x000f00       data   0x000004
   udata_RF24Network_cg_6      udata   0x000f04       data   0x000004
          udata_mullong_0      udata   0x000f08       data   0x000004
          udata_mullong_1      udata   0x000f0c       data   0x000004
          udata_mullong_2      udata   0x000f10       data   0x000004
          udata_mullong_3      udata   0x000f14       data   0x000004
          udata_mullong_4      udata   0x000f18       data   0x000004
   udata_RF24Network_cg_3      udata   0x000f1c       data   0x000002
   udata_RF24Network_cg_4      udata   0x000f1e       data   0x000002
   udata_RF24Network_cg_5      udata   0x000f20       data   0x000002
           udata_mulint_0      udata   0x000f22       data   0x000002
           udata_mulint_1      udata   0x000f24       data   0x000002
           udata_mulint_2      udata   0x000f26       data   0x000002
   udata_RF24Network_cg_2      udata   0x000f28       data   0x000001
      ustat_pic18f4620_00      udata   0x000f80       data   0x000005
      ustat_pic18f4620_01      udata   0x000f89       data   0x000005
      ustat_pic18f4620_02      udata   0x000f92       data   0x000005
      ustat_pic18f4620_03      udata   0x000f9b       data   0x000001
      ustat_pic18f4620_04      udata   0x000f9d       data   0x000006
      ustat_pic18f4620_05      udata   0x000fa6       data   0x000013
      ustat_pic18f4620_06      udata   0x000fba       data   0x00001a
      ustat_pic18f4620_07      udata   0x000fd5       data   0x00002b



                              Program Memory Usage
                               Start         End
                           ---------   ---------
                            0x002322    0x002567
                            0x005174    0x005215
                            0x00600c    0x006061
                            0x000008    0x00000b
                            0x006562    0x006593
                            0x005d82    0x005de3
                            0x300001    0x300001
                            0x300002    0x300002
                            0x300003    0x300003
                            0x300005    0x300005
                            0x300006    0x300006
                            0x300008    0x300008
                            0x300009    0x300009
                            0x30000a    0x30000a
                            0x30000b    0x30000b
                            0x30000c    0x30000c
                            0x30000d    0x30000d
                            0x00599c    0x005a1b
                            0x005918    0x00599b
                            0x005b7e    0x005be9
                            0x005496    0x00552f
                            0x00693c    0x006953
                            0x003c34    0x003d5b
                            0x006700    0x006727
                            0x0067a0    0x0067c5
                            0x00577e    0x005807
                            0x004edc    0x004f81
                            0x0068e8    0x006905
                            0x001b96    0x001e3b
                            0x00118c    0x00150f
                            0x001510    0x001893
                            0x005fb4    0x00600b
                            0x0064fa    0x00652d
                            0x005ea2    0x005efd
                            0x006062    0x0060b7
                            0x00624c    0x006295
                            0x004c30    0x004cdd
                            0x0065f6    0x006623
                            0x005bea    0x005c4f
                            0x0065c6    0x0065f5
                            0x006728    0x00674f
                            0x006750    0x006777
                            0x005808    0x005891
                            0x0062de    0x00631f
                            0x00699a    0x0069ab
                            0x00648e    0x0064c3
                            0x0047e8    0x0048a5
                            0x00652e    0x006561
                            0x005efe    0x005f59
                            0x005f5a    0x005fb3
                            0x0066d6    0x0066ff
                            0x0056f2    0x00577d
                            0x002d84    0x002f6f
                            0x00610c    0x00615b
                            0x0020da    0x002321
                            0x005892    0x005917
                            0x003d5c    0x003e7d
                            0x004392    0x004485
                            0x005b10    0x005b7d
                            0x005a1c    0x005a9b
                            0x006624    0x006651
                            0x0060b8    0x00610b
                            0x0055ca    0x00565f
                            0x0034b2    0x0035f9
                            0x005e44    0x005ea1
                            0x006778    0x00679f
                            0x0053fa    0x005495
                            0x005530    0x0055c9
                            0x005c50    0x005cb5
                            0x004f82    0x005027
                            0x00641a    0x006455
                            0x0035fa    0x003741
                            0x005cb6    0x005d1b
                            0x004d8a    0x004e33
                            0x006296    0x0062dd
                            0x006360    0x00639d
                            0x00465c    0x004721
                            0x004a1c    0x004acd
                            0x003742    0x003887
                            0x0069ac    0x0069bd
                            0x006652    0x00667d
                            0x006812    0x006835
                            0x0064c4    0x0064f9
                            0x005de4    0x005e43
                            0x006836    0x006859
                            0x00685a    0x00687d
                            0x00687e    0x0068a1
                            0x006594    0x0065c5
                            0x004486    0x004573
                            0x0041a0    0x004299
                            0x00615c    0x0061ab
                            0x005028    0x0050cd
                            0x006320    0x00635f
                            0x004e34    0x004edb
                            0x006954    0x00696b
                            0x00696c    0x006983
                            0x006456    0x00648d
                            0x00639e    0x0063db
                            0x0069de    0x0069e7
                            0x0063dc    0x006419
                            0x002984    0x002b89
                            0x005660    0x0056f1
                            0x005216    0x0052b7
                            0x005a9c    0x005b0f
                            0x005d1c    0x005d81
                            0x0048a6    0x004961
                            0x004574    0x00465b
                            0x0061ac    0x0061fb
                            0x0052b8    0x005359
                            0x003888    0x0039cb
                            0x002f70    0x003151
                            0x001894    0x001b95
                            0x00277c    0x002983
                            0x000cbc    0x00118b
                            0x004ace    0x004b7f
                            0x003b06    0x003c33
                            0x001e3c    0x0020d9
                            0x0040a2    0x00419f
                            0x0067c6    0x0067eb
                            0x0061fc    0x00624b
                            0x00000c    0x0007db
                            0x0007dc    0x000cbb
                            0x00330a    0x0034b1
                            0x0050ce    0x005173
                            0x00429a    0x004391
                            0x000000    0x000003
                            0x004cde    0x004d89
                            0x002568    0x00277b
                            0x006984    0x006999
                            0x004b80    0x004c2f
                            0x00667e    0x0066a9
                            0x00535a    0x0053f9
                            0x004962    0x004a1b
                            0x003e7e    0x003f9d
                            0x0068c6    0x0068e7
                            0x006922    0x00693b
                            0x003f9e    0x0040a1
                            0x004722    0x0047e7
                            0x003152    0x003309
                            0x002b8a    0x002d83
                            0x000004    0x000007
                            0x0069e8    0x0069eb
                            0x0069ec    0x0069ef
                            0x0069f0    0x0069f3
                            0x0039cc    0x003b05
                            0x0068a2    0x0068c5
                            0x0067ec    0x006811
                            0x0069be    0x0069cf
                            0x006906    0x006921
                            0x0066aa    0x0066d5
                            0x0069d0    0x0069dd
                            27135 program addresses used



                              Symbols - Sorted by Name
                     Name    Address   Location    Storage File
                ---------  ---------  ---------  --------- ---------
               _00105_DS_   0x0015fa    program     static ../../../RF24_c/utility/XC8/spi.c
               _00105_DS_   0x004016    program     static memcpy.asm
               _00105_DS_   0x002c8e    program     static memmove.asm
               _00106_DS_   0x00160a    program     static ../../../RF24_c/utility/XC8/spi.c
               _00106_DS_   0x0049c8    program     static moduint.asm
               _00106_DS_   0x00320c    program     static ltoa.asm
               _00107_DS_   0x005dc6    program     static pic_main.c
               _00107_DS_   0x00161c    program     static ../../../RF24_c/utility/XC8/spi.c
               _00107_DS_   0x0049a2    program     static moduint.asm
               _00107_DS_   0x00405e    program     static memcpy.asm
               _00107_DS_   0x0031ca    program     static ltoa.asm
               _00108_DS_   0x001630    program     static ../../../RF24_c/utility/XC8/spi.c
               _00108_DS_   0x002ce4    program     static memmove.asm
               _00108_DS_   0x003a82    program     static modulong.asm
               _00109_DS_   0x001644    program     static ../../../RF24_c/utility/XC8/spi.c
               _00109_DS_   0x004bc8    program     static divuint.asm
               _00109_DS_   0x003efa    program     static divulong.asm
               _00109_DS_   0x003a48    program     static modulong.asm
               _00110_DS_   0x00694a    program     static serial.c
               _00110_DS_   0x001656    program     static ../../../RF24_c/utility/XC8/spi.c
               _00110_DS_   0x004bf8    program     static divuint.asm
               _00110_DS_   0x003f46    program     static divulong.asm
               _00110_DS_   0x00327c    program     static ltoa.asm
               _00111_DS_   0x002512    program     static helloworld_tx.c
               _00111_DS_   0x00166a    program     static ../../../RF24_c/utility/XC8/spi.c
               _00111_DS_   0x0049e4    program     static moduint.asm
               _00112_DS_   0x005dc4    program     static pic_main.c
               _00112_DS_   0x00167a    program     static ../../../RF24_c/utility/XC8/spi.c
               _00112_DS_   0x006484    program     static ../../../RF24_c/RF24_cg.c
               _00112_DS_   0x0049d0    program     static moduint.asm
               _00112_DS_   0x002cd8    program     static memmove.asm
               _00113_DS_   0x00168c    program     static ../../../RF24_c/utility/XC8/spi.c
               _00113_DS_   0x002d2c    program     static memmove.asm
               _00113_DS_   0x003ab2    program     static modulong.asm
               _00114_DS_   0x0016a0    program     static ../../../RF24_c/utility/XC8/spi.c
               _00114_DS_   0x003a8a    program     static modulong.asm
               _00115_DS_   0x002532    program     static helloworld_tx.c
               _00115_DS_   0x0016b2    program     static ../../../RF24_c/utility/XC8/spi.c
               _00116_DS_   0x0016c6    program     static ../../../RF24_c/utility/XC8/spi.c
               _00116_DS_   0x003354    program     static ../../RF24Network_cg.c
               _00117_DS_   0x0016d6    program     static ../../../RF24_c/utility/XC8/spi.c
               _00117_DS_   0x004042    program     static memcpy.asm
               _00117_DS_   0x003ad4    program     static modulong.asm
               _00118_DS_   0x00658c    program     static pic_main.c
               _00118_DS_   0x0054d4    program     static serial.c
               _00118_DS_   0x0016e8    program     static ../../../RF24_c/utility/XC8/spi.c
               _00118_DS_   0x00336c    program     static ../../RF24Network_cg.c
               _00118_DS_   0x00405c    program     static memcpy.asm
               _00119_DS_   0x0016fc    program     static ../../../RF24_c/utility/XC8/spi.c
               _00120_DS_   0x001710    program     static ../../../RF24_c/utility/XC8/spi.c
               _00120_DS_   0x00337c    program     static ../../RF24Network_cg.c
               _00121_DS_   0x00550a    program     static serial.c
               _00121_DS_   0x001720    program     static ../../../RF24_c/utility/XC8/spi.c
               _00121_DS_   0x003434    program     static ../../RF24Network_cg.c
               _00122_DS_   0x001732    program     static ../../../RF24_c/utility/XC8/spi.c
               _00122_DS_   0x003a46    program     static modulong.asm
               _00123_DS_   0x0023ca    program     static helloworld_tx.c
               _00123_DS_   0x001746    program     static ../../../RF24_c/utility/XC8/spi.c
               _00123_DS_   0x003490    program     static ../../RF24Network_cg.c
               _00124_DS_   0x00244e    program     static helloworld_tx.c
               _00124_DS_   0x00175a    program     static ../../../RF24_c/utility/XC8/spi.c
               _00124_DS_   0x003494    program     static ../../RF24Network_cg.c
               _00125_DS_   0x00176c    program     static ../../../RF24_c/utility/XC8/spi.c
               _00126_DS_   0x001780    program     static ../../../RF24_c/utility/XC8/spi.c
               _00127_DS_   0x001794    program     static ../../../RF24_c/utility/XC8/spi.c
               _00127_DS_   0x004bec    program     static divuint.asm
               _00127_DS_   0x003f32    program     static divulong.asm
               _00128_DS_   0x0017a6    program     static ../../../RF24_c/utility/XC8/spi.c
               _00129_DS_   0x0017b8    program     static ../../../RF24_c/utility/XC8/spi.c
               _00130_DS_   0x0017cc    program     static ../../../RF24_c/utility/XC8/spi.c
               _00131_DS_   0x005944    program     static serial.c
               _00131_DS_   0x0017e0    program     static ../../../RF24_c/utility/XC8/spi.c
               _00132_DS_   0x0017f2    program     static ../../../RF24_c/utility/XC8/spi.c
               _00132_DS_   0x0032b6    program     static ltoa.asm
               _00133_DS_   0x001802    program     static ../../../RF24_c/utility/XC8/spi.c
               _00133_DS_   0x004e86    program     static ../../../RF24_c/RF24_cg.c
               _00134_DS_   0x001814    program     static ../../../RF24_c/utility/XC8/spi.c
               _00135_DS_   0x00595e    program     static serial.c
               _00135_DS_   0x001828    program     static ../../../RF24_c/utility/XC8/spi.c
               _00135_DS_   0x004eb8    program     static ../../../RF24_c/RF24_cg.c
               _00136_DS_   0x00594c    program     static serial.c
               _00136_DS_   0x00183c    program     static ../../../RF24_c/utility/XC8/spi.c
               _00136_DS_   0x0049be    program     static moduint.asm
               _00137_DS_   0x00184e    program     static ../../../RF24_c/utility/XC8/spi.c
               _00137_DS_   0x0049da    program     static moduint.asm
               _00137_DS_   0x002c2c    program     static memmove.asm
               _00138_DS_   0x00597c    program     static serial.c
               _00138_DS_   0x001862    program     static ../../../RF24_c/utility/XC8/spi.c
               _00138_DS_   0x0047a2    program     static ltoa.asm
               _00138_DS_   0x002c42    program     static memmove.asm
               _00139_DS_   0x001876    program     static ../../../RF24_c/utility/XC8/spi.c
               _00139_DS_   0x002d10    program     static memmove.asm
               _00140_DS_   0x005984    program     static serial.c
               _00140_DS_   0x002d2a    program     static memmove.asm
               _00141_DS_   0x003a74    program     static modulong.asm
               _00142_DS_   0x005986    program     static serial.c
               _00142_DS_   0x001886    program     static ../../../RF24_c/utility/XC8/spi.c
               _00142_DS_   0x003aa0    program     static modulong.asm
               _00146_DS_   0x004eb6    program     static ../../../RF24_c/RF24_cg.c
               _00147_DS_   0x005948    program     static serial.c
               _00149_DS_   0x00086e    program     static ../../RF24Network_cg.c
               _00151_DS_   0x000854    program     static ../../RF24Network_cg.c
               _00152_DS_   0x00155e    program     static ../../../RF24_c/utility/XC8/spi.c
               _00156_DS_   0x00507c    program     static ../../../RF24_c/RF24_cg.c
               _00157_DS_   0x001276    program     static ../../../RF24_c/utility/XC8/spi.c
               _00157_DS_   0x0008ce    program     static ../../RF24Network_cg.c
               _00158_DS_   0x001286    program     static ../../../RF24_c/utility/XC8/spi.c
               _00158_DS_   0x0050aa    program     static ../../../RF24_c/RF24_cg.c
               _00159_DS_   0x001298    program     static ../../../RF24_c/utility/XC8/spi.c
               _00160_DS_   0x005956    program     static serial.c
               _00160_DS_   0x0012ac    program     static ../../../RF24_c/utility/XC8/spi.c
               _00161_DS_   0x0012c0    program     static ../../../RF24_c/utility/XC8/spi.c
               _00162_DS_   0x0012d2    program     static ../../../RF24_c/utility/XC8/spi.c
               _00163_DS_   0x0012e6    program     static ../../../RF24_c/utility/XC8/spi.c
               _00164_DS_   0x0012f6    program     static ../../../RF24_c/utility/XC8/spi.c
               _00165_DS_   0x001308    program     static ../../../RF24_c/utility/XC8/spi.c
               _00165_DS_   0x000a24    program     static ../../RF24Network_cg.c
               _00166_DS_   0x00131c    program     static ../../../RF24_c/utility/XC8/spi.c
               _00167_DS_   0x00132e    program     static ../../../RF24_c/utility/XC8/spi.c
               _00167_DS_   0x000a9e    program     static ../../RF24Network_cg.c
               _00168_DS_   0x001342    program     static ../../../RF24_c/utility/XC8/spi.c
               _00169_DS_   0x001352    program     static ../../../RF24_c/utility/XC8/spi.c
               _00170_DS_   0x001364    program     static ../../../RF24_c/utility/XC8/spi.c
               _00170_DS_   0x00509e    program     static ../../../RF24_c/RF24_cg.c
               _00171_DS_   0x001378    program     static ../../../RF24_c/utility/XC8/spi.c
               _00172_DS_   0x00138c    program     static ../../../RF24_c/utility/XC8/spi.c
               _00173_DS_   0x00139c    program     static ../../../RF24_c/utility/XC8/spi.c
               _00174_DS_   0x0013ae    program     static ../../../RF24_c/utility/XC8/spi.c
               _00175_DS_   0x0013c2    program     static ../../../RF24_c/utility/XC8/spi.c
               _00175_DS_   0x000ad0    program     static ../../RF24Network_cg.c
               _00176_DS_   0x0013d6    program     static ../../../RF24_c/utility/XC8/spi.c
               _00176_DS_   0x000b02    program     static ../../RF24Network_cg.c
               _00177_DS_   0x0013e8    program     static ../../../RF24_c/utility/XC8/spi.c
               _00178_DS_   0x0013fc    program     static ../../../RF24_c/utility/XC8/spi.c
               _00178_DS_   0x000aba    program     static ../../RF24Network_cg.c
               _00179_DS_   0x001410    program     static ../../../RF24_c/utility/XC8/spi.c
               _00180_DS_   0x001422    program     static ../../../RF24_c/utility/XC8/spi.c
               _00180_DS_   0x00422a    program     static ../../../RF24_c/RF24_cg.c
               _00181_DS_   0x001434    program     static ../../../RF24_c/utility/XC8/spi.c
               _00182_DS_   0x001448    program     static ../../../RF24_c/utility/XC8/spi.c
               _00183_DS_   0x00145c    program     static ../../../RF24_c/utility/XC8/spi.c
               _00183_DS_   0x00425c    program     static ../../../RF24_c/RF24_cg.c
               _00184_DS_   0x00146e    program     static ../../../RF24_c/utility/XC8/spi.c
               _00185_DS_   0x00147e    program     static ../../../RF24_c/utility/XC8/spi.c
               _00185_DS_   0x004272    program     static ../../../RF24_c/RF24_cg.c
               _00185_DS_   0x000be8    program     static ../../RF24Network_cg.c
               _00186_DS_   0x001490    program     static ../../../RF24_c/utility/XC8/spi.c
               _00187_DS_   0x0014a4    program     static ../../../RF24_c/utility/XC8/spi.c
               _00187_DS_   0x000c40    program     static ../../RF24Network_cg.c
               _00188_DS_   0x0014b8    program     static ../../../RF24_c/utility/XC8/spi.c
               _00188_DS_   0x0041fe    program     static ../../../RF24_c/RF24_cg.c
               _00189_DS_   0x0014ca    program     static ../../../RF24_c/utility/XC8/spi.c
               _00189_DS_   0x004202    program     static ../../../RF24_c/RF24_cg.c
               _00190_DS_   0x0014de    program     static ../../../RF24_c/utility/XC8/spi.c
               _00190_DS_   0x004210    program     static ../../../RF24_c/RF24_cg.c
               _00191_DS_   0x0014f2    program     static ../../../RF24_c/utility/XC8/spi.c
               _00191_DS_   0x004216    program     static ../../../RF24_c/RF24_cg.c
               _00191_DS_   0x000c4c    program     static ../../RF24Network_cg.c
               _00194_DS_   0x001502    program     static ../../../RF24_c/utility/XC8/spi.c
               _00194_DS_   0x000b24    program     static ../../RF24Network_cg.c
               _00197_DS_   0x004258    program     static ../../../RF24_c/RF24_cg.c
               _00197_DS_   0x000874    program     static ../../RF24Network_cg.c
               _00199_DS_   0x000c78    program     static ../../RF24Network_cg.c
               _00200_DS_   0x000c7a    program     static ../../RF24Network_cg.c
               _00204_DS_   0x0011da    program     static ../../../RF24_c/utility/XC8/spi.c
               _00209_DS_   0x001c7e    program     static ../../../RF24_c/utility/XC8/spi.c
               _00210_DS_   0x001c8a    program     static ../../../RF24_c/utility/XC8/spi.c
               _00211_DS_   0x001c96    program     static ../../../RF24_c/utility/XC8/spi.c
               _00212_DS_   0x001ca2    program     static ../../../RF24_c/utility/XC8/spi.c
               _00213_DS_   0x001cae    program     static ../../../RF24_c/utility/XC8/spi.c
               _00213_DS_   0x00424c    program     static ../../../RF24_c/RF24_cg.c
               _00214_DS_   0x001cba    program     static ../../../RF24_c/utility/XC8/spi.c
               _00215_DS_   0x001cc6    program     static ../../../RF24_c/utility/XC8/spi.c
               _00216_DS_   0x001cd2    program     static ../../../RF24_c/utility/XC8/spi.c
               _00217_DS_   0x001cde    program     static ../../../RF24_c/utility/XC8/spi.c
               _00218_DS_   0x001cea    program     static ../../../RF24_c/utility/XC8/spi.c
               _00219_DS_   0x001cf6    program     static ../../../RF24_c/utility/XC8/spi.c
               _00219_DS_   0x0044dc    program     static ../../../RF24_c/RF24_cg.c
               _00220_DS_   0x001d02    program     static ../../../RF24_c/utility/XC8/spi.c
               _00220_DS_   0x004500    program     static ../../../RF24_c/RF24_cg.c
               _00221_DS_   0x001d0e    program     static ../../../RF24_c/utility/XC8/spi.c
               _00222_DS_   0x001d1a    program     static ../../../RF24_c/utility/XC8/spi.c
               _00223_DS_   0x001d26    program     static ../../../RF24_c/utility/XC8/spi.c
               _00223_DS_   0x004536    program     static ../../../RF24_c/RF24_cg.c
               _00224_DS_   0x001d32    program     static ../../../RF24_c/utility/XC8/spi.c
               _00225_DS_   0x001d3e    program     static ../../../RF24_c/utility/XC8/spi.c
               _00225_DS_   0x00454c    program     static ../../../RF24_c/RF24_cg.c
               _00226_DS_   0x001d4a    program     static ../../../RF24_c/utility/XC8/spi.c
               _00227_DS_   0x001d56    program     static ../../../RF24_c/utility/XC8/spi.c
               _00228_DS_   0x001d62    program     static ../../../RF24_c/utility/XC8/spi.c
               _00228_DS_   0x0044e6    program     static ../../../RF24_c/RF24_cg.c
               _00229_DS_   0x001d6e    program     static ../../../RF24_c/utility/XC8/spi.c
               _00229_DS_   0x0044ec    program     static ../../../RF24_c/RF24_cg.c
               _00230_DS_   0x001d7a    program     static ../../../RF24_c/utility/XC8/spi.c
               _00231_DS_   0x001d86    program     static ../../../RF24_c/utility/XC8/spi.c
               _00232_DS_   0x001d92    program     static ../../../RF24_c/utility/XC8/spi.c
               _00233_DS_   0x001d9e    program     static ../../../RF24_c/utility/XC8/spi.c
               _00234_DS_   0x001daa    program     static ../../../RF24_c/utility/XC8/spi.c
               _00235_DS_   0x001db6    program     static ../../../RF24_c/utility/XC8/spi.c
               _00235_DS_   0x004532    program     static ../../../RF24_c/RF24_cg.c
               _00236_DS_   0x001dc2    program     static ../../../RF24_c/utility/XC8/spi.c
               _00237_DS_   0x001dce    program     static ../../../RF24_c/utility/XC8/spi.c
               _00238_DS_   0x001dda    program     static ../../../RF24_c/utility/XC8/spi.c
               _00239_DS_   0x001de6    program     static ../../../RF24_c/utility/XC8/spi.c
               _00240_DS_   0x001df2    program     static ../../../RF24_c/utility/XC8/spi.c
               _00241_DS_   0x001dfe    program     static ../../../RF24_c/utility/XC8/spi.c
               _00242_DS_   0x001e0a    program     static ../../../RF24_c/utility/XC8/spi.c
               _00243_DS_   0x001e16    program     static ../../../RF24_c/utility/XC8/spi.c
               _00244_DS_   0x001e22    program     static ../../../RF24_c/utility/XC8/spi.c
               _00246_DS_   0x001e2c    program     static ../../../RF24_c/utility/XC8/spi.c
               _00251_DS_   0x004530    program     static ../../../RF24_c/RF24_cg.c
               _00257_DS_   0x001bde    program     static ../../../RF24_c/utility/XC8/spi.c
               _00271_DS_   0x004f28    program     static ../../../RF24_c/utility/XC8/spi.c
               _00273_DS_   0x004f14    program     static ../../../RF24_c/utility/XC8/spi.c
               _00275_DS_   0x004f5c    program     static ../../../RF24_c/utility/XC8/spi.c
               _00284_DS_   0x0064e0    program     static ../../../RF24_c/RF24_cg.c
               _00285_DS_   0x000852    program     static ../../RF24Network_cg.c
               _00288_DS_   0x00098c    program     static ../../RF24Network_cg.c
               _00289_DS_   0x00098e    program     static ../../RF24Network_cg.c
               _00290_DS_   0x004f1e    program     static ../../../RF24_c/utility/XC8/spi.c
               _00291_DS_   0x000996    program     static ../../RF24Network_cg.c
               _00293_DS_   0x00099e    program     static ../../RF24Network_cg.c
               _00295_DS_   0x0009ac    program     static ../../RF24Network_cg.c
               _00299_DS_   0x0057c4    program     static ../../../RF24_c/utility/XC8/spi.c
               _00301_DS_   0x0057ac    program     static ../../../RF24_c/utility/XC8/spi.c
               _00301_DS_   0x00666e    program     static ../../../RF24_c/RF24_cg.c
               _00303_DS_   0x0057e6    program     static ../../../RF24_c/utility/XC8/spi.c
               _00312_DS_   0x000b20    program     static ../../RF24Network_cg.c
               _00313_DS_   0x000b42    program     static ../../RF24Network_cg.c
               _00314_DS_   0x000b44    program     static ../../RF24Network_cg.c
               _00316_DS_   0x00376e    program     static ../../../RF24_c/RF24_cg.c
               _00316_DS_   0x000b4c    program     static ../../RF24Network_cg.c
               _00318_DS_   0x0057bc    program     static ../../../RF24_c/utility/XC8/spi.c
               _00318_DS_   0x00378a    program     static ../../../RF24_c/RF24_cg.c
               _00319_DS_   0x000b60    program     static ../../RF24Network_cg.c
               _00320_DS_   0x0037e8    program     static ../../../RF24_c/RF24_cg.c
               _00321_DS_   0x000c48    program     static ../../RF24Network_cg.c
               _00323_DS_   0x003870    program     static ../../../RF24_c/RF24_cg.c
               _00324_DS_   0x003874    program     static ../../../RF24_c/RF24_cg.c
               _00325_DS_   0x003878    program     static ../../../RF24_c/RF24_cg.c
               _00328_DS_   0x006718    program     static ../../../RF24_c/utility/XC8/spi.c
               _00330_DS_   0x000128    program     static ../../RF24Network_cg.c
               _00331_DS_   0x00018c    program     static ../../RF24Network_cg.c
               _00333_DS_   0x0001d8    program     static ../../RF24Network_cg.c
               _00335_DS_   0x0002ba    program     static ../../RF24Network_cg.c
               _00336_DS_   0x000326    program     static ../../RF24Network_cg.c
               _00337_DS_   0x00032c    program     static ../../RF24Network_cg.c
               _00340_DS_   0x0002f0    program     static ../../RF24Network_cg.c
               _00342_DS_   0x0003c4    program     static ../../RF24Network_cg.c
               _00344_DS_   0x0003f4    program     static ../../RF24Network_cg.c
               _00346_DS_   0x000554    program     static ../../RF24Network_cg.c
               _00348_DS_   0x000558    program     static ../../RF24Network_cg.c
               _00350_DS_   0x004a9e    program     static ../../../RF24_c/RF24_cg.c
               _00350_DS_   0x000290    program     static ../../RF24Network_cg.c
               _00351_DS_   0x004aa8    program     static ../../../RF24_c/RF24_cg.c
               _00354_DS_   0x004abc    program     static ../../../RF24_c/RF24_cg.c
               _00355_DS_   0x00027c    program     static ../../RF24Network_cg.c
               _00360_DS_   0x00056e    program     static ../../RF24Network_cg.c
               _00361_DS_   0x0005e4    program     static ../../RF24Network_cg.c
               _00363_DS_   0x000790    program     static ../../RF24Network_cg.c
               _00365_DS_   0x000796    program     static ../../RF24Network_cg.c
               _00366_DS_   0x000798    program     static ../../RF24Network_cg.c
               _00367_DS_   0x00079a    program     static ../../RF24Network_cg.c
               _00369_DS_   0x0046ae    program     static ../../../RF24_c/RF24_cg.c
               _00370_DS_   0x0000b6    program     static ../../RF24Network_cg.c
               _00377_DS_   0x0046fc    program     static ../../../RF24_c/RF24_cg.c
               _00378_DS_   0x0046f6    program     static ../../../RF24_c/RF24_cg.c
               _00390_DS_   0x0062d4    program     static ../../../RF24_c/RF24_cg.c
               _00400_DS_   0x004de4    program     static ../../../RF24_c/RF24_cg.c
               _00404_DS_   0x004e18    program     static ../../../RF24_c/RF24_cg.c
               _00405_DS_   0x004e1a    program     static ../../../RF24_c/RF24_cg.c
               _00431_DS_   0x003684    program     static ../../../RF24_c/RF24_cg.c
               _00433_DS_   0x0036da    program     static ../../../RF24_c/RF24_cg.c
               _00434_DS_   0x0036fc    program     static ../../../RF24_c/RF24_cg.c
               _00450_DS_   0x0036d4    program     static ../../../RF24_c/RF24_cg.c
               _00450_DS_   0x0000be    program     static ../../RF24Network_cg.c
               _00451_DS_   0x00011c    program     static ../../RF24Network_cg.c
               _00452_DS_   0x00015e    program     static ../../RF24Network_cg.c
               _00453_DS_   0x000160    program     static ../../RF24Network_cg.c
               _00454_DS_   0x000184    program     static ../../RF24Network_cg.c
               _00455_DS_   0x000186    program     static ../../RF24Network_cg.c
               _00456_DS_   0x0001c4    program     static ../../RF24Network_cg.c
               _00462_DS_   0x004fc0    program     static ../../../RF24_c/RF24_cg.c
               _00464_DS_   0x004fe8    program     static ../../../RF24_c/RF24_cg.c
               _00464_DS_   0x0002ae    program     static ../../RF24Network_cg.c
               _00465_DS_   0x00500a    program     static ../../../RF24_c/RF24_cg.c
               _00472_DS_   0x0003b2    program     static ../../RF24Network_cg.c
               _00475_DS_   0x000424    program     static ../../RF24Network_cg.c
               _00479_DS_   0x000576    program     static ../../RF24Network_cg.c
               _00480_DS_   0x00060e    program     static ../../RF24Network_cg.c
               _00488_DS_   0x006232    program     static ../../RF24Network_cg.c
               _00489_DS_   0x0055ac    program     static ../../../RF24_c/RF24_cg.c
               _00491_DS_   0x00557e    program     static ../../../RF24_c/RF24_cg.c
               _00492_DS_   0x005582    program     static ../../../RF24_c/RF24_cg.c
               _00494_DS_   0x0067de    program     static ../../RF24Network_cg.c
               _00496_DS_   0x0067e6    program     static ../../RF24Network_cg.c
               _00499_DS_   0x00543e    program     static ../../../RF24_c/RF24_cg.c
               _00500_DS_   0x005442    program     static ../../../RF24_c/RF24_cg.c
               _00502_DS_   0x00417e    program     static ../../RF24Network_cg.c
               _00503_DS_   0x004182    program     static ../../RF24Network_cg.c
               _00509_DS_   0x001f98    program     static ../../RF24Network_cg.c
               _00511_DS_   0x00202e    program     static ../../RF24Network_cg.c
               _00512_DS_   0x005e50    program     static ../../../RF24_c/RF24_cg.c
               _00513_DS_   0x0020a0    program     static ../../RF24Network_cg.c
               _00514_DS_   0x005e8c    program     static ../../../RF24_c/RF24_cg.c
               _00515_DS_   0x005e98    program     static ../../../RF24_c/RF24_cg.c
               _00516_DS_   0x001f54    program     static ../../RF24Network_cg.c
               _00517_DS_   0x001f5c    program     static ../../RF24Network_cg.c
               _00530_DS_   0x001f48    program     static ../../RF24Network_cg.c
               _00533_DS_   0x00351a    program     static ../../../RF24_c/RF24_cg.c
               _00538_DS_   0x00352c    program     static ../../../RF24_c/RF24_cg.c
               _00540_DS_   0x0035b8    program     static ../../../RF24_c/RF24_cg.c
               _00541_DS_   0x0035c4    program     static ../../../RF24_c/RF24_cg.c
               _00547_DS_   0x000d6c    program     static ../../RF24Network_cg.c
               _00549_DS_   0x000dba    program     static ../../RF24Network_cg.c
               _00551_DS_   0x000e22    program     static ../../RF24Network_cg.c
               _00553_DS_   0x000e50    program     static ../../RF24Network_cg.c
               _00555_DS_   0x000e60    program     static ../../RF24Network_cg.c
               _00557_DS_   0x000ef0    program     static ../../RF24Network_cg.c
               _00559_DS_   0x000f8a    program     static ../../RF24Network_cg.c
               _00560_DS_   0x0035a2    program     static ../../../RF24_c/RF24_cg.c
               _00562_DS_   0x000f72    program     static ../../RF24Network_cg.c
               _00563_DS_   0x000f9c    program     static ../../RF24Network_cg.c
               _00565_DS_   0x001066    program     static ../../RF24Network_cg.c
               _00566_DS_   0x00106c    program     static ../../RF24Network_cg.c
               _00570_DS_   0x000f1c    program     static ../../RF24Network_cg.c
               _00571_DS_   0x006100    program     static ../../../RF24_c/RF24_cg.c
               _00572_DS_   0x006102    program     static ../../../RF24_c/RF24_cg.c
               _00574_DS_   0x0010d0    program     static ../../RF24Network_cg.c
               _00576_DS_   0x0010e6    program     static ../../RF24Network_cg.c
               _00578_DS_   0x001118    program     static ../../RF24Network_cg.c
               _00579_DS_   0x00111a    program     static ../../RF24Network_cg.c
               _00581_DS_   0x000e8a    program     static ../../RF24Network_cg.c
               _00582_DS_   0x000e8c    program     static ../../RF24Network_cg.c
               _00584_DS_   0x000fe8    program     static ../../RF24Network_cg.c
               _00588_DS_   0x005a80    program     static ../../../RF24_c/RF24_cg.c
               _00590_DS_   0x005a84    program     static ../../../RF24_c/RF24_cg.c
               _00591_DS_   0x005a86    program     static ../../../RF24_c/RF24_cg.c
               _00602_DS_   0x00107a    program     static ../../RF24Network_cg.c
               _00615_DS_   0x003d9c    program     static ../../../RF24_c/RF24_cg.c
               _00637_DS_   0x000dac    program     static ../../RF24Network_cg.c
               _00638_DS_   0x0021c0    program     static ../../../RF24_c/RF24_cg.c
               _00639_DS_   0x000dd6    program     static ../../RF24Network_cg.c
               _00640_DS_   0x00221e    program     static ../../../RF24_c/RF24_cg.c
               _00640_DS_   0x000e5a    program     static ../../RF24Network_cg.c
               _00641_DS_   0x00226a    program     static ../../../RF24_c/RF24_cg.c
               _00642_DS_   0x000ede    program     static ../../RF24Network_cg.c
               _00644_DS_   0x002124    program     static ../../../RF24_c/RF24_cg.c
               _00646_DS_   0x0022f4    program     static ../../../RF24_c/RF24_cg.c
               _00646_DS_   0x000fde    program     static ../../RF24Network_cg.c
               _00654_DS_   0x002898    program     static ../../RF24Network_cg.c
               _00656_DS_   0x0028dc    program     static ../../RF24Network_cg.c
               _00658_DS_   0x0028ee    program     static ../../RF24Network_cg.c
               _00660_DS_   0x002908    program     static ../../RF24Network_cg.c
               _00661_DS_   0x00293e    program     static ../../RF24Network_cg.c
               _00667_DS_   0x0022e0    program     static ../../../RF24_c/RF24_cg.c
               _00668_DS_   0x0022da    program     static ../../../RF24_c/RF24_cg.c
               _00675_DS_   0x00614e    program     static ../../../RF24_c/RF24_cg.c
               _00676_DS_   0x0028a2    program     static ../../RF24Network_cg.c
               _00677_DS_   0x0028d6    program     static ../../RF24Network_cg.c
               _00678_DS_   0x0028d8    program     static ../../RF24Network_cg.c
               _00679_DS_   0x0028e8    program     static ../../RF24Network_cg.c
               _00680_DS_   0x0028ea    program     static ../../RF24Network_cg.c
               _00681_DS_   0x002e1e    program     static ../../../RF24_c/RF24_cg.c
               _00683_DS_   0x002e70    program     static ../../../RF24_c/RF24_cg.c
               _00684_DS_   0x002eb0    program     static ../../../RF24_c/RF24_cg.c
               _00686_DS_   0x0018f8    program     static ../../RF24Network_cg.c
               _00687_DS_   0x002f3a    program     static ../../../RF24_c/RF24_cg.c
               _00689_DS_   0x001912    program     static ../../RF24Network_cg.c
               _00691_DS_   0x001a74    program     static ../../RF24Network_cg.c
               _00696_DS_   0x001ae6    program     static ../../RF24Network_cg.c
               _00699_DS_   0x001afc    program     static ../../RF24Network_cg.c
               _00700_DS_   0x002f26    program     static ../../../RF24_c/RF24_cg.c
               _00701_DS_   0x002f20    program     static ../../../RF24_c/RF24_cg.c
               _00703_DS_   0x001b50    program     static ../../RF24Network_cg.c
               _00707_DS_   0x001a98    program     static ../../RF24Network_cg.c
               _00708_DS_   0x005750    program     static ../../../RF24_c/RF24_cg.c
               _00709_DS_   0x00574a    program     static ../../../RF24_c/RF24_cg.c
               _00709_DS_   0x001b5a    program     static ../../RF24Network_cg.c
               _00710_DS_   0x001b5c    program     static ../../RF24Network_cg.c
               _00734_DS_   0x00485a    program     static ../../../RF24_c/RF24_cg.c
               _00736_DS_   0x004888    program     static ../../../RF24_c/RF24_cg.c
               _00740_DS_   0x004838    program     static ../../../RF24_c/RF24_cg.c
               _00754_DS_   0x00487c    program     static ../../../RF24_c/RF24_cg.c
               _00763_DS_   0x001972    program     static ../../RF24Network_cg.c
               _00764_DS_   0x001988    program     static ../../RF24Network_cg.c
               _00765_DS_   0x00198a    program     static ../../RF24Network_cg.c
               _00767_DS_   0x001a8c    program     static ../../RF24Network_cg.c
               _00770_DS_   0x006306    program     static ../../../RF24_c/RF24_cg.c
               _00772_DS_   0x006316    program     static ../../../RF24_c/RF24_cg.c
               _00774_DS_   0x001b4c    program     static ../../RF24Network_cg.c
               _00778_DS_   0x005856    program     static ../../../RF24_c/RF24_cg.c
               _00779_DS_   0x005870    program     static ../../../RF24_c/RF24_cg.c
               _00782_DS_   0x005880    program     static ../../../RF24_c/RF24_cg.c
               _00783_DS_   0x00308a    program     static ../../RF24Network_cg.c
               _00786_DS_   0x003046    program     static ../../RF24Network_cg.c
               _00787_DS_   0x0030e2    program     static ../../RF24Network_cg.c
               _00791_DS_   0x005850    program     static ../../../RF24_c/RF24_cg.c
               _00792_DS_   0x00584a    program     static ../../../RF24_c/RF24_cg.c
               _00794_DS_   0x005868    program     static ../../../RF24_c/RF24_cg.c
               _00795_DS_   0x005862    program     static ../../../RF24_c/RF24_cg.c
               _00805_DS_   0x0038fa    program     static ../../RF24Network_cg.c
               _00807_DS_   0x003910    program     static ../../RF24Network_cg.c
               _00808_DS_   0x003920    program     static ../../RF24Network_cg.c
               _00810_DS_   0x0039a8    program     static ../../RF24Network_cg.c
               _00812_DS_   0x0065e2    program     static ../../../RF24_c/RF24_cg.c
               _00813_DS_   0x0065e6    program     static ../../../RF24_c/RF24_cg.c
               _00814_DS_   0x0065ea    program     static ../../../RF24_c/RF24_cg.c
               _00819_DS_   0x0065da    program     static ../../../RF24_c/RF24_cg.c
               _00827_DS_   0x005c20    program     static ../../../RF24_c/RF24_cg.c
               _00828_DS_   0x005c2a    program     static ../../../RF24_c/RF24_cg.c
               _00829_DS_   0x005336    program     static ../../RF24Network_cg.c
               _00845_DS_   0x0061ea    program     static ../../RF24Network_cg.c
               _00846_DS_   0x0061ec    program     static ../../RF24Network_cg.c
               _00848_DS_   0x004c8a    program     static ../../../RF24_c/RF24_cg.c
               _00849_DS_   0x004ca4    program     static ../../../RF24_c/RF24_cg.c
               _00851_DS_   0x004cca    program     static ../../../RF24_c/RF24_cg.c
               _00851_DS_   0x004598    program     static ../../RF24Network_cg.c
               _00853_DS_   0x0045c4    program     static ../../RF24Network_cg.c
               _00854_DS_   0x004610    program     static ../../RF24Network_cg.c
               _00856_DS_   0x00463c    program     static ../../RF24Network_cg.c
               _00862_DS_   0x0048fc    program     static ../../RF24Network_cg.c
               _00864_DS_   0x00490c    program     static ../../RF24Network_cg.c
               _00874_DS_   0x004926    program     static ../../RF24Network_cg.c
               _00875_DS_   0x00491e    program     static ../../RF24Network_cg.c
               _00877_DS_   0x006284    program     static ../../../RF24_c/RF24_cg.c
               _00880_DS_   0x006278    program     static ../../../RF24_c/RF24_cg.c
               _00881_DS_   0x006286    program     static ../../../RF24_c/RF24_cg.c
               _00886_DS_   0x005ae0    program     static ../../RF24Network_cg.c
               _00887_DS_   0x005ac8    program     static ../../RF24Network_cg.c
               _00889_DS_   0x005af4    program     static ../../RF24Network_cg.c
               _00900_DS_   0x006096    program     static ../../../RF24_c/RF24_cg.c
               _00904_DS_   0x00609a    program     static ../../../RF24_c/RF24_cg.c
               _00913_DS_   0x0056d0    program     static ../../RF24Network_cg.c
               _00914_DS_   0x0056d6    program     static ../../RF24Network_cg.c
               _00915_DS_   0x0056dc    program     static ../../RF24Network_cg.c
               _00920_DS_   0x0056ce    program     static ../../RF24Network_cg.c
               _00921_DS_   0x005ee6    program     static ../../../RF24_c/RF24_cg.c
               _00921_DS_   0x0056ba    program     static ../../RF24Network_cg.c
               _00922_DS_   0x0056c6    program     static ../../RF24Network_cg.c
               _00923_DS_   0x005edc    program     static ../../../RF24_c/RF24_cg.c
               _00923_DS_   0x0056c4    program     static ../../RF24Network_cg.c
               _00924_DS_   0x005eea    program     static ../../../RF24_c/RF24_cg.c
               _00928_DS_   0x002a3a    program     static ../../RF24Network_cg.c
               _00929_DS_   0x002a7a    program     static ../../RF24Network_cg.c
               _00931_DS_   0x002a2a    program     static ../../RF24Network_cg.c
               _00933_DS_   0x002a90    program     static ../../RF24Network_cg.c
               _00934_DS_   0x002a9a    program     static ../../RF24Network_cg.c
               _00935_DS_   0x002ac4    program     static ../../RF24Network_cg.c
               _00939_DS_   0x002af8    program     static ../../RF24Network_cg.c
               _00947_DS_   0x002af6    program     static ../../RF24Network_cg.c
               _00961_DS_   0x002acc    program     static ../../RF24Network_cg.c
               _10110_DS_   0x00244e    program     static helloworld_tx.c
               _10117_DS_   0x005dc4    program     static pic_main.c
               _10967_DS_   0x004336    program     static ../../RF24Network_cg.c
                  _ADCON0   0x000fc2       data     extern libdev18f4620_a-pic18f4620.asm
              _ADCON0bits   0x000fc2       data     extern libdev18f4620_a-pic18f4620.asm
                  _ADCON1   0x000fc1       data     extern libdev18f4620_a-pic18f4620.asm
              _ADCON1bits   0x000fc1       data     extern libdev18f4620_a-pic18f4620.asm
                  _ADCON2   0x000fc0       data     extern libdev18f4620_a-pic18f4620.asm
              _ADCON2bits   0x000fc0       data     extern libdev18f4620_a-pic18f4620.asm
                   _ADRES   0x000fc3       data     extern libdev18f4620_a-pic18f4620.asm
                  _ADRESH   0x000fc4       data     extern libdev18f4620_a-pic18f4620.asm
                  _ADRESL   0x000fc3       data     extern libdev18f4620_a-pic18f4620.asm
                 _BAUDCON   0x000fb8       data     extern libdev18f4620_a-pic18f4620.asm
             _BAUDCONbits   0x000fb8       data     extern libdev18f4620_a-pic18f4620.asm
                 _BAUDCTL   0x000fb8       data     extern libdev18f4620_a-pic18f4620.asm
             _BAUDCTLbits   0x000fb8       data     extern libdev18f4620_a-pic18f4620.asm
                     _BSR   0x000fe0       data     extern libdev18f4620_a-pic18f4620.asm
                 _CCP1CON   0x000fbd       data     extern libdev18f4620_a-pic18f4620.asm
             _CCP1CONbits   0x000fbd       data     extern libdev18f4620_a-pic18f4620.asm
                 _CCP2CON   0x000fba       data     extern libdev18f4620_a-pic18f4620.asm
             _CCP2CONbits   0x000fba       data     extern libdev18f4620_a-pic18f4620.asm
                   _CCPR1   0x000fbe       data     extern libdev18f4620_a-pic18f4620.asm
                  _CCPR1H   0x000fbf       data     extern libdev18f4620_a-pic18f4620.asm
                  _CCPR1L   0x000fbe       data     extern libdev18f4620_a-pic18f4620.asm
                   _CCPR2   0x000fbb       data     extern libdev18f4620_a-pic18f4620.asm
                  _CCPR2H   0x000fbc       data     extern libdev18f4620_a-pic18f4620.asm
                  _CCPR2L   0x000fbb       data     extern libdev18f4620_a-pic18f4620.asm
                   _CMCON   0x000fb4       data     extern libdev18f4620_a-pic18f4620.asm
               _CMCONbits   0x000fb4       data     extern libdev18f4620_a-pic18f4620.asm
                  _CVRCON   0x000fb5       data     extern libdev18f4620_a-pic18f4620.asm
              _CVRCONbits   0x000fb5       data     extern libdev18f4620_a-pic18f4620.asm
                    _DDRA   0x000f92       data     extern libdev18f4620_a-pic18f4620.asm
                _DDRAbits   0x000f92       data     extern libdev18f4620_a-pic18f4620.asm
                    _DDRB   0x000f93       data     extern libdev18f4620_a-pic18f4620.asm
                _DDRBbits   0x000f93       data     extern libdev18f4620_a-pic18f4620.asm
                    _DDRC   0x000f94       data     extern libdev18f4620_a-pic18f4620.asm
                _DDRCbits   0x000f94       data     extern libdev18f4620_a-pic18f4620.asm
                    _DDRD   0x000f95       data     extern libdev18f4620_a-pic18f4620.asm
                _DDRDbits   0x000f95       data     extern libdev18f4620_a-pic18f4620.asm
                    _DDRE   0x000f96       data     extern libdev18f4620_a-pic18f4620.asm
                _DDREbits   0x000f96       data     extern libdev18f4620_a-pic18f4620.asm
                 _ECCP1AS   0x000fb6       data     extern libdev18f4620_a-pic18f4620.asm
             _ECCP1ASbits   0x000fb6       data     extern libdev18f4620_a-pic18f4620.asm
                   _EEADR   0x000fa9       data     extern libdev18f4620_a-pic18f4620.asm
                  _EEADRH   0x000faa       data     extern libdev18f4620_a-pic18f4620.asm
                  _EECON1   0x000fa6       data     extern libdev18f4620_a-pic18f4620.asm
              _EECON1bits   0x000fa6       data     extern libdev18f4620_a-pic18f4620.asm
                  _EECON2   0x000fa7       data     extern libdev18f4620_a-pic18f4620.asm
                  _EEDATA   0x000fa8       data     extern libdev18f4620_a-pic18f4620.asm
                   _FSR0H   0x000fea       data     extern libdev18f4620_a-pic18f4620.asm
                   _FSR0L   0x000fe9       data     extern libdev18f4620_a-pic18f4620.asm
                   _FSR1H   0x000fe2       data     extern libdev18f4620_a-pic18f4620.asm
                   _FSR1L   0x000fe1       data     extern libdev18f4620_a-pic18f4620.asm
                   _FSR2H   0x000fda       data     extern libdev18f4620_a-pic18f4620.asm
                   _FSR2L   0x000fd9       data     extern libdev18f4620_a-pic18f4620.asm
                 _HLVDCON   0x000fd2       data     extern libdev18f4620_a-pic18f4620.asm
             _HLVDCONbits   0x000fd2       data     extern libdev18f4620_a-pic18f4620.asm
                   _INDF0   0x000fef       data     extern libdev18f4620_a-pic18f4620.asm
                   _INDF1   0x000fe7       data     extern libdev18f4620_a-pic18f4620.asm
                   _INDF2   0x000fdf       data     extern libdev18f4620_a-pic18f4620.asm
                  _INTCON   0x000ff2       data     extern libdev18f4620_a-pic18f4620.asm
                 _INTCON2   0x000ff1       data     extern libdev18f4620_a-pic18f4620.asm
             _INTCON2bits   0x000ff1       data     extern libdev18f4620_a-pic18f4620.asm
                 _INTCON3   0x000ff0       data     extern libdev18f4620_a-pic18f4620.asm
             _INTCON3bits   0x000ff0       data     extern libdev18f4620_a-pic18f4620.asm
              _INTCONbits   0x000ff2       data     extern libdev18f4620_a-pic18f4620.asm
                    _IPR1   0x000f9f       data     extern libdev18f4620_a-pic18f4620.asm
                _IPR1bits   0x000f9f       data     extern libdev18f4620_a-pic18f4620.asm
                    _IPR2   0x000fa2       data     extern libdev18f4620_a-pic18f4620.asm
                _IPR2bits   0x000fa2       data     extern libdev18f4620_a-pic18f4620.asm
                    _LATA   0x000f89       data     extern libdev18f4620_a-pic18f4620.asm
                _LATAbits   0x000f89       data     extern libdev18f4620_a-pic18f4620.asm
                    _LATB   0x000f8a       data     extern libdev18f4620_a-pic18f4620.asm
                _LATBbits   0x000f8a       data     extern libdev18f4620_a-pic18f4620.asm
                    _LATC   0x000f8b       data     extern libdev18f4620_a-pic18f4620.asm
                _LATCbits   0x000f8b       data     extern libdev18f4620_a-pic18f4620.asm
                    _LATD   0x000f8c       data     extern libdev18f4620_a-pic18f4620.asm
                _LATDbits   0x000f8c       data     extern libdev18f4620_a-pic18f4620.asm
                    _LATE   0x000f8d       data     extern libdev18f4620_a-pic18f4620.asm
                _LATEbits   0x000f8d       data     extern libdev18f4620_a-pic18f4620.asm
                  _LVDCON   0x000fd2       data     extern libdev18f4620_a-pic18f4620.asm
              _LVDCONbits   0x000fd2       data     extern libdev18f4620_a-pic18f4620.asm
                  _OSCCON   0x000fd3       data     extern libdev18f4620_a-pic18f4620.asm
              _OSCCONbits   0x000fd3       data     extern libdev18f4620_a-pic18f4620.asm
                 _OSCTUNE   0x000f9b       data     extern libdev18f4620_a-pic18f4620.asm
             _OSCTUNEbits   0x000f9b       data     extern libdev18f4620_a-pic18f4620.asm
                      _PC   0x000ff9       data     extern libdev18f4620_a-pic18f4620.asm
                     _PCL   0x000ff9       data     extern libdev18f4620_a-pic18f4620.asm
                  _PCLATH   0x000ffa       data     extern libdev18f4620_a-pic18f4620.asm
                  _PCLATU   0x000ffb       data     extern libdev18f4620_a-pic18f4620.asm
                    _PIE1   0x000f9d       data     extern libdev18f4620_a-pic18f4620.asm
                _PIE1bits   0x000f9d       data     extern libdev18f4620_a-pic18f4620.asm
                    _PIE2   0x000fa0       data     extern libdev18f4620_a-pic18f4620.asm
                _PIE2bits   0x000fa0       data     extern libdev18f4620_a-pic18f4620.asm
                    _PIR1   0x000f9e       data     extern libdev18f4620_a-pic18f4620.asm
                _PIR1bits   0x000f9e       data     extern libdev18f4620_a-pic18f4620.asm
                    _PIR2   0x000fa1       data     extern libdev18f4620_a-pic18f4620.asm
                _PIR2bits   0x000fa1       data     extern libdev18f4620_a-pic18f4620.asm
                  _PLUSW0   0x000feb       data     extern libdev18f4620_a-pic18f4620.asm
                  _PLUSW1   0x000fe3       data     extern libdev18f4620_a-pic18f4620.asm
                  _PLUSW2   0x000fdb       data     extern libdev18f4620_a-pic18f4620.asm
                   _PORTA   0x000f80       data     extern libdev18f4620_a-pic18f4620.asm
               _PORTAbits   0x000f80       data     extern libdev18f4620_a-pic18f4620.asm
                   _PORTB   0x000f81       data     extern libdev18f4620_a-pic18f4620.asm
               _PORTBbits   0x000f81       data     extern libdev18f4620_a-pic18f4620.asm
                   _PORTC   0x000f82       data     extern libdev18f4620_a-pic18f4620.asm
               _PORTCbits   0x000f82       data     extern libdev18f4620_a-pic18f4620.asm
                   _PORTD   0x000f83       data     extern libdev18f4620_a-pic18f4620.asm
               _PORTDbits   0x000f83       data     extern libdev18f4620_a-pic18f4620.asm
                   _PORTE   0x000f84       data     extern libdev18f4620_a-pic18f4620.asm
               _PORTEbits   0x000f84       data     extern libdev18f4620_a-pic18f4620.asm
                _POSTDEC0   0x000fed       data     extern libdev18f4620_a-pic18f4620.asm
                _POSTDEC1   0x000fe5       data     extern libdev18f4620_a-pic18f4620.asm
                _POSTDEC2   0x000fdd       data     extern libdev18f4620_a-pic18f4620.asm
                _POSTINC0   0x000fee       data     extern libdev18f4620_a-pic18f4620.asm
                _POSTINC1   0x000fe6       data     extern libdev18f4620_a-pic18f4620.asm
                _POSTINC2   0x000fde       data     extern libdev18f4620_a-pic18f4620.asm
                     _PR2   0x000fcb       data     extern libdev18f4620_a-pic18f4620.asm
                 _PREINC0   0x000fec       data     extern libdev18f4620_a-pic18f4620.asm
                 _PREINC1   0x000fe4       data     extern libdev18f4620_a-pic18f4620.asm
                 _PREINC2   0x000fdc       data     extern libdev18f4620_a-pic18f4620.asm
                    _PROD   0x000ff3       data     extern libdev18f4620_a-pic18f4620.asm
                   _PRODH   0x000ff4       data     extern libdev18f4620_a-pic18f4620.asm
                   _PRODL   0x000ff3       data     extern libdev18f4620_a-pic18f4620.asm
                 _PWM1CON   0x000fb7       data     extern libdev18f4620_a-pic18f4620.asm
             _PWM1CONbits   0x000fb7       data     extern libdev18f4620_a-pic18f4620.asm
                    _RCON   0x000fd0       data     extern libdev18f4620_a-pic18f4620.asm
                _RCONbits   0x000fd0       data     extern libdev18f4620_a-pic18f4620.asm
                   _RCREG   0x000fae       data     extern libdev18f4620_a-pic18f4620.asm
                   _RCSTA   0x000fab       data     extern libdev18f4620_a-pic18f4620.asm
               _RCSTAbits   0x000fab       data     extern libdev18f4620_a-pic18f4620.asm
             _RF24NH_init   0x00429a    program     extern ../../RF24Network_cg.c
            _RF24N__write   0x00277c    program     extern ../../RF24Network_cg.c
     _RF24N_addressOfPipe   0x0048a6    program     extern ../../RF24Network_cg.c
         _RF24N_available   0x0061fc    program     extern ../../RF24Network_cg.c
             _RF24N_begin   0x0063dc    program     extern ../../RF24Network_cg.c
           _RF24N_begin_d   0x00330a    program     extern ../../RF24Network_cg.c
_RF24N_begin_d_addr_2_178   0x0000e4       data     static ../../RF24Network_cg.c
_RF24N_direct_child_route_to   0x005d1c    program     extern ../../RF24Network_cg.c
           _RF24N_enqueue   0x00000c    program     extern ../../RF24Network_cg.c
_RF24N_enqueue_message_size_1_203   0x000f1c       data     static ../../RF24Network_cg.c
              _RF24N_init   0x0050ce    program     extern ../../RF24Network_cg.c
     _RF24N_is_descendant   0x0061ac    program     extern ../../RF24Network_cg.c
   _RF24N_is_direct_child   0x0052b8    program     extern ../../RF24Network_cg.c
  _RF24N_is_valid_address   0x005a9c    program     extern ../../RF24Network_cg.c
    _RF24N_levelToAddress   0x005660    program     extern ../../RF24Network_cg.c
_RF24N_logicalToPhysicalAddress   0x002f70    program     extern ../../RF24Network_cg.c
         _RF24N_multicast   0x003b06    program     extern ../../RF24Network_cg.c
    _RF24N_multicastLevel   0x005216    program     extern ../../RF24Network_cg.c
_RF24N_multicastLevel_addr_1_302   0x0000ee       data     static ../../RF24Network_cg.c
            _RF24N_parent   0x0067c6    program     extern ../../RF24Network_cg.c
              _RF24N_peek   0x0040a2    program     extern ../../RF24Network_cg.c
_RF24N_peek_msg_size_2_227   0x000f1e       data     static ../../RF24Network_cg.c
      _RF24N_pipe_address   0x002984    program     extern ../../RF24Network_cg.c
_RF24N_pipe_address_address_translation_1_308   0x0000c2       data     static ../../RF24Network_cg.c
_RF24N_pipe_address_result_1_308   0x0000f3       data     static ../../RF24Network_cg.c
              _RF24N_read   0x001e3c    program     extern ../../RF24Network_cg.c
_RF24N_read_bufsize_1_229   0x000f20       data     static ../../RF24Network_cg.c
     _RF24N_setup_address   0x004574    program     extern ../../RF24Network_cg.c
            _RF24N_update   0x0007dc    program     extern ../../RF24Network_cg.c
_RF24N_update_pipe_num_1_179   0x000f28       data     static ../../RF24Network_cg.c
             _RF24N_write   0x001894    program     extern ../../RF24Network_cg.c
            _RF24N_write_   0x000cbc    program     extern ../../RF24Network_cg.c
_RF24N_write_conversion_1_263   0x000f04       data     static ../../RF24Network_cg.c
           _RF24N_write_m   0x004ace    program     extern ../../RF24Network_cg.c
     _RF24N_write_to_pipe   0x003888    program     extern ../../RF24Network_cg.c
_RF24N_write_to_pipe_out_pipe_1_278   0x0000e9       data     static ../../RF24Network_cg.c
          _RF24_available   0x006624    program     extern ../../../RF24_c/RF24_cg.c
        _RF24_available_p   0x005a1c    program     extern ../../../RF24_c/RF24_cg.c
              _RF24_begin   0x003742    program     extern ../../../RF24_c/RF24_cg.c
   _RF24_beginTransaction   0x00696c    program     extern ../../../RF24_c/RF24_cg.c
               _RF24_ce_d   0x006456    program     extern ../../../RF24_c/RF24_cg.c
   _RF24_closeReadingPipe   0x0056f2    program     extern ../../../RF24_c/RF24_cg.c
              _RF24_csn_d   0x00639e    program     extern ../../../RF24_c/RF24_cg.c
         _RF24_disableCRC   0x0064fa    program     extern ../../../RF24_c/RF24_cg.c
   _RF24_enableAckPayload   0x005efe    program     extern ../../../RF24_c/RF24_cg.c
   _RF24_enableDynamicAck   0x00652e    program     extern ../../../RF24_c/RF24_cg.c
_RF24_enableDynamicPayloads   0x005f5a    program     extern ../../../RF24_c/RF24_cg.c
     _RF24_endTransaction   0x006954    program     extern ../../../RF24_c/RF24_cg.c
           _RF24_flush_rx   0x00687e    program     extern ../../../RF24_c/RF24_cg.c
           _RF24_flush_tx   0x00685a    program     extern ../../../RF24_c/RF24_cg.c
       _RF24_getCRCLength   0x005ea2    program     extern ../../../RF24_c/RF24_cg.c
         _RF24_getChannel   0x006812    program     extern ../../../RF24_c/RF24_cg.c
        _RF24_getDataRate   0x00624c    program     extern ../../../RF24_c/RF24_cg.c
_RF24_getDynamicPayloadSize   0x0060b8    program     extern ../../../RF24_c/RF24_cg.c
         _RF24_getPALevel   0x0065f6    program     extern ../../../RF24_c/RF24_cg.c
     _RF24_getPayloadSize   0x0069ac    program     extern ../../../RF24_c/RF24_cg.c
         _RF24_get_status   0x006836    program     extern ../../../RF24_c/RF24_cg.c
               _RF24_init   0x005de4    program     extern ../../../RF24_c/RF24_cg.c
_RF24_isAckPayloadAvailable   0x00648e    program     extern ../../../RF24_c/RF24_cg.c
         _RF24_isPVariant   0x00699a    program     extern ../../../RF24_c/RF24_cg.c
            _RF24_isValid   0x0065c6    program     extern ../../../RF24_c/RF24_cg.c
            _RF24_maskIRQ   0x0055ca    program     extern ../../../RF24_c/RF24_cg.c
    _RF24_openReadingPipe   0x002d84    program     extern ../../../RF24_c/RF24_cg.c
  _RF24_openReadingPipe_d   0x0020da    program     extern ../../../RF24_c/RF24_cg.c
_RF24_openReadingPipe_d_address_1_254   0x0000df       data     static ../../../RF24_c/RF24_cg.c
    _RF24_openWritingPipe   0x005892    program     extern ../../../RF24_c/RF24_cg.c
  _RF24_openWritingPipe_d   0x003d5c    program     extern ../../../RF24_c/RF24_cg.c
_RF24_openWritingPipe_d_value_1_249   0x0000da       data     static ../../../RF24_c/RF24_cg.c
          _RF24_powerDown   0x006360    program     extern ../../../RF24_c/RF24_cg.c
            _RF24_powerUp   0x006296    program     extern ../../../RF24_c/RF24_cg.c
            _RF24_reUseTX   0x00641a    program     extern ../../../RF24_c/RF24_cg.c
               _RF24_read   0x005b10    program     extern ../../../RF24_c/RF24_cg.c
       _RF24_read_payload   0x004486    program     extern ../../../RF24_c/RF24_cg.c
    _RF24_read_register_d   0x006320    program     extern ../../../RF24_c/RF24_cg.c
  _RF24_read_register_m_d   0x004e34    program     extern ../../../RF24_c/RF24_cg.c
         _RF24_rxFifoFull   0x006778    program     extern ../../../RF24_c/RF24_cg.c
    _RF24_setAddressWidth   0x00610c    program     extern ../../../RF24_c/RF24_cg.c
         _RF24_setAutoAck   0x0062de    program     extern ../../../RF24_c/RF24_cg.c
       _RF24_setAutoAck_p   0x005808    program     extern ../../../RF24_c/RF24_cg.c
       _RF24_setCRCLength   0x006062    program     extern ../../../RF24_c/RF24_cg.c
         _RF24_setChannel   0x0064c4    program     extern ../../../RF24_c/RF24_cg.c
        _RF24_setDataRate   0x004c30    program     extern ../../../RF24_c/RF24_cg.c
         _RF24_setPALevel   0x005bea    program     extern ../../../RF24_c/RF24_cg.c
     _RF24_setPayloadSize   0x006652    program     extern ../../../RF24_c/RF24_cg.c
         _RF24_setRetries   0x005fb4    program     extern ../../../RF24_c/RF24_cg.c
           _RF24_spiTrans   0x006594    program     extern ../../../RF24_c/RF24_cg.c
     _RF24_startFastWrite   0x005530    program     extern ../../../RF24_c/RF24_cg.c
     _RF24_startListening   0x004a1c    program     extern ../../../RF24_c/RF24_cg.c
         _RF24_startWrite   0x0053fa    program     extern ../../../RF24_c/RF24_cg.c
      _RF24_stopListening   0x00465c    program     extern ../../../RF24_c/RF24_cg.c
        _RF24_testCarrier   0x006750    program     extern ../../../RF24_c/RF24_cg.c
            _RF24_testRPD   0x006728    program     extern ../../../RF24_c/RF24_cg.c
  _RF24_toggle_features_d   0x0066d6    program     extern ../../../RF24_c/RF24_cg.c
          _RF24_txStandBy   0x005e44    program     extern ../../../RF24_c/RF24_cg.c
        _RF24_txStandBy_t   0x0034b2    program     extern ../../../RF24_c/RF24_cg.c
       _RF24_whatHappened   0x004392    program     extern ../../../RF24_c/RF24_cg.c
              _RF24_write   0x005cb6    program     extern ../../../RF24_c/RF24_cg.c
    _RF24_writeAckPayload   0x0047e8    program     extern ../../../RF24_c/RF24_cg.c
      _RF24_writeBlocking   0x0035fa    program     extern ../../../RF24_c/RF24_cg.c
          _RF24_writeFast   0x005c50    program     extern ../../../RF24_c/RF24_cg.c
        _RF24_writeFast_m   0x004f82    program     extern ../../../RF24_c/RF24_cg.c
            _RF24_write_m   0x004d8a    program     extern ../../../RF24_c/RF24_cg.c
      _RF24_write_payload   0x0041a0    program     extern ../../../RF24_c/RF24_cg.c
 _RF24_write_register_c_d   0x005028    program     extern ../../../RF24_c/RF24_cg.c
   _RF24_write_register_d   0x00615c    program     extern ../../../RF24_c/RF24_cg.c
                   _SPBRG   0x000faf       data     extern libdev18f4620_a-pic18f4620.asm
                  _SPBRGH   0x000fb0       data     extern libdev18f4620_a-pic18f4620.asm
               _SPI_begin   0x0067a0    program     extern ../../../RF24_c/utility/XC8/spi.c
            _SPI_transfer   0x006700    program     extern ../../../RF24_c/utility/XC8/spi.c
                  _SSPADD   0x000fc8       data     extern libdev18f4620_a-pic18f4620.asm
                  _SSPBUF   0x000fc9       data     extern libdev18f4620_a-pic18f4620.asm
                 _SSPCON1   0x000fc6       data     extern libdev18f4620_a-pic18f4620.asm
             _SSPCON1bits   0x000fc6       data     extern libdev18f4620_a-pic18f4620.asm
                 _SSPCON2   0x000fc5       data     extern libdev18f4620_a-pic18f4620.asm
             _SSPCON2bits   0x000fc5       data     extern libdev18f4620_a-pic18f4620.asm
                 _SSPSTAT   0x000fc7       data     extern libdev18f4620_a-pic18f4620.asm
             _SSPSTATbits   0x000fc7       data     extern libdev18f4620_a-pic18f4620.asm
                  _STATUS   0x000fd8       data     extern libdev18f4620_a-pic18f4620.asm
              _STATUSbits   0x000fd8       data     extern libdev18f4620_a-pic18f4620.asm
                  _STKPTR   0x000ffc       data     extern libdev18f4620_a-pic18f4620.asm
              _STKPTRbits   0x000ffc       data     extern libdev18f4620_a-pic18f4620.asm
            _Serial_begin   0x003c34    program     extern serial.c
            _Serial_print   0x005496    program     extern serial.c
          _Serial_println   0x005b7e    program     extern serial.c
               _Serial_rx   0x005918    program     extern serial.c
               _Serial_tx   0x00693c    program     extern serial.c
                   _T0CON   0x000fd5       data     extern libdev18f4620_a-pic18f4620.asm
               _T0CONbits   0x000fd5       data     extern libdev18f4620_a-pic18f4620.asm
                   _T1CON   0x000fcd       data     extern libdev18f4620_a-pic18f4620.asm
               _T1CONbits   0x000fcd       data     extern libdev18f4620_a-pic18f4620.asm
                   _T2CON   0x000fca       data     extern libdev18f4620_a-pic18f4620.asm
               _T2CONbits   0x000fca       data     extern libdev18f4620_a-pic18f4620.asm
                   _T3CON   0x000fb1       data     extern libdev18f4620_a-pic18f4620.asm
               _T3CONbits   0x000fb1       data     extern libdev18f4620_a-pic18f4620.asm
                  _TABLAT   0x000ff5       data     extern libdev18f4620_a-pic18f4620.asm
                  _TBLPTR   0x000ff6       data     extern libdev18f4620_a-pic18f4620.asm
                 _TBLPTRH   0x000ff7       data     extern libdev18f4620_a-pic18f4620.asm
                 _TBLPTRL   0x000ff6       data     extern libdev18f4620_a-pic18f4620.asm
                 _TBLPTRU   0x000ff8       data     extern libdev18f4620_a-pic18f4620.asm
                    _TMR0   0x000fd6       data     extern libdev18f4620_a-pic18f4620.asm
                   _TMR0H   0x000fd7       data     extern libdev18f4620_a-pic18f4620.asm
                   _TMR0L   0x000fd6       data     extern libdev18f4620_a-pic18f4620.asm
                    _TMR1   0x000fce       data     extern libdev18f4620_a-pic18f4620.asm
                   _TMR1H   0x000fcf       data     extern libdev18f4620_a-pic18f4620.asm
                   _TMR1L   0x000fce       data     extern libdev18f4620_a-pic18f4620.asm
                    _TMR2   0x000fcc       data     extern libdev18f4620_a-pic18f4620.asm
                    _TMR3   0x000fb2       data     extern libdev18f4620_a-pic18f4620.asm
                   _TMR3H   0x000fb3       data     extern libdev18f4620_a-pic18f4620.asm
                   _TMR3L   0x000fb2       data     extern libdev18f4620_a-pic18f4620.asm
                     _TOS   0x000ffd       data     extern libdev18f4620_a-pic18f4620.asm
                    _TOSH   0x000ffe       data     extern libdev18f4620_a-pic18f4620.asm
                    _TOSL   0x000ffd       data     extern libdev18f4620_a-pic18f4620.asm
                    _TOSU   0x000fff       data     extern libdev18f4620_a-pic18f4620.asm
                   _TRISA   0x000f92       data     extern libdev18f4620_a-pic18f4620.asm
               _TRISAbits   0x000f92       data     extern libdev18f4620_a-pic18f4620.asm
                   _TRISB   0x000f93       data     extern libdev18f4620_a-pic18f4620.asm
               _TRISBbits   0x000f93       data     extern libdev18f4620_a-pic18f4620.asm
                   _TRISC   0x000f94       data     extern libdev18f4620_a-pic18f4620.asm
               _TRISCbits   0x000f94       data     extern libdev18f4620_a-pic18f4620.asm
                   _TRISD   0x000f95       data     extern libdev18f4620_a-pic18f4620.asm
               _TRISDbits   0x000f95       data     extern libdev18f4620_a-pic18f4620.asm
                   _TRISE   0x000f96       data     extern libdev18f4620_a-pic18f4620.asm
               _TRISEbits   0x000f96       data     extern libdev18f4620_a-pic18f4620.asm
                   _TXREG   0x000fad       data     extern libdev18f4620_a-pic18f4620.asm
                   _TXSTA   0x000fac       data     extern libdev18f4620_a-pic18f4620.asm
               _TXSTAbits   0x000fac       data     extern libdev18f4620_a-pic18f4620.asm
                  _WDTCON   0x000fd1       data     extern libdev18f4620_a-pic18f4620.asm
              _WDTCONbits   0x000fd1       data     extern libdev18f4620_a-pic18f4620.asm
                    _WREG   0x000fe8       data     extern libdev18f4620_a-pic18f4620.asm
     ___eeprom16_gptrget1   0x006906    program     extern eeprom16_gptrget1.asm
     ___eeprom16_gptrget2   0x0067ec    program     extern eeprom16_gptrget2.asm
     ___eeprom16_gptrput1   0x0068a2    program     extern eeprom16_gptrput1.asm
     ___eeprom16_gptrput2   0x0066aa    program     extern eeprom16_gptrput2.asm
        ___eeprom16_write   0x0069be    program     extern eeprom16_write.asm
       ___eeprom_gptrget1   0x000004    program     extern gptr/eeprom16_gptrget1_dispatch.S
       ___eeprom_gptrget2   0x0069f0    program     extern gptr/eeprom16_gptrget2_dispatch.S
       ___eeprom_gptrput1   0x0069ec    program     extern gptr/eeprom16_gptrput1_dispatch.S
       ___eeprom_gptrput2   0x0069e8    program     extern gptr/eeprom16_gptrput2_dispatch.S
                 ___str_0   0x006014    program     static helloworld_tx.c
                 ___str_0   0x003d58    program     static serial.c
                 ___str_1   0x006038    program     static helloworld_tx.c
                 ___str_2   0x006044    program     static helloworld_tx.c
                 ___str_3   0x006048    program     static helloworld_tx.c
                ___uflags   0x0000c9       data     extern crt0iz.asm
                __divuint   0x004b80    program     extern divuint.asm
               __divulong   0x003e7e    program     extern divulong.asm
                  __entry   0x000000    program     extern crt0iz.asm
               __gptrget1   0x0068c6    program     extern gptrget1.asm
               __gptrget2   0x00667e    program     extern gptrget2.asm
               __gptrput1   0x006984    program     extern gptrput1.asm
               __gptrput2   0x006922    program     extern gptrput2.asm
                __moduint   0x004962    program     extern moduint.asm
               __modulong   0x0039cc    program     extern modulong.asm
                 __mulint   0x00535a    program     extern mulint.asm
           __mulint_t_1_2   0x000f26       data     static mulint.asm
           __mulint_x_1_2   0x000f22       data     static mulint.asm
           __mulint_y_1_2   0x000f24       data     static mulint.asm
                __mullong   0x002568    program     extern mullong.asm
         __mullong_t1_1_2   0x000f14       data     static mullong.asm
         __mullong_t2_1_2   0x000f18       data     static mullong.asm
          __mullong_t_1_2   0x000f10       data     static mullong.asm
          __mullong_x_1_2   0x000f08       data     static mullong.asm
          __mullong_y_1_2   0x000f0c       data     static mullong.asm
                __startup   0x004cde    program     extern crt0iz.asm
                    _buff   0x0000b6       data     extern serial.c
      _child_payload_size   0x00605c    program     static ../../../RF24_c/RF24_cg.c
              _child_pipe   0x006056    program     static ../../../RF24_c/RF24_cg.c
       _child_pipe_enable   0x006050    program     static ../../../RF24_c/RF24_cg.c
                   _cinit   0x0069d0    program     extern ../../RF24Network_cg.c
                   _delay   0x004edc    program     extern ../../../RF24_c/utility/XC8/spi.c
       _delayMicroseconds   0x00577e    program     extern ../../../RF24_c/utility/XC8/spi.c
             _digitalRead   0x001b96    program     extern ../../../RF24_c/utility/XC8/spi.c
            _digitalWrite   0x00118c    program     extern ../../../RF24_c/utility/XC8/spi.c
                _interval   0x006010    program     extern helloworld_tx.c
                     _isr   0x005d82    program     extern pic_main.c
                   _itoa_   0x00599c    program     extern serial.c
                 _lab_01_   0x006992    program     static gptrput1.asm
                 _lab_01_   0x00668e    program     static gptrget2.asm
                 _lab_01_   0x0068d2    program     static gptrget1.asm
                 _lab_01_   0x006934    program     static gptrput2.asm
               _last_sent   0x0000f8       data     extern helloworld_tx.c
                    _loop   0x002322    program     extern helloworld_tx.c
       _loop_header_2_176   0x0000d2       data     static helloworld_tx.c
      _loop_payload_2_176   0x0000ca       data     static helloworld_tx.c
                    _ltoa   0x004722    program     extern ltoa.asm
                    _main   0x006562    program     extern pic_main.c
                  _memcpy   0x003f9e    program     extern memcpy.asm
                 _memmove   0x002b8a    program     extern memmove.asm
                  _millis   0x0068e8    program     extern ../../../RF24_c/utility/XC8/spi.c
                   _mtime   0x000f00       data     extern ../../../RF24_c/utility/XC8/spi.c
                 _next_id   0x0000c0       data     static ../../RF24Network_cg.c
              _other_node   0x00600e    program     extern helloworld_tx.c
            _packets_sent   0x0000fc       data     extern helloworld_tx.c
                 _pinMode   0x001510    program     extern ../../../RF24_c/utility/XC8/spi.c
                      _rf   0x0000a0       data     static ../../../RF24_c/RF24_cg.c
                      _rn   0x000800       data     static ../../RF24Network_cg.c
                   _setup   0x005174    program     extern helloworld_tx.c
                   _stack   0x000700       data     extern stack/stack.S
               _stack_end   0x0007ff       data     extern stack/stack.S
               _this_node   0x00600c    program     extern helloworld_tx.c
                   _ultoa   0x003152    program     extern ltoa.asm
        _ultoa_buffer_1_2   0x000080       data     static ltoa.asm
               clear_loop   0x004cf4    program     static crt0iz.asm
                copy_loop   0x004d62    program     static crt0iz.asm
            copy_loop_dec   0x004d68    program     static crt0iz.asm
               entry_loop   0x004d14    program     static crt0iz.asm
           entry_loop_dec   0x004d7c    program     static crt0iz.asm
             ivec_0x1_isr   0x000008    program     static pic_main.c
                   lockup   0x004d88    program     static crt0iz.asm
                    r0x00   0x000000       data     static helloworld_tx.c
                    r0x00   0x000000       data     static serial.c
                    r0x00   0x000000       data     static ../../../RF24_c/utility/XC8/spi.c
                    r0x00   0x000000       data     static ../../../RF24_c/RF24_cg.c
                    r0x00   0x000000       data     static ../../RF24Network_cg.c
                    r0x00   0x000000       data     static mullong.asm
                    r0x00   0x000000       data     static divuint.asm
                    r0x00   0x000000       data     static mulint.asm
                    r0x00   0x000000       data     static moduint.asm
                    r0x00   0x000000       data     static divulong.asm
                    r0x00   0x000000       data     static memcpy.asm
                    r0x00   0x000000       data     static ltoa.asm
                    r0x00   0x000000       data     static memmove.asm
                    r0x00   0x000000       data     static modulong.asm
                    r0x01   0x000001       data     static helloworld_tx.c
                    r0x01   0x000001       data     static serial.c
                    r0x01   0x000001       data     static ../../../RF24_c/utility/XC8/spi.c
                    r0x01   0x000001       data     static ../../../RF24_c/RF24_cg.c
                    r0x01   0x000001       data     static ../../RF24Network_cg.c
                    r0x01   0x000001       data     static mullong.asm
                    r0x01   0x000001       data     static divuint.asm
                    r0x01   0x000001       data     static mulint.asm
                    r0x01   0x000001       data     static moduint.asm
                    r0x01   0x000001       data     static divulong.asm
                    r0x01   0x000001       data     static memcpy.asm
                    r0x01   0x000001       data     static ltoa.asm
                    r0x01   0x000001       data     static memmove.asm
                    r0x01   0x000001       data     static modulong.asm
                    r0x02   0x000002       data     static helloworld_tx.c
                    r0x02   0x000002       data     static serial.c
                    r0x02   0x000002       data     static ../../../RF24_c/utility/XC8/spi.c
                    r0x02   0x000002       data     static ../../../RF24_c/RF24_cg.c
                    r0x02   0x000002       data     static ../../RF24Network_cg.c
                    r0x02   0x000002       data     static mullong.asm
                    r0x02   0x000002       data     static divuint.asm
                    r0x02   0x000002       data     static mulint.asm
                    r0x02   0x000002       data     static moduint.asm
                    r0x02   0x000002       data     static divulong.asm
                    r0x02   0x000002       data     static memcpy.asm
                    r0x02   0x000002       data     static ltoa.asm
                    r0x02   0x000002       data     static memmove.asm
                    r0x02   0x000002       data     static modulong.asm
                    r0x03   0x000003       data     static helloworld_tx.c
                    r0x03   0x000003       data     static serial.c
                    r0x03   0x000003       data     static ../../../RF24_c/utility/XC8/spi.c
                    r0x03   0x000003       data     static ../../../RF24_c/RF24_cg.c
                    r0x03   0x000003       data     static ../../RF24Network_cg.c
                    r0x03   0x000003       data     static mullong.asm
                    r0x03   0x000003       data     static divuint.asm
                    r0x03   0x000003       data     static mulint.asm
                    r0x03   0x000003       data     static moduint.asm
                    r0x03   0x000003       data     static divulong.asm
                    r0x03   0x000003       data     static memcpy.asm
                    r0x03   0x000003       data     static ltoa.asm
                    r0x03   0x000003       data     static memmove.asm
                    r0x03   0x000003       data     static modulong.asm
                    r0x04   0x000004       data     static helloworld_tx.c
                    r0x04   0x000004       data     static serial.c
                    r0x04   0x000004       data     static ../../../RF24_c/utility/XC8/spi.c
                    r0x04   0x000004       data     static ../../../RF24_c/RF24_cg.c
                    r0x04   0x000004       data     static ../../RF24Network_cg.c
                    r0x04   0x000004       data     static mullong.asm
                    r0x04   0x000004       data     static divuint.asm
                    r0x04   0x000004       data     static moduint.asm
                    r0x04   0x000004       data     static divulong.asm
                    r0x04   0x000004       data     static memcpy.asm
                    r0x04   0x000004       data     static ltoa.asm
                    r0x04   0x000004       data     static memmove.asm
                    r0x04   0x000004       data     static modulong.asm
                    r0x05   0x000005       data     static helloworld_tx.c
                    r0x05   0x000005       data     static serial.c
                    r0x05   0x000005       data     static ../../../RF24_c/utility/XC8/spi.c
                    r0x05   0x000005       data     static ../../../RF24_c/RF24_cg.c
                    r0x05   0x000005       data     static ../../RF24Network_cg.c
                    r0x05   0x000005       data     static mullong.asm
                    r0x05   0x000005       data     static divuint.asm
                    r0x05   0x000005       data     static moduint.asm
                    r0x05   0x000005       data     static divulong.asm
                    r0x05   0x000005       data     static memcpy.asm
                    r0x05   0x000005       data     static ltoa.asm
                    r0x05   0x000005       data     static memmove.asm
                    r0x05   0x000005       data     static modulong.asm
                    r0x06   0x000006       data     static helloworld_tx.c
                    r0x06   0x000006       data     static serial.c
                    r0x06   0x000006       data     static ../../../RF24_c/utility/XC8/spi.c
                    r0x06   0x000006       data     static ../../../RF24_c/RF24_cg.c
                    r0x06   0x000006       data     static ../../RF24Network_cg.c
                    r0x06   0x000006       data     static mullong.asm
                    r0x06   0x000006       data     static divuint.asm
                    r0x06   0x000006       data     static moduint.asm
                    r0x06   0x000006       data     static divulong.asm
                    r0x06   0x000006       data     static memcpy.asm
                    r0x06   0x000006       data     static ltoa.asm
                    r0x06   0x000006       data     static memmove.asm
                    r0x06   0x000006       data     static modulong.asm
                    r0x07   0x000007       data     static helloworld_tx.c
                    r0x07   0x000007       data     static serial.c
                    r0x07   0x000007       data     static ../../../RF24_c/utility/XC8/spi.c
                    r0x07   0x000007       data     static ../../../RF24_c/RF24_cg.c
                    r0x07   0x000007       data     static ../../RF24Network_cg.c
                    r0x07   0x000007       data     static mullong.asm
                    r0x07   0x000007       data     static divuint.asm
                    r0x07   0x000007       data     static divulong.asm
                    r0x07   0x000007       data     static memcpy.asm
                    r0x07   0x000007       data     static ltoa.asm
                    r0x07   0x000007       data     static memmove.asm
                    r0x07   0x000007       data     static modulong.asm
                    r0x08   0x000008       data     static helloworld_tx.c
                    r0x08   0x000008       data     static ../../../RF24_c/RF24_cg.c
                    r0x08   0x000008       data     static ../../RF24Network_cg.c
                    r0x08   0x000008       data     static divulong.asm
                    r0x08   0x000008       data     static memcpy.asm
                    r0x08   0x000008       data     static ltoa.asm
                    r0x08   0x000008       data     static memmove.asm
                    r0x08   0x000008       data     static modulong.asm
                    r0x09   0x000009       data     static helloworld_tx.c
                    r0x09   0x000009       data     static ../../../RF24_c/RF24_cg.c
                    r0x09   0x000009       data     static ../../RF24Network_cg.c
                    r0x09   0x000009       data     static divulong.asm
                    r0x09   0x000009       data     static memcpy.asm
                    r0x09   0x000009       data     static ltoa.asm
                    r0x09   0x000009       data     static memmove.asm
                    r0x09   0x000009       data     static modulong.asm
                    r0x0a   0x00000a       data     static helloworld_tx.c
                    r0x0a   0x00000a       data     static ../../../RF24_c/RF24_cg.c
                    r0x0a   0x00000a       data     static ../../RF24Network_cg.c
                    r0x0a   0x00000a       data     static divulong.asm
                    r0x0a   0x00000a       data     static memcpy.asm
                    r0x0a   0x00000a       data     static ltoa.asm
                    r0x0a   0x00000a       data     static memmove.asm
                    r0x0a   0x00000a       data     static modulong.asm
                    r0x0b   0x00000b       data     static helloworld_tx.c
                    r0x0b   0x00000b       data     static ../../../RF24_c/RF24_cg.c
                    r0x0b   0x00000b       data     static ../../RF24Network_cg.c
                    r0x0b   0x00000b       data     static divulong.asm
                    r0x0b   0x00000b       data     static memcpy.asm
                    r0x0b   0x00000b       data     static ltoa.asm
                    r0x0b   0x00000b       data     static memmove.asm
                    r0x0c   0x00000c       data     static ../../../RF24_c/RF24_cg.c
                    r0x0c   0x00000c       data     static ../../RF24Network_cg.c
                    r0x0c   0x00000c       data     static divulong.asm
                    r0x0c   0x00000c       data     static memcpy.asm
                    r0x0c   0x00000c       data     static ltoa.asm
                    r0x0c   0x00000c       data     static memmove.asm
                    r0x0d   0x00000d       data     static ../../../RF24_c/RF24_cg.c
                    r0x0d   0x00000d       data     static ../../RF24Network_cg.c
                    r0x0d   0x00000d       data     static divulong.asm
                    r0x0d   0x00000d       data     static ltoa.asm
                    r0x0d   0x00000d       data     static memmove.asm
                    r0x0e   0x00000e       data     static ../../../RF24_c/RF24_cg.c
                    r0x0e   0x00000e       data     static ../../RF24Network_cg.c
                    r0x0e   0x00000e       data     static ltoa.asm
                    r0x0e   0x00000e       data     static memmove.asm
                    r0x0f   0x00000f       data     static ../../../RF24_c/RF24_cg.c
                    r0x0f   0x00000f       data     static ../../RF24Network_cg.c
                    r0x0f   0x00000f       data     static ltoa.asm
                    r0x0f   0x00000f       data     static memmove.asm
                    r0x10   0x000010       data     static ../../RF24Network_cg.c
                    r0x10   0x000010       data     static memmove.asm
                    r0x11   0x000011       data     static ../../RF24Network_cg.c
                    r0x11   0x000011       data     static memmove.asm
                    r0x12   0x000012       data     static ../../RF24Network_cg.c
                    r0x13   0x000013       data     static ../../RF24Network_cg.c
                    r0x14   0x000014       data     static ../../RF24Network_cg.c
                    r0x15   0x000015       data     static ../../RF24Network_cg.c
                    r0x16   0x000016       data     static ../../RF24Network_cg.c
                    r0x17   0x000017       data     static ../../RF24Network_cg.c
                    r0x18   0x000018       data     static ../../RF24Network_cg.c
                    r0x19   0x000019       data     static ../../RF24Network_cg.c
                    r0x1a   0x00001a       data     static ../../RF24Network_cg.c
           wait_till_done   0x0069c8    program     static eeprom16_write.asm



                              Symbols - Sorted by Address
                     Name    Address   Location    Storage File
                ---------  ---------  ---------  --------- ---------
                  __entry   0x000000    program     extern crt0iz.asm
                    r0x00   0x000000       data     static helloworld_tx.c
                    r0x00   0x000000       data     static serial.c
                    r0x00   0x000000       data     static ../../../RF24_c/utility/XC8/spi.c
                    r0x00   0x000000       data     static ../../../RF24_c/RF24_cg.c
                    r0x00   0x000000       data     static ../../RF24Network_cg.c
                    r0x00   0x000000       data     static mullong.asm
                    r0x00   0x000000       data     static divuint.asm
                    r0x00   0x000000       data     static mulint.asm
                    r0x00   0x000000       data     static moduint.asm
                    r0x00   0x000000       data     static divulong.asm
                    r0x00   0x000000       data     static memcpy.asm
                    r0x00   0x000000       data     static ltoa.asm
                    r0x00   0x000000       data     static memmove.asm
                    r0x00   0x000000       data     static modulong.asm
                    r0x01   0x000001       data     static helloworld_tx.c
                    r0x01   0x000001       data     static serial.c
                    r0x01   0x000001       data     static ../../../RF24_c/utility/XC8/spi.c
                    r0x01   0x000001       data     static ../../../RF24_c/RF24_cg.c
                    r0x01   0x000001       data     static ../../RF24Network_cg.c
                    r0x01   0x000001       data     static mullong.asm
                    r0x01   0x000001       data     static divuint.asm
                    r0x01   0x000001       data     static mulint.asm
                    r0x01   0x000001       data     static moduint.asm
                    r0x01   0x000001       data     static divulong.asm
                    r0x01   0x000001       data     static memcpy.asm
                    r0x01   0x000001       data     static ltoa.asm
                    r0x01   0x000001       data     static memmove.asm
                    r0x01   0x000001       data     static modulong.asm
                    r0x02   0x000002       data     static helloworld_tx.c
                    r0x02   0x000002       data     static serial.c
                    r0x02   0x000002       data     static ../../../RF24_c/utility/XC8/spi.c
                    r0x02   0x000002       data     static ../../../RF24_c/RF24_cg.c
                    r0x02   0x000002       data     static ../../RF24Network_cg.c
                    r0x02   0x000002       data     static mullong.asm
                    r0x02   0x000002       data     static divuint.asm
                    r0x02   0x000002       data     static mulint.asm
                    r0x02   0x000002       data     static moduint.asm
                    r0x02   0x000002       data     static divulong.asm
                    r0x02   0x000002       data     static memcpy.asm
                    r0x02   0x000002       data     static ltoa.asm
                    r0x02   0x000002       data     static memmove.asm
                    r0x02   0x000002       data     static modulong.asm
                    r0x03   0x000003       data     static helloworld_tx.c
                    r0x03   0x000003       data     static serial.c
                    r0x03   0x000003       data     static ../../../RF24_c/utility/XC8/spi.c
                    r0x03   0x000003       data     static ../../../RF24_c/RF24_cg.c
                    r0x03   0x000003       data     static ../../RF24Network_cg.c
                    r0x03   0x000003       data     static mullong.asm
                    r0x03   0x000003       data     static divuint.asm
                    r0x03   0x000003       data     static mulint.asm
                    r0x03   0x000003       data     static moduint.asm
                    r0x03   0x000003       data     static divulong.asm
                    r0x03   0x000003       data     static memcpy.asm
                    r0x03   0x000003       data     static ltoa.asm
                    r0x03   0x000003       data     static memmove.asm
                    r0x03   0x000003       data     static modulong.asm
       ___eeprom_gptrget1   0x000004    program     extern gptr/eeprom16_gptrget1_dispatch.S
                    r0x04   0x000004       data     static helloworld_tx.c
                    r0x04   0x000004       data     static serial.c
                    r0x04   0x000004       data     static ../../../RF24_c/utility/XC8/spi.c
                    r0x04   0x000004       data     static ../../../RF24_c/RF24_cg.c
                    r0x04   0x000004       data     static ../../RF24Network_cg.c
                    r0x04   0x000004       data     static mullong.asm
                    r0x04   0x000004       data     static divuint.asm
                    r0x04   0x000004       data     static moduint.asm
                    r0x04   0x000004       data     static divulong.asm
                    r0x04   0x000004       data     static memcpy.asm
                    r0x04   0x000004       data     static ltoa.asm
                    r0x04   0x000004       data     static memmove.asm
                    r0x04   0x000004       data     static modulong.asm
                    r0x05   0x000005       data     static helloworld_tx.c
                    r0x05   0x000005       data     static serial.c
                    r0x05   0x000005       data     static ../../../RF24_c/utility/XC8/spi.c
                    r0x05   0x000005       data     static ../../../RF24_c/RF24_cg.c
                    r0x05   0x000005       data     static ../../RF24Network_cg.c
                    r0x05   0x000005       data     static mullong.asm
                    r0x05   0x000005       data     static divuint.asm
                    r0x05   0x000005       data     static moduint.asm
                    r0x05   0x000005       data     static divulong.asm
                    r0x05   0x000005       data     static memcpy.asm
                    r0x05   0x000005       data     static ltoa.asm
                    r0x05   0x000005       data     static memmove.asm
                    r0x05   0x000005       data     static modulong.asm
                    r0x06   0x000006       data     static helloworld_tx.c
                    r0x06   0x000006       data     static serial.c
                    r0x06   0x000006       data     static ../../../RF24_c/utility/XC8/spi.c
                    r0x06   0x000006       data     static ../../../RF24_c/RF24_cg.c
                    r0x06   0x000006       data     static ../../RF24Network_cg.c
                    r0x06   0x000006       data     static mullong.asm
                    r0x06   0x000006       data     static divuint.asm
                    r0x06   0x000006       data     static moduint.asm
                    r0x06   0x000006       data     static divulong.asm
                    r0x06   0x000006       data     static memcpy.asm
                    r0x06   0x000006       data     static ltoa.asm
                    r0x06   0x000006       data     static memmove.asm
                    r0x06   0x000006       data     static modulong.asm
                    r0x07   0x000007       data     static helloworld_tx.c
                    r0x07   0x000007       data     static serial.c
                    r0x07   0x000007       data     static ../../../RF24_c/utility/XC8/spi.c
                    r0x07   0x000007       data     static ../../../RF24_c/RF24_cg.c
                    r0x07   0x000007       data     static ../../RF24Network_cg.c
                    r0x07   0x000007       data     static mullong.asm
                    r0x07   0x000007       data     static divuint.asm
                    r0x07   0x000007       data     static divulong.asm
                    r0x07   0x000007       data     static memcpy.asm
                    r0x07   0x000007       data     static ltoa.asm
                    r0x07   0x000007       data     static memmove.asm
                    r0x07   0x000007       data     static modulong.asm
             ivec_0x1_isr   0x000008    program     static pic_main.c
                    r0x08   0x000008       data     static helloworld_tx.c
                    r0x08   0x000008       data     static ../../../RF24_c/RF24_cg.c
                    r0x08   0x000008       data     static ../../RF24Network_cg.c
                    r0x08   0x000008       data     static divulong.asm
                    r0x08   0x000008       data     static memcpy.asm
                    r0x08   0x000008       data     static ltoa.asm
                    r0x08   0x000008       data     static memmove.asm
                    r0x08   0x000008       data     static modulong.asm
                    r0x09   0x000009       data     static helloworld_tx.c
                    r0x09   0x000009       data     static ../../../RF24_c/RF24_cg.c
                    r0x09   0x000009       data     static ../../RF24Network_cg.c
                    r0x09   0x000009       data     static divulong.asm
                    r0x09   0x000009       data     static memcpy.asm
                    r0x09   0x000009       data     static ltoa.asm
                    r0x09   0x000009       data     static memmove.asm
                    r0x09   0x000009       data     static modulong.asm
                    r0x0a   0x00000a       data     static helloworld_tx.c
                    r0x0a   0x00000a       data     static ../../../RF24_c/RF24_cg.c
                    r0x0a   0x00000a       data     static ../../RF24Network_cg.c
                    r0x0a   0x00000a       data     static divulong.asm
                    r0x0a   0x00000a       data     static memcpy.asm
                    r0x0a   0x00000a       data     static ltoa.asm
                    r0x0a   0x00000a       data     static memmove.asm
                    r0x0a   0x00000a       data     static modulong.asm
                    r0x0b   0x00000b       data     static helloworld_tx.c
                    r0x0b   0x00000b       data     static ../../../RF24_c/RF24_cg.c
                    r0x0b   0x00000b       data     static ../../RF24Network_cg.c
                    r0x0b   0x00000b       data     static divulong.asm
                    r0x0b   0x00000b       data     static memcpy.asm
                    r0x0b   0x00000b       data     static ltoa.asm
                    r0x0b   0x00000b       data     static memmove.asm
           _RF24N_enqueue   0x00000c    program     extern ../../RF24Network_cg.c
                    r0x0c   0x00000c       data     static ../../../RF24_c/RF24_cg.c
                    r0x0c   0x00000c       data     static ../../RF24Network_cg.c
                    r0x0c   0x00000c       data     static divulong.asm
                    r0x0c   0x00000c       data     static memcpy.asm
                    r0x0c   0x00000c       data     static ltoa.asm
                    r0x0c   0x00000c       data     static memmove.asm
                    r0x0d   0x00000d       data     static ../../../RF24_c/RF24_cg.c
                    r0x0d   0x00000d       data     static ../../RF24Network_cg.c
                    r0x0d   0x00000d       data     static divulong.asm
                    r0x0d   0x00000d       data     static ltoa.asm
                    r0x0d   0x00000d       data     static memmove.asm
                    r0x0e   0x00000e       data     static ../../../RF24_c/RF24_cg.c
                    r0x0e   0x00000e       data     static ../../RF24Network_cg.c
                    r0x0e   0x00000e       data     static ltoa.asm
                    r0x0e   0x00000e       data     static memmove.asm
                    r0x0f   0x00000f       data     static ../../../RF24_c/RF24_cg.c
                    r0x0f   0x00000f       data     static ../../RF24Network_cg.c
                    r0x0f   0x00000f       data     static ltoa.asm
                    r0x0f   0x00000f       data     static memmove.asm
                    r0x10   0x000010       data     static ../../RF24Network_cg.c
                    r0x10   0x000010       data     static memmove.asm
                    r0x11   0x000011       data     static ../../RF24Network_cg.c
                    r0x11   0x000011       data     static memmove.asm
                    r0x12   0x000012       data     static ../../RF24Network_cg.c
                    r0x13   0x000013       data     static ../../RF24Network_cg.c
                    r0x14   0x000014       data     static ../../RF24Network_cg.c
                    r0x15   0x000015       data     static ../../RF24Network_cg.c
                    r0x16   0x000016       data     static ../../RF24Network_cg.c
                    r0x17   0x000017       data     static ../../RF24Network_cg.c
                    r0x18   0x000018       data     static ../../RF24Network_cg.c
                    r0x19   0x000019       data     static ../../RF24Network_cg.c
                    r0x1a   0x00001a       data     static ../../RF24Network_cg.c
        _ultoa_buffer_1_2   0x000080       data     static ltoa.asm
                      _rf   0x0000a0       data     static ../../../RF24_c/RF24_cg.c
               _00370_DS_   0x0000b6    program     static ../../RF24Network_cg.c
                    _buff   0x0000b6       data     extern serial.c
               _00450_DS_   0x0000be    program     static ../../RF24Network_cg.c
                 _next_id   0x0000c0       data     static ../../RF24Network_cg.c
_RF24N_pipe_address_address_translation_1_308   0x0000c2       data     static ../../RF24Network_cg.c
                ___uflags   0x0000c9       data     extern crt0iz.asm
      _loop_payload_2_176   0x0000ca       data     static helloworld_tx.c
       _loop_header_2_176   0x0000d2       data     static helloworld_tx.c
_RF24_openWritingPipe_d_value_1_249   0x0000da       data     static ../../../RF24_c/RF24_cg.c
_RF24_openReadingPipe_d_address_1_254   0x0000df       data     static ../../../RF24_c/RF24_cg.c
_RF24N_begin_d_addr_2_178   0x0000e4       data     static ../../RF24Network_cg.c
_RF24N_write_to_pipe_out_pipe_1_278   0x0000e9       data     static ../../RF24Network_cg.c
_RF24N_multicastLevel_addr_1_302   0x0000ee       data     static ../../RF24Network_cg.c
_RF24N_pipe_address_result_1_308   0x0000f3       data     static ../../RF24Network_cg.c
               _last_sent   0x0000f8       data     extern helloworld_tx.c
            _packets_sent   0x0000fc       data     extern helloworld_tx.c
               _00451_DS_   0x00011c    program     static ../../RF24Network_cg.c
               _00330_DS_   0x000128    program     static ../../RF24Network_cg.c
               _00452_DS_   0x00015e    program     static ../../RF24Network_cg.c
               _00453_DS_   0x000160    program     static ../../RF24Network_cg.c
               _00454_DS_   0x000184    program     static ../../RF24Network_cg.c
               _00455_DS_   0x000186    program     static ../../RF24Network_cg.c
               _00331_DS_   0x00018c    program     static ../../RF24Network_cg.c
               _00456_DS_   0x0001c4    program     static ../../RF24Network_cg.c
               _00333_DS_   0x0001d8    program     static ../../RF24Network_cg.c
               _00355_DS_   0x00027c    program     static ../../RF24Network_cg.c
               _00350_DS_   0x000290    program     static ../../RF24Network_cg.c
               _00464_DS_   0x0002ae    program     static ../../RF24Network_cg.c
               _00335_DS_   0x0002ba    program     static ../../RF24Network_cg.c
               _00340_DS_   0x0002f0    program     static ../../RF24Network_cg.c
               _00336_DS_   0x000326    program     static ../../RF24Network_cg.c
               _00337_DS_   0x00032c    program     static ../../RF24Network_cg.c
               _00472_DS_   0x0003b2    program     static ../../RF24Network_cg.c
               _00342_DS_   0x0003c4    program     static ../../RF24Network_cg.c
               _00344_DS_   0x0003f4    program     static ../../RF24Network_cg.c
               _00475_DS_   0x000424    program     static ../../RF24Network_cg.c
               _00346_DS_   0x000554    program     static ../../RF24Network_cg.c
               _00348_DS_   0x000558    program     static ../../RF24Network_cg.c
               _00360_DS_   0x00056e    program     static ../../RF24Network_cg.c
               _00479_DS_   0x000576    program     static ../../RF24Network_cg.c
               _00361_DS_   0x0005e4    program     static ../../RF24Network_cg.c
               _00480_DS_   0x00060e    program     static ../../RF24Network_cg.c
                   _stack   0x000700       data     extern stack/stack.S
               _00363_DS_   0x000790    program     static ../../RF24Network_cg.c
               _00365_DS_   0x000796    program     static ../../RF24Network_cg.c
               _00366_DS_   0x000798    program     static ../../RF24Network_cg.c
               _00367_DS_   0x00079a    program     static ../../RF24Network_cg.c
            _RF24N_update   0x0007dc    program     extern ../../RF24Network_cg.c
               _stack_end   0x0007ff       data     extern stack/stack.S
                      _rn   0x000800       data     static ../../RF24Network_cg.c
               _00285_DS_   0x000852    program     static ../../RF24Network_cg.c
               _00151_DS_   0x000854    program     static ../../RF24Network_cg.c
               _00149_DS_   0x00086e    program     static ../../RF24Network_cg.c
               _00197_DS_   0x000874    program     static ../../RF24Network_cg.c
               _00157_DS_   0x0008ce    program     static ../../RF24Network_cg.c
               _00288_DS_   0x00098c    program     static ../../RF24Network_cg.c
               _00289_DS_   0x00098e    program     static ../../RF24Network_cg.c
               _00291_DS_   0x000996    program     static ../../RF24Network_cg.c
               _00293_DS_   0x00099e    program     static ../../RF24Network_cg.c
               _00295_DS_   0x0009ac    program     static ../../RF24Network_cg.c
               _00165_DS_   0x000a24    program     static ../../RF24Network_cg.c
               _00167_DS_   0x000a9e    program     static ../../RF24Network_cg.c
               _00178_DS_   0x000aba    program     static ../../RF24Network_cg.c
               _00175_DS_   0x000ad0    program     static ../../RF24Network_cg.c
               _00176_DS_   0x000b02    program     static ../../RF24Network_cg.c
               _00312_DS_   0x000b20    program     static ../../RF24Network_cg.c
               _00194_DS_   0x000b24    program     static ../../RF24Network_cg.c
               _00313_DS_   0x000b42    program     static ../../RF24Network_cg.c
               _00314_DS_   0x000b44    program     static ../../RF24Network_cg.c
               _00316_DS_   0x000b4c    program     static ../../RF24Network_cg.c
               _00319_DS_   0x000b60    program     static ../../RF24Network_cg.c
               _00185_DS_   0x000be8    program     static ../../RF24Network_cg.c
               _00187_DS_   0x000c40    program     static ../../RF24Network_cg.c
               _00321_DS_   0x000c48    program     static ../../RF24Network_cg.c
               _00191_DS_   0x000c4c    program     static ../../RF24Network_cg.c
               _00199_DS_   0x000c78    program     static ../../RF24Network_cg.c
               _00200_DS_   0x000c7a    program     static ../../RF24Network_cg.c
            _RF24N_write_   0x000cbc    program     extern ../../RF24Network_cg.c
               _00547_DS_   0x000d6c    program     static ../../RF24Network_cg.c
               _00637_DS_   0x000dac    program     static ../../RF24Network_cg.c
               _00549_DS_   0x000dba    program     static ../../RF24Network_cg.c
               _00639_DS_   0x000dd6    program     static ../../RF24Network_cg.c
               _00551_DS_   0x000e22    program     static ../../RF24Network_cg.c
               _00553_DS_   0x000e50    program     static ../../RF24Network_cg.c
               _00640_DS_   0x000e5a    program     static ../../RF24Network_cg.c
               _00555_DS_   0x000e60    program     static ../../RF24Network_cg.c
               _00581_DS_   0x000e8a    program     static ../../RF24Network_cg.c
               _00582_DS_   0x000e8c    program     static ../../RF24Network_cg.c
               _00642_DS_   0x000ede    program     static ../../RF24Network_cg.c
               _00557_DS_   0x000ef0    program     static ../../RF24Network_cg.c
                   _mtime   0x000f00       data     extern ../../../RF24_c/utility/XC8/spi.c
_RF24N_write_conversion_1_263   0x000f04       data     static ../../RF24Network_cg.c
          __mullong_x_1_2   0x000f08       data     static mullong.asm
          __mullong_y_1_2   0x000f0c       data     static mullong.asm
          __mullong_t_1_2   0x000f10       data     static mullong.asm
         __mullong_t1_1_2   0x000f14       data     static mullong.asm
         __mullong_t2_1_2   0x000f18       data     static mullong.asm
               _00570_DS_   0x000f1c    program     static ../../RF24Network_cg.c
_RF24N_enqueue_message_size_1_203   0x000f1c       data     static ../../RF24Network_cg.c
_RF24N_peek_msg_size_2_227   0x000f1e       data     static ../../RF24Network_cg.c
_RF24N_read_bufsize_1_229   0x000f20       data     static ../../RF24Network_cg.c
           __mulint_x_1_2   0x000f22       data     static mulint.asm
           __mulint_y_1_2   0x000f24       data     static mulint.asm
           __mulint_t_1_2   0x000f26       data     static mulint.asm
_RF24N_update_pipe_num_1_179   0x000f28       data     static ../../RF24Network_cg.c
               _00562_DS_   0x000f72    program     static ../../RF24Network_cg.c
                   _PORTA   0x000f80       data     extern libdev18f4620_a-pic18f4620.asm
               _PORTAbits   0x000f80       data     extern libdev18f4620_a-pic18f4620.asm
                   _PORTB   0x000f81       data     extern libdev18f4620_a-pic18f4620.asm
               _PORTBbits   0x000f81       data     extern libdev18f4620_a-pic18f4620.asm
                   _PORTC   0x000f82       data     extern libdev18f4620_a-pic18f4620.asm
               _PORTCbits   0x000f82       data     extern libdev18f4620_a-pic18f4620.asm
                   _PORTD   0x000f83       data     extern libdev18f4620_a-pic18f4620.asm
               _PORTDbits   0x000f83       data     extern libdev18f4620_a-pic18f4620.asm
                   _PORTE   0x000f84       data     extern libdev18f4620_a-pic18f4620.asm
               _PORTEbits   0x000f84       data     extern libdev18f4620_a-pic18f4620.asm
                    _LATA   0x000f89       data     extern libdev18f4620_a-pic18f4620.asm
                _LATAbits   0x000f89       data     extern libdev18f4620_a-pic18f4620.asm
               _00559_DS_   0x000f8a    program     static ../../RF24Network_cg.c
                    _LATB   0x000f8a       data     extern libdev18f4620_a-pic18f4620.asm
                _LATBbits   0x000f8a       data     extern libdev18f4620_a-pic18f4620.asm
                    _LATC   0x000f8b       data     extern libdev18f4620_a-pic18f4620.asm
                _LATCbits   0x000f8b       data     extern libdev18f4620_a-pic18f4620.asm
                    _LATD   0x000f8c       data     extern libdev18f4620_a-pic18f4620.asm
                _LATDbits   0x000f8c       data     extern libdev18f4620_a-pic18f4620.asm
                    _LATE   0x000f8d       data     extern libdev18f4620_a-pic18f4620.asm
                _LATEbits   0x000f8d       data     extern libdev18f4620_a-pic18f4620.asm
                    _DDRA   0x000f92       data     extern libdev18f4620_a-pic18f4620.asm
                _DDRAbits   0x000f92       data     extern libdev18f4620_a-pic18f4620.asm
                   _TRISA   0x000f92       data     extern libdev18f4620_a-pic18f4620.asm
               _TRISAbits   0x000f92       data     extern libdev18f4620_a-pic18f4620.asm
                    _DDRB   0x000f93       data     extern libdev18f4620_a-pic18f4620.asm
                _DDRBbits   0x000f93       data     extern libdev18f4620_a-pic18f4620.asm
                   _TRISB   0x000f93       data     extern libdev18f4620_a-pic18f4620.asm
               _TRISBbits   0x000f93       data     extern libdev18f4620_a-pic18f4620.asm
                    _DDRC   0x000f94       data     extern libdev18f4620_a-pic18f4620.asm
                _DDRCbits   0x000f94       data     extern libdev18f4620_a-pic18f4620.asm
                   _TRISC   0x000f94       data     extern libdev18f4620_a-pic18f4620.asm
               _TRISCbits   0x000f94       data     extern libdev18f4620_a-pic18f4620.asm
                    _DDRD   0x000f95       data     extern libdev18f4620_a-pic18f4620.asm
                _DDRDbits   0x000f95       data     extern libdev18f4620_a-pic18f4620.asm
                   _TRISD   0x000f95       data     extern libdev18f4620_a-pic18f4620.asm
               _TRISDbits   0x000f95       data     extern libdev18f4620_a-pic18f4620.asm
                    _DDRE   0x000f96       data     extern libdev18f4620_a-pic18f4620.asm
                _DDREbits   0x000f96       data     extern libdev18f4620_a-pic18f4620.asm
                   _TRISE   0x000f96       data     extern libdev18f4620_a-pic18f4620.asm
               _TRISEbits   0x000f96       data     extern libdev18f4620_a-pic18f4620.asm
                 _OSCTUNE   0x000f9b       data     extern libdev18f4620_a-pic18f4620.asm
             _OSCTUNEbits   0x000f9b       data     extern libdev18f4620_a-pic18f4620.asm
               _00563_DS_   0x000f9c    program     static ../../RF24Network_cg.c
                    _PIE1   0x000f9d       data     extern libdev18f4620_a-pic18f4620.asm
                _PIE1bits   0x000f9d       data     extern libdev18f4620_a-pic18f4620.asm
                    _PIR1   0x000f9e       data     extern libdev18f4620_a-pic18f4620.asm
                _PIR1bits   0x000f9e       data     extern libdev18f4620_a-pic18f4620.asm
                    _IPR1   0x000f9f       data     extern libdev18f4620_a-pic18f4620.asm
                _IPR1bits   0x000f9f       data     extern libdev18f4620_a-pic18f4620.asm
                    _PIE2   0x000fa0       data     extern libdev18f4620_a-pic18f4620.asm
                _PIE2bits   0x000fa0       data     extern libdev18f4620_a-pic18f4620.asm
                    _PIR2   0x000fa1       data     extern libdev18f4620_a-pic18f4620.asm
                _PIR2bits   0x000fa1       data     extern libdev18f4620_a-pic18f4620.asm
                    _IPR2   0x000fa2       data     extern libdev18f4620_a-pic18f4620.asm
                _IPR2bits   0x000fa2       data     extern libdev18f4620_a-pic18f4620.asm
                  _EECON1   0x000fa6       data     extern libdev18f4620_a-pic18f4620.asm
              _EECON1bits   0x000fa6       data     extern libdev18f4620_a-pic18f4620.asm
                  _EECON2   0x000fa7       data     extern libdev18f4620_a-pic18f4620.asm
                  _EEDATA   0x000fa8       data     extern libdev18f4620_a-pic18f4620.asm
                   _EEADR   0x000fa9       data     extern libdev18f4620_a-pic18f4620.asm
                  _EEADRH   0x000faa       data     extern libdev18f4620_a-pic18f4620.asm
                   _RCSTA   0x000fab       data     extern libdev18f4620_a-pic18f4620.asm
               _RCSTAbits   0x000fab       data     extern libdev18f4620_a-pic18f4620.asm
                   _TXSTA   0x000fac       data     extern libdev18f4620_a-pic18f4620.asm
               _TXSTAbits   0x000fac       data     extern libdev18f4620_a-pic18f4620.asm
                   _TXREG   0x000fad       data     extern libdev18f4620_a-pic18f4620.asm
                   _RCREG   0x000fae       data     extern libdev18f4620_a-pic18f4620.asm
                   _SPBRG   0x000faf       data     extern libdev18f4620_a-pic18f4620.asm
                  _SPBRGH   0x000fb0       data     extern libdev18f4620_a-pic18f4620.asm
                   _T3CON   0x000fb1       data     extern libdev18f4620_a-pic18f4620.asm
               _T3CONbits   0x000fb1       data     extern libdev18f4620_a-pic18f4620.asm
                    _TMR3   0x000fb2       data     extern libdev18f4620_a-pic18f4620.asm
                   _TMR3L   0x000fb2       data     extern libdev18f4620_a-pic18f4620.asm
                   _TMR3H   0x000fb3       data     extern libdev18f4620_a-pic18f4620.asm
                   _CMCON   0x000fb4       data     extern libdev18f4620_a-pic18f4620.asm
               _CMCONbits   0x000fb4       data     extern libdev18f4620_a-pic18f4620.asm
                  _CVRCON   0x000fb5       data     extern libdev18f4620_a-pic18f4620.asm
              _CVRCONbits   0x000fb5       data     extern libdev18f4620_a-pic18f4620.asm
                 _ECCP1AS   0x000fb6       data     extern libdev18f4620_a-pic18f4620.asm
             _ECCP1ASbits   0x000fb6       data     extern libdev18f4620_a-pic18f4620.asm
                 _PWM1CON   0x000fb7       data     extern libdev18f4620_a-pic18f4620.asm
             _PWM1CONbits   0x000fb7       data     extern libdev18f4620_a-pic18f4620.asm
                 _BAUDCON   0x000fb8       data     extern libdev18f4620_a-pic18f4620.asm
             _BAUDCONbits   0x000fb8       data     extern libdev18f4620_a-pic18f4620.asm
                 _BAUDCTL   0x000fb8       data     extern libdev18f4620_a-pic18f4620.asm
             _BAUDCTLbits   0x000fb8       data     extern libdev18f4620_a-pic18f4620.asm
                 _CCP2CON   0x000fba       data     extern libdev18f4620_a-pic18f4620.asm
             _CCP2CONbits   0x000fba       data     extern libdev18f4620_a-pic18f4620.asm
                   _CCPR2   0x000fbb       data     extern libdev18f4620_a-pic18f4620.asm
                  _CCPR2L   0x000fbb       data     extern libdev18f4620_a-pic18f4620.asm
                  _CCPR2H   0x000fbc       data     extern libdev18f4620_a-pic18f4620.asm
                 _CCP1CON   0x000fbd       data     extern libdev18f4620_a-pic18f4620.asm
             _CCP1CONbits   0x000fbd       data     extern libdev18f4620_a-pic18f4620.asm
                   _CCPR1   0x000fbe       data     extern libdev18f4620_a-pic18f4620.asm
                  _CCPR1L   0x000fbe       data     extern libdev18f4620_a-pic18f4620.asm
                  _CCPR1H   0x000fbf       data     extern libdev18f4620_a-pic18f4620.asm
                  _ADCON2   0x000fc0       data     extern libdev18f4620_a-pic18f4620.asm
              _ADCON2bits   0x000fc0       data     extern libdev18f4620_a-pic18f4620.asm
                  _ADCON1   0x000fc1       data     extern libdev18f4620_a-pic18f4620.asm
              _ADCON1bits   0x000fc1       data     extern libdev18f4620_a-pic18f4620.asm
                  _ADCON0   0x000fc2       data     extern libdev18f4620_a-pic18f4620.asm
              _ADCON0bits   0x000fc2       data     extern libdev18f4620_a-pic18f4620.asm
                   _ADRES   0x000fc3       data     extern libdev18f4620_a-pic18f4620.asm
                  _ADRESL   0x000fc3       data     extern libdev18f4620_a-pic18f4620.asm
                  _ADRESH   0x000fc4       data     extern libdev18f4620_a-pic18f4620.asm
                 _SSPCON2   0x000fc5       data     extern libdev18f4620_a-pic18f4620.asm
             _SSPCON2bits   0x000fc5       data     extern libdev18f4620_a-pic18f4620.asm
                 _SSPCON1   0x000fc6       data     extern libdev18f4620_a-pic18f4620.asm
             _SSPCON1bits   0x000fc6       data     extern libdev18f4620_a-pic18f4620.asm
                 _SSPSTAT   0x000fc7       data     extern libdev18f4620_a-pic18f4620.asm
             _SSPSTATbits   0x000fc7       data     extern libdev18f4620_a-pic18f4620.asm
                  _SSPADD   0x000fc8       data     extern libdev18f4620_a-pic18f4620.asm
                  _SSPBUF   0x000fc9       data     extern libdev18f4620_a-pic18f4620.asm
                   _T2CON   0x000fca       data     extern libdev18f4620_a-pic18f4620.asm
               _T2CONbits   0x000fca       data     extern libdev18f4620_a-pic18f4620.asm
                     _PR2   0x000fcb       data     extern libdev18f4620_a-pic18f4620.asm
                    _TMR2   0x000fcc       data     extern libdev18f4620_a-pic18f4620.asm
                   _T1CON   0x000fcd       data     extern libdev18f4620_a-pic18f4620.asm
               _T1CONbits   0x000fcd       data     extern libdev18f4620_a-pic18f4620.asm
                    _TMR1   0x000fce       data     extern libdev18f4620_a-pic18f4620.asm
                   _TMR1L   0x000fce       data     extern libdev18f4620_a-pic18f4620.asm
                   _TMR1H   0x000fcf       data     extern libdev18f4620_a-pic18f4620.asm
                    _RCON   0x000fd0       data     extern libdev18f4620_a-pic18f4620.asm
                _RCONbits   0x000fd0       data     extern libdev18f4620_a-pic18f4620.asm
                  _WDTCON   0x000fd1       data     extern libdev18f4620_a-pic18f4620.asm
              _WDTCONbits   0x000fd1       data     extern libdev18f4620_a-pic18f4620.asm
                 _HLVDCON   0x000fd2       data     extern libdev18f4620_a-pic18f4620.asm
             _HLVDCONbits   0x000fd2       data     extern libdev18f4620_a-pic18f4620.asm
                  _LVDCON   0x000fd2       data     extern libdev18f4620_a-pic18f4620.asm
              _LVDCONbits   0x000fd2       data     extern libdev18f4620_a-pic18f4620.asm
                  _OSCCON   0x000fd3       data     extern libdev18f4620_a-pic18f4620.asm
              _OSCCONbits   0x000fd3       data     extern libdev18f4620_a-pic18f4620.asm
                   _T0CON   0x000fd5       data     extern libdev18f4620_a-pic18f4620.asm
               _T0CONbits   0x000fd5       data     extern libdev18f4620_a-pic18f4620.asm
                    _TMR0   0x000fd6       data     extern libdev18f4620_a-pic18f4620.asm
                   _TMR0L   0x000fd6       data     extern libdev18f4620_a-pic18f4620.asm
                   _TMR0H   0x000fd7       data     extern libdev18f4620_a-pic18f4620.asm
                  _STATUS   0x000fd8       data     extern libdev18f4620_a-pic18f4620.asm
              _STATUSbits   0x000fd8       data     extern libdev18f4620_a-pic18f4620.asm
                   _FSR2L   0x000fd9       data     extern libdev18f4620_a-pic18f4620.asm
                   _FSR2H   0x000fda       data     extern libdev18f4620_a-pic18f4620.asm
                  _PLUSW2   0x000fdb       data     extern libdev18f4620_a-pic18f4620.asm
                 _PREINC2   0x000fdc       data     extern libdev18f4620_a-pic18f4620.asm
                _POSTDEC2   0x000fdd       data     extern libdev18f4620_a-pic18f4620.asm
               _00646_DS_   0x000fde    program     static ../../RF24Network_cg.c
                _POSTINC2   0x000fde       data     extern libdev18f4620_a-pic18f4620.asm
                   _INDF2   0x000fdf       data     extern libdev18f4620_a-pic18f4620.asm
                     _BSR   0x000fe0       data     extern libdev18f4620_a-pic18f4620.asm
                   _FSR1L   0x000fe1       data     extern libdev18f4620_a-pic18f4620.asm
                   _FSR1H   0x000fe2       data     extern libdev18f4620_a-pic18f4620.asm
                  _PLUSW1   0x000fe3       data     extern libdev18f4620_a-pic18f4620.asm
                 _PREINC1   0x000fe4       data     extern libdev18f4620_a-pic18f4620.asm
                _POSTDEC1   0x000fe5       data     extern libdev18f4620_a-pic18f4620.asm
                _POSTINC1   0x000fe6       data     extern libdev18f4620_a-pic18f4620.asm
                   _INDF1   0x000fe7       data     extern libdev18f4620_a-pic18f4620.asm
               _00584_DS_   0x000fe8    program     static ../../RF24Network_cg.c
                    _WREG   0x000fe8       data     extern libdev18f4620_a-pic18f4620.asm
                   _FSR0L   0x000fe9       data     extern libdev18f4620_a-pic18f4620.asm
                   _FSR0H   0x000fea       data     extern libdev18f4620_a-pic18f4620.asm
                  _PLUSW0   0x000feb       data     extern libdev18f4620_a-pic18f4620.asm
                 _PREINC0   0x000fec       data     extern libdev18f4620_a-pic18f4620.asm
                _POSTDEC0   0x000fed       data     extern libdev18f4620_a-pic18f4620.asm
                _POSTINC0   0x000fee       data     extern libdev18f4620_a-pic18f4620.asm
                   _INDF0   0x000fef       data     extern libdev18f4620_a-pic18f4620.asm
                 _INTCON3   0x000ff0       data     extern libdev18f4620_a-pic18f4620.asm
             _INTCON3bits   0x000ff0       data     extern libdev18f4620_a-pic18f4620.asm
                 _INTCON2   0x000ff1       data     extern libdev18f4620_a-pic18f4620.asm
             _INTCON2bits   0x000ff1       data     extern libdev18f4620_a-pic18f4620.asm
                  _INTCON   0x000ff2       data     extern libdev18f4620_a-pic18f4620.asm
              _INTCONbits   0x000ff2       data     extern libdev18f4620_a-pic18f4620.asm
                    _PROD   0x000ff3       data     extern libdev18f4620_a-pic18f4620.asm
                   _PRODL   0x000ff3       data     extern libdev18f4620_a-pic18f4620.asm
                   _PRODH   0x000ff4       data     extern libdev18f4620_a-pic18f4620.asm
                  _TABLAT   0x000ff5       data     extern libdev18f4620_a-pic18f4620.asm
                  _TBLPTR   0x000ff6       data     extern libdev18f4620_a-pic18f4620.asm
                 _TBLPTRL   0x000ff6       data     extern libdev18f4620_a-pic18f4620.asm
                 _TBLPTRH   0x000ff7       data     extern libdev18f4620_a-pic18f4620.asm
                 _TBLPTRU   0x000ff8       data     extern libdev18f4620_a-pic18f4620.asm
                      _PC   0x000ff9       data     extern libdev18f4620_a-pic18f4620.asm
                     _PCL   0x000ff9       data     extern libdev18f4620_a-pic18f4620.asm
                  _PCLATH   0x000ffa       data     extern libdev18f4620_a-pic18f4620.asm
                  _PCLATU   0x000ffb       data     extern libdev18f4620_a-pic18f4620.asm
                  _STKPTR   0x000ffc       data     extern libdev18f4620_a-pic18f4620.asm
              _STKPTRbits   0x000ffc       data     extern libdev18f4620_a-pic18f4620.asm
                     _TOS   0x000ffd       data     extern libdev18f4620_a-pic18f4620.asm
                    _TOSL   0x000ffd       data     extern libdev18f4620_a-pic18f4620.asm
                    _TOSH   0x000ffe       data     extern libdev18f4620_a-pic18f4620.asm
                    _TOSU   0x000fff       data     extern libdev18f4620_a-pic18f4620.asm
               _00565_DS_   0x001066    program     static ../../RF24Network_cg.c
               _00566_DS_   0x00106c    program     static ../../RF24Network_cg.c
               _00602_DS_   0x00107a    program     static ../../RF24Network_cg.c
               _00574_DS_   0x0010d0    program     static ../../RF24Network_cg.c
               _00576_DS_   0x0010e6    program     static ../../RF24Network_cg.c
               _00578_DS_   0x001118    program     static ../../RF24Network_cg.c
               _00579_DS_   0x00111a    program     static ../../RF24Network_cg.c
            _digitalWrite   0x00118c    program     extern ../../../RF24_c/utility/XC8/spi.c
               _00204_DS_   0x0011da    program     static ../../../RF24_c/utility/XC8/spi.c
               _00157_DS_   0x001276    program     static ../../../RF24_c/utility/XC8/spi.c
               _00158_DS_   0x001286    program     static ../../../RF24_c/utility/XC8/spi.c
               _00159_DS_   0x001298    program     static ../../../RF24_c/utility/XC8/spi.c
               _00160_DS_   0x0012ac    program     static ../../../RF24_c/utility/XC8/spi.c
               _00161_DS_   0x0012c0    program     static ../../../RF24_c/utility/XC8/spi.c
               _00162_DS_   0x0012d2    program     static ../../../RF24_c/utility/XC8/spi.c
               _00163_DS_   0x0012e6    program     static ../../../RF24_c/utility/XC8/spi.c
               _00164_DS_   0x0012f6    program     static ../../../RF24_c/utility/XC8/spi.c
               _00165_DS_   0x001308    program     static ../../../RF24_c/utility/XC8/spi.c
               _00166_DS_   0x00131c    program     static ../../../RF24_c/utility/XC8/spi.c
               _00167_DS_   0x00132e    program     static ../../../RF24_c/utility/XC8/spi.c
               _00168_DS_   0x001342    program     static ../../../RF24_c/utility/XC8/spi.c
               _00169_DS_   0x001352    program     static ../../../RF24_c/utility/XC8/spi.c
               _00170_DS_   0x001364    program     static ../../../RF24_c/utility/XC8/spi.c
               _00171_DS_   0x001378    program     static ../../../RF24_c/utility/XC8/spi.c
               _00172_DS_   0x00138c    program     static ../../../RF24_c/utility/XC8/spi.c
               _00173_DS_   0x00139c    program     static ../../../RF24_c/utility/XC8/spi.c
               _00174_DS_   0x0013ae    program     static ../../../RF24_c/utility/XC8/spi.c
               _00175_DS_   0x0013c2    program     static ../../../RF24_c/utility/XC8/spi.c
               _00176_DS_   0x0013d6    program     static ../../../RF24_c/utility/XC8/spi.c
               _00177_DS_   0x0013e8    program     static ../../../RF24_c/utility/XC8/spi.c
               _00178_DS_   0x0013fc    program     static ../../../RF24_c/utility/XC8/spi.c
               _00179_DS_   0x001410    program     static ../../../RF24_c/utility/XC8/spi.c
               _00180_DS_   0x001422    program     static ../../../RF24_c/utility/XC8/spi.c
               _00181_DS_   0x001434    program     static ../../../RF24_c/utility/XC8/spi.c
               _00182_DS_   0x001448    program     static ../../../RF24_c/utility/XC8/spi.c
               _00183_DS_   0x00145c    program     static ../../../RF24_c/utility/XC8/spi.c
               _00184_DS_   0x00146e    program     static ../../../RF24_c/utility/XC8/spi.c
               _00185_DS_   0x00147e    program     static ../../../RF24_c/utility/XC8/spi.c
               _00186_DS_   0x001490    program     static ../../../RF24_c/utility/XC8/spi.c
               _00187_DS_   0x0014a4    program     static ../../../RF24_c/utility/XC8/spi.c
               _00188_DS_   0x0014b8    program     static ../../../RF24_c/utility/XC8/spi.c
               _00189_DS_   0x0014ca    program     static ../../../RF24_c/utility/XC8/spi.c
               _00190_DS_   0x0014de    program     static ../../../RF24_c/utility/XC8/spi.c
               _00191_DS_   0x0014f2    program     static ../../../RF24_c/utility/XC8/spi.c
               _00194_DS_   0x001502    program     static ../../../RF24_c/utility/XC8/spi.c
                 _pinMode   0x001510    program     extern ../../../RF24_c/utility/XC8/spi.c
               _00152_DS_   0x00155e    program     static ../../../RF24_c/utility/XC8/spi.c
               _00105_DS_   0x0015fa    program     static ../../../RF24_c/utility/XC8/spi.c
               _00106_DS_   0x00160a    program     static ../../../RF24_c/utility/XC8/spi.c
               _00107_DS_   0x00161c    program     static ../../../RF24_c/utility/XC8/spi.c
               _00108_DS_   0x001630    program     static ../../../RF24_c/utility/XC8/spi.c
               _00109_DS_   0x001644    program     static ../../../RF24_c/utility/XC8/spi.c
               _00110_DS_   0x001656    program     static ../../../RF24_c/utility/XC8/spi.c
               _00111_DS_   0x00166a    program     static ../../../RF24_c/utility/XC8/spi.c
               _00112_DS_   0x00167a    program     static ../../../RF24_c/utility/XC8/spi.c
               _00113_DS_   0x00168c    program     static ../../../RF24_c/utility/XC8/spi.c
               _00114_DS_   0x0016a0    program     static ../../../RF24_c/utility/XC8/spi.c
               _00115_DS_   0x0016b2    program     static ../../../RF24_c/utility/XC8/spi.c
               _00116_DS_   0x0016c6    program     static ../../../RF24_c/utility/XC8/spi.c
               _00117_DS_   0x0016d6    program     static ../../../RF24_c/utility/XC8/spi.c
               _00118_DS_   0x0016e8    program     static ../../../RF24_c/utility/XC8/spi.c
               _00119_DS_   0x0016fc    program     static ../../../RF24_c/utility/XC8/spi.c
               _00120_DS_   0x001710    program     static ../../../RF24_c/utility/XC8/spi.c
               _00121_DS_   0x001720    program     static ../../../RF24_c/utility/XC8/spi.c
               _00122_DS_   0x001732    program     static ../../../RF24_c/utility/XC8/spi.c
               _00123_DS_   0x001746    program     static ../../../RF24_c/utility/XC8/spi.c
               _00124_DS_   0x00175a    program     static ../../../RF24_c/utility/XC8/spi.c
               _00125_DS_   0x00176c    program     static ../../../RF24_c/utility/XC8/spi.c
               _00126_DS_   0x001780    program     static ../../../RF24_c/utility/XC8/spi.c
               _00127_DS_   0x001794    program     static ../../../RF24_c/utility/XC8/spi.c
               _00128_DS_   0x0017a6    program     static ../../../RF24_c/utility/XC8/spi.c
               _00129_DS_   0x0017b8    program     static ../../../RF24_c/utility/XC8/spi.c
               _00130_DS_   0x0017cc    program     static ../../../RF24_c/utility/XC8/spi.c
               _00131_DS_   0x0017e0    program     static ../../../RF24_c/utility/XC8/spi.c
               _00132_DS_   0x0017f2    program     static ../../../RF24_c/utility/XC8/spi.c
               _00133_DS_   0x001802    program     static ../../../RF24_c/utility/XC8/spi.c
               _00134_DS_   0x001814    program     static ../../../RF24_c/utility/XC8/spi.c
               _00135_DS_   0x001828    program     static ../../../RF24_c/utility/XC8/spi.c
               _00136_DS_   0x00183c    program     static ../../../RF24_c/utility/XC8/spi.c
               _00137_DS_   0x00184e    program     static ../../../RF24_c/utility/XC8/spi.c
               _00138_DS_   0x001862    program     static ../../../RF24_c/utility/XC8/spi.c
               _00139_DS_   0x001876    program     static ../../../RF24_c/utility/XC8/spi.c
               _00142_DS_   0x001886    program     static ../../../RF24_c/utility/XC8/spi.c
             _RF24N_write   0x001894    program     extern ../../RF24Network_cg.c
               _00686_DS_   0x0018f8    program     static ../../RF24Network_cg.c
               _00689_DS_   0x001912    program     static ../../RF24Network_cg.c
               _00763_DS_   0x001972    program     static ../../RF24Network_cg.c
               _00764_DS_   0x001988    program     static ../../RF24Network_cg.c
               _00765_DS_   0x00198a    program     static ../../RF24Network_cg.c
               _00691_DS_   0x001a74    program     static ../../RF24Network_cg.c
               _00767_DS_   0x001a8c    program     static ../../RF24Network_cg.c
               _00707_DS_   0x001a98    program     static ../../RF24Network_cg.c
               _00696_DS_   0x001ae6    program     static ../../RF24Network_cg.c
               _00699_DS_   0x001afc    program     static ../../RF24Network_cg.c
               _00774_DS_   0x001b4c    program     static ../../RF24Network_cg.c
               _00703_DS_   0x001b50    program     static ../../RF24Network_cg.c
               _00709_DS_   0x001b5a    program     static ../../RF24Network_cg.c
               _00710_DS_   0x001b5c    program     static ../../RF24Network_cg.c
             _digitalRead   0x001b96    program     extern ../../../RF24_c/utility/XC8/spi.c
               _00257_DS_   0x001bde    program     static ../../../RF24_c/utility/XC8/spi.c
               _00209_DS_   0x001c7e    program     static ../../../RF24_c/utility/XC8/spi.c
               _00210_DS_   0x001c8a    program     static ../../../RF24_c/utility/XC8/spi.c
               _00211_DS_   0x001c96    program     static ../../../RF24_c/utility/XC8/spi.c
               _00212_DS_   0x001ca2    program     static ../../../RF24_c/utility/XC8/spi.c
               _00213_DS_   0x001cae    program     static ../../../RF24_c/utility/XC8/spi.c
               _00214_DS_   0x001cba    program     static ../../../RF24_c/utility/XC8/spi.c
               _00215_DS_   0x001cc6    program     static ../../../RF24_c/utility/XC8/spi.c
               _00216_DS_   0x001cd2    program     static ../../../RF24_c/utility/XC8/spi.c
               _00217_DS_   0x001cde    program     static ../../../RF24_c/utility/XC8/spi.c
               _00218_DS_   0x001cea    program     static ../../../RF24_c/utility/XC8/spi.c
               _00219_DS_   0x001cf6    program     static ../../../RF24_c/utility/XC8/spi.c
               _00220_DS_   0x001d02    program     static ../../../RF24_c/utility/XC8/spi.c
               _00221_DS_   0x001d0e    program     static ../../../RF24_c/utility/XC8/spi.c
               _00222_DS_   0x001d1a    program     static ../../../RF24_c/utility/XC8/spi.c
               _00223_DS_   0x001d26    program     static ../../../RF24_c/utility/XC8/spi.c
               _00224_DS_   0x001d32    program     static ../../../RF24_c/utility/XC8/spi.c
               _00225_DS_   0x001d3e    program     static ../../../RF24_c/utility/XC8/spi.c
               _00226_DS_   0x001d4a    program     static ../../../RF24_c/utility/XC8/spi.c
               _00227_DS_   0x001d56    program     static ../../../RF24_c/utility/XC8/spi.c
               _00228_DS_   0x001d62    program     static ../../../RF24_c/utility/XC8/spi.c
               _00229_DS_   0x001d6e    program     static ../../../RF24_c/utility/XC8/spi.c
               _00230_DS_   0x001d7a    program     static ../../../RF24_c/utility/XC8/spi.c
               _00231_DS_   0x001d86    program     static ../../../RF24_c/utility/XC8/spi.c
               _00232_DS_   0x001d92    program     static ../../../RF24_c/utility/XC8/spi.c
               _00233_DS_   0x001d9e    program     static ../../../RF24_c/utility/XC8/spi.c
               _00234_DS_   0x001daa    program     static ../../../RF24_c/utility/XC8/spi.c
               _00235_DS_   0x001db6    program     static ../../../RF24_c/utility/XC8/spi.c
               _00236_DS_   0x001dc2    program     static ../../../RF24_c/utility/XC8/spi.c
               _00237_DS_   0x001dce    program     static ../../../RF24_c/utility/XC8/spi.c
               _00238_DS_   0x001dda    program     static ../../../RF24_c/utility/XC8/spi.c
               _00239_DS_   0x001de6    program     static ../../../RF24_c/utility/XC8/spi.c
               _00240_DS_   0x001df2    program     static ../../../RF24_c/utility/XC8/spi.c
               _00241_DS_   0x001dfe    program     static ../../../RF24_c/utility/XC8/spi.c
               _00242_DS_   0x001e0a    program     static ../../../RF24_c/utility/XC8/spi.c
               _00243_DS_   0x001e16    program     static ../../../RF24_c/utility/XC8/spi.c
               _00244_DS_   0x001e22    program     static ../../../RF24_c/utility/XC8/spi.c
               _00246_DS_   0x001e2c    program     static ../../../RF24_c/utility/XC8/spi.c
              _RF24N_read   0x001e3c    program     extern ../../RF24Network_cg.c
               _00530_DS_   0x001f48    program     static ../../RF24Network_cg.c
               _00516_DS_   0x001f54    program     static ../../RF24Network_cg.c
               _00517_DS_   0x001f5c    program     static ../../RF24Network_cg.c
               _00509_DS_   0x001f98    program     static ../../RF24Network_cg.c
               _00511_DS_   0x00202e    program     static ../../RF24Network_cg.c
               _00513_DS_   0x0020a0    program     static ../../RF24Network_cg.c
  _RF24_openReadingPipe_d   0x0020da    program     extern ../../../RF24_c/RF24_cg.c
               _00644_DS_   0x002124    program     static ../../../RF24_c/RF24_cg.c
               _00638_DS_   0x0021c0    program     static ../../../RF24_c/RF24_cg.c
               _00640_DS_   0x00221e    program     static ../../../RF24_c/RF24_cg.c
               _00641_DS_   0x00226a    program     static ../../../RF24_c/RF24_cg.c
               _00668_DS_   0x0022da    program     static ../../../RF24_c/RF24_cg.c
               _00667_DS_   0x0022e0    program     static ../../../RF24_c/RF24_cg.c
               _00646_DS_   0x0022f4    program     static ../../../RF24_c/RF24_cg.c
                    _loop   0x002322    program     extern helloworld_tx.c
               _00123_DS_   0x0023ca    program     static helloworld_tx.c
               _00124_DS_   0x00244e    program     static helloworld_tx.c
               _10110_DS_   0x00244e    program     static helloworld_tx.c
               _00111_DS_   0x002512    program     static helloworld_tx.c
               _00115_DS_   0x002532    program     static helloworld_tx.c
                __mullong   0x002568    program     extern mullong.asm
            _RF24N__write   0x00277c    program     extern ../../RF24Network_cg.c
               _00654_DS_   0x002898    program     static ../../RF24Network_cg.c
               _00676_DS_   0x0028a2    program     static ../../RF24Network_cg.c
               _00677_DS_   0x0028d6    program     static ../../RF24Network_cg.c
               _00678_DS_   0x0028d8    program     static ../../RF24Network_cg.c
               _00656_DS_   0x0028dc    program     static ../../RF24Network_cg.c
               _00679_DS_   0x0028e8    program     static ../../RF24Network_cg.c
               _00680_DS_   0x0028ea    program     static ../../RF24Network_cg.c
               _00658_DS_   0x0028ee    program     static ../../RF24Network_cg.c
               _00660_DS_   0x002908    program     static ../../RF24Network_cg.c
               _00661_DS_   0x00293e    program     static ../../RF24Network_cg.c
      _RF24N_pipe_address   0x002984    program     extern ../../RF24Network_cg.c
               _00931_DS_   0x002a2a    program     static ../../RF24Network_cg.c
               _00928_DS_   0x002a3a    program     static ../../RF24Network_cg.c
               _00929_DS_   0x002a7a    program     static ../../RF24Network_cg.c
               _00933_DS_   0x002a90    program     static ../../RF24Network_cg.c
               _00934_DS_   0x002a9a    program     static ../../RF24Network_cg.c
               _00935_DS_   0x002ac4    program     static ../../RF24Network_cg.c
               _00961_DS_   0x002acc    program     static ../../RF24Network_cg.c
               _00947_DS_   0x002af6    program     static ../../RF24Network_cg.c
               _00939_DS_   0x002af8    program     static ../../RF24Network_cg.c
                 _memmove   0x002b8a    program     extern memmove.asm
               _00137_DS_   0x002c2c    program     static memmove.asm
               _00138_DS_   0x002c42    program     static memmove.asm
               _00105_DS_   0x002c8e    program     static memmove.asm
               _00112_DS_   0x002cd8    program     static memmove.asm
               _00108_DS_   0x002ce4    program     static memmove.asm
               _00139_DS_   0x002d10    program     static memmove.asm
               _00140_DS_   0x002d2a    program     static memmove.asm
               _00113_DS_   0x002d2c    program     static memmove.asm
    _RF24_openReadingPipe   0x002d84    program     extern ../../../RF24_c/RF24_cg.c
               _00681_DS_   0x002e1e    program     static ../../../RF24_c/RF24_cg.c
               _00683_DS_   0x002e70    program     static ../../../RF24_c/RF24_cg.c
               _00684_DS_   0x002eb0    program     static ../../../RF24_c/RF24_cg.c
               _00701_DS_   0x002f20    program     static ../../../RF24_c/RF24_cg.c
               _00700_DS_   0x002f26    program     static ../../../RF24_c/RF24_cg.c
               _00687_DS_   0x002f3a    program     static ../../../RF24_c/RF24_cg.c
_RF24N_logicalToPhysicalAddress   0x002f70    program     extern ../../RF24Network_cg.c
               _00786_DS_   0x003046    program     static ../../RF24Network_cg.c
               _00783_DS_   0x00308a    program     static ../../RF24Network_cg.c
               _00787_DS_   0x0030e2    program     static ../../RF24Network_cg.c
                   _ultoa   0x003152    program     extern ltoa.asm
               _00107_DS_   0x0031ca    program     static ltoa.asm
               _00106_DS_   0x00320c    program     static ltoa.asm
               _00110_DS_   0x00327c    program     static ltoa.asm
               _00132_DS_   0x0032b6    program     static ltoa.asm
           _RF24N_begin_d   0x00330a    program     extern ../../RF24Network_cg.c
               _00116_DS_   0x003354    program     static ../../RF24Network_cg.c
               _00118_DS_   0x00336c    program     static ../../RF24Network_cg.c
               _00120_DS_   0x00337c    program     static ../../RF24Network_cg.c
               _00121_DS_   0x003434    program     static ../../RF24Network_cg.c
               _00123_DS_   0x003490    program     static ../../RF24Network_cg.c
               _00124_DS_   0x003494    program     static ../../RF24Network_cg.c
        _RF24_txStandBy_t   0x0034b2    program     extern ../../../RF24_c/RF24_cg.c
               _00533_DS_   0x00351a    program     static ../../../RF24_c/RF24_cg.c
               _00538_DS_   0x00352c    program     static ../../../RF24_c/RF24_cg.c
               _00560_DS_   0x0035a2    program     static ../../../RF24_c/RF24_cg.c
               _00540_DS_   0x0035b8    program     static ../../../RF24_c/RF24_cg.c
               _00541_DS_   0x0035c4    program     static ../../../RF24_c/RF24_cg.c
      _RF24_writeBlocking   0x0035fa    program     extern ../../../RF24_c/RF24_cg.c
               _00431_DS_   0x003684    program     static ../../../RF24_c/RF24_cg.c
               _00450_DS_   0x0036d4    program     static ../../../RF24_c/RF24_cg.c
               _00433_DS_   0x0036da    program     static ../../../RF24_c/RF24_cg.c
               _00434_DS_   0x0036fc    program     static ../../../RF24_c/RF24_cg.c
              _RF24_begin   0x003742    program     extern ../../../RF24_c/RF24_cg.c
               _00316_DS_   0x00376e    program     static ../../../RF24_c/RF24_cg.c
               _00318_DS_   0x00378a    program     static ../../../RF24_c/RF24_cg.c
               _00320_DS_   0x0037e8    program     static ../../../RF24_c/RF24_cg.c
               _00323_DS_   0x003870    program     static ../../../RF24_c/RF24_cg.c
               _00324_DS_   0x003874    program     static ../../../RF24_c/RF24_cg.c
               _00325_DS_   0x003878    program     static ../../../RF24_c/RF24_cg.c
     _RF24N_write_to_pipe   0x003888    program     extern ../../RF24Network_cg.c
               _00805_DS_   0x0038fa    program     static ../../RF24Network_cg.c
               _00807_DS_   0x003910    program     static ../../RF24Network_cg.c
               _00808_DS_   0x003920    program     static ../../RF24Network_cg.c
               _00810_DS_   0x0039a8    program     static ../../RF24Network_cg.c
               __modulong   0x0039cc    program     extern modulong.asm
               _00122_DS_   0x003a46    program     static modulong.asm
               _00109_DS_   0x003a48    program     static modulong.asm
               _00141_DS_   0x003a74    program     static modulong.asm
               _00108_DS_   0x003a82    program     static modulong.asm
               _00114_DS_   0x003a8a    program     static modulong.asm
               _00142_DS_   0x003aa0    program     static modulong.asm
               _00113_DS_   0x003ab2    program     static modulong.asm
               _00117_DS_   0x003ad4    program     static modulong.asm
         _RF24N_multicast   0x003b06    program     extern ../../RF24Network_cg.c
            _Serial_begin   0x003c34    program     extern serial.c
                 ___str_0   0x003d58    program     static serial.c
  _RF24_openWritingPipe_d   0x003d5c    program     extern ../../../RF24_c/RF24_cg.c
               _00615_DS_   0x003d9c    program     static ../../../RF24_c/RF24_cg.c
               __divulong   0x003e7e    program     extern divulong.asm
               _00109_DS_   0x003efa    program     static divulong.asm
               _00127_DS_   0x003f32    program     static divulong.asm
               _00110_DS_   0x003f46    program     static divulong.asm
                  _memcpy   0x003f9e    program     extern memcpy.asm
               _00105_DS_   0x004016    program     static memcpy.asm
               _00117_DS_   0x004042    program     static memcpy.asm
               _00118_DS_   0x00405c    program     static memcpy.asm
               _00107_DS_   0x00405e    program     static memcpy.asm
              _RF24N_peek   0x0040a2    program     extern ../../RF24Network_cg.c
               _00502_DS_   0x00417e    program     static ../../RF24Network_cg.c
               _00503_DS_   0x004182    program     static ../../RF24Network_cg.c
      _RF24_write_payload   0x0041a0    program     extern ../../../RF24_c/RF24_cg.c
               _00188_DS_   0x0041fe    program     static ../../../RF24_c/RF24_cg.c
               _00189_DS_   0x004202    program     static ../../../RF24_c/RF24_cg.c
               _00190_DS_   0x004210    program     static ../../../RF24_c/RF24_cg.c
               _00191_DS_   0x004216    program     static ../../../RF24_c/RF24_cg.c
               _00180_DS_   0x00422a    program     static ../../../RF24_c/RF24_cg.c
               _00213_DS_   0x00424c    program     static ../../../RF24_c/RF24_cg.c
               _00197_DS_   0x004258    program     static ../../../RF24_c/RF24_cg.c
               _00183_DS_   0x00425c    program     static ../../../RF24_c/RF24_cg.c
               _00185_DS_   0x004272    program     static ../../../RF24_c/RF24_cg.c
             _RF24NH_init   0x00429a    program     extern ../../RF24Network_cg.c
               _10967_DS_   0x004336    program     static ../../RF24Network_cg.c
       _RF24_whatHappened   0x004392    program     extern ../../../RF24_c/RF24_cg.c
       _RF24_read_payload   0x004486    program     extern ../../../RF24_c/RF24_cg.c
               _00219_DS_   0x0044dc    program     static ../../../RF24_c/RF24_cg.c
               _00228_DS_   0x0044e6    program     static ../../../RF24_c/RF24_cg.c
               _00229_DS_   0x0044ec    program     static ../../../RF24_c/RF24_cg.c
               _00220_DS_   0x004500    program     static ../../../RF24_c/RF24_cg.c
               _00251_DS_   0x004530    program     static ../../../RF24_c/RF24_cg.c
               _00235_DS_   0x004532    program     static ../../../RF24_c/RF24_cg.c
               _00223_DS_   0x004536    program     static ../../../RF24_c/RF24_cg.c
               _00225_DS_   0x00454c    program     static ../../../RF24_c/RF24_cg.c
     _RF24N_setup_address   0x004574    program     extern ../../RF24Network_cg.c
               _00851_DS_   0x004598    program     static ../../RF24Network_cg.c
               _00853_DS_   0x0045c4    program     static ../../RF24Network_cg.c
               _00854_DS_   0x004610    program     static ../../RF24Network_cg.c
               _00856_DS_   0x00463c    program     static ../../RF24Network_cg.c
      _RF24_stopListening   0x00465c    program     extern ../../../RF24_c/RF24_cg.c
               _00369_DS_   0x0046ae    program     static ../../../RF24_c/RF24_cg.c
               _00378_DS_   0x0046f6    program     static ../../../RF24_c/RF24_cg.c
               _00377_DS_   0x0046fc    program     static ../../../RF24_c/RF24_cg.c
                    _ltoa   0x004722    program     extern ltoa.asm
               _00138_DS_   0x0047a2    program     static ltoa.asm
    _RF24_writeAckPayload   0x0047e8    program     extern ../../../RF24_c/RF24_cg.c
               _00740_DS_   0x004838    program     static ../../../RF24_c/RF24_cg.c
               _00734_DS_   0x00485a    program     static ../../../RF24_c/RF24_cg.c
               _00754_DS_   0x00487c    program     static ../../../RF24_c/RF24_cg.c
               _00736_DS_   0x004888    program     static ../../../RF24_c/RF24_cg.c
     _RF24N_addressOfPipe   0x0048a6    program     extern ../../RF24Network_cg.c
               _00862_DS_   0x0048fc    program     static ../../RF24Network_cg.c
               _00864_DS_   0x00490c    program     static ../../RF24Network_cg.c
               _00875_DS_   0x00491e    program     static ../../RF24Network_cg.c
               _00874_DS_   0x004926    program     static ../../RF24Network_cg.c
                __moduint   0x004962    program     extern moduint.asm
               _00107_DS_   0x0049a2    program     static moduint.asm
               _00136_DS_   0x0049be    program     static moduint.asm
               _00106_DS_   0x0049c8    program     static moduint.asm
               _00112_DS_   0x0049d0    program     static moduint.asm
               _00137_DS_   0x0049da    program     static moduint.asm
               _00111_DS_   0x0049e4    program     static moduint.asm
     _RF24_startListening   0x004a1c    program     extern ../../../RF24_c/RF24_cg.c
               _00350_DS_   0x004a9e    program     static ../../../RF24_c/RF24_cg.c
               _00351_DS_   0x004aa8    program     static ../../../RF24_c/RF24_cg.c
               _00354_DS_   0x004abc    program     static ../../../RF24_c/RF24_cg.c
           _RF24N_write_m   0x004ace    program     extern ../../RF24Network_cg.c
                __divuint   0x004b80    program     extern divuint.asm
               _00109_DS_   0x004bc8    program     static divuint.asm
               _00127_DS_   0x004bec    program     static divuint.asm
               _00110_DS_   0x004bf8    program     static divuint.asm
        _RF24_setDataRate   0x004c30    program     extern ../../../RF24_c/RF24_cg.c
               _00848_DS_   0x004c8a    program     static ../../../RF24_c/RF24_cg.c
               _00849_DS_   0x004ca4    program     static ../../../RF24_c/RF24_cg.c
               _00851_DS_   0x004cca    program     static ../../../RF24_c/RF24_cg.c
                __startup   0x004cde    program     extern crt0iz.asm
               clear_loop   0x004cf4    program     static crt0iz.asm
               entry_loop   0x004d14    program     static crt0iz.asm
                copy_loop   0x004d62    program     static crt0iz.asm
            copy_loop_dec   0x004d68    program     static crt0iz.asm
           entry_loop_dec   0x004d7c    program     static crt0iz.asm
                   lockup   0x004d88    program     static crt0iz.asm
            _RF24_write_m   0x004d8a    program     extern ../../../RF24_c/RF24_cg.c
               _00400_DS_   0x004de4    program     static ../../../RF24_c/RF24_cg.c
               _00404_DS_   0x004e18    program     static ../../../RF24_c/RF24_cg.c
               _00405_DS_   0x004e1a    program     static ../../../RF24_c/RF24_cg.c
  _RF24_read_register_m_d   0x004e34    program     extern ../../../RF24_c/RF24_cg.c
               _00133_DS_   0x004e86    program     static ../../../RF24_c/RF24_cg.c
               _00146_DS_   0x004eb6    program     static ../../../RF24_c/RF24_cg.c
               _00135_DS_   0x004eb8    program     static ../../../RF24_c/RF24_cg.c
                   _delay   0x004edc    program     extern ../../../RF24_c/utility/XC8/spi.c
               _00273_DS_   0x004f14    program     static ../../../RF24_c/utility/XC8/spi.c
               _00290_DS_   0x004f1e    program     static ../../../RF24_c/utility/XC8/spi.c
               _00271_DS_   0x004f28    program     static ../../../RF24_c/utility/XC8/spi.c
               _00275_DS_   0x004f5c    program     static ../../../RF24_c/utility/XC8/spi.c
        _RF24_writeFast_m   0x004f82    program     extern ../../../RF24_c/RF24_cg.c
               _00462_DS_   0x004fc0    program     static ../../../RF24_c/RF24_cg.c
               _00464_DS_   0x004fe8    program     static ../../../RF24_c/RF24_cg.c
               _00465_DS_   0x00500a    program     static ../../../RF24_c/RF24_cg.c
 _RF24_write_register_c_d   0x005028    program     extern ../../../RF24_c/RF24_cg.c
               _00156_DS_   0x00507c    program     static ../../../RF24_c/RF24_cg.c
               _00170_DS_   0x00509e    program     static ../../../RF24_c/RF24_cg.c
               _00158_DS_   0x0050aa    program     static ../../../RF24_c/RF24_cg.c
              _RF24N_init   0x0050ce    program     extern ../../RF24Network_cg.c
                   _setup   0x005174    program     extern helloworld_tx.c
    _RF24N_multicastLevel   0x005216    program     extern ../../RF24Network_cg.c
   _RF24N_is_direct_child   0x0052b8    program     extern ../../RF24Network_cg.c
               _00829_DS_   0x005336    program     static ../../RF24Network_cg.c
                 __mulint   0x00535a    program     extern mulint.asm
         _RF24_startWrite   0x0053fa    program     extern ../../../RF24_c/RF24_cg.c
               _00499_DS_   0x00543e    program     static ../../../RF24_c/RF24_cg.c
               _00500_DS_   0x005442    program     static ../../../RF24_c/RF24_cg.c
            _Serial_print   0x005496    program     extern serial.c
               _00118_DS_   0x0054d4    program     static serial.c
               _00121_DS_   0x00550a    program     static serial.c
     _RF24_startFastWrite   0x005530    program     extern ../../../RF24_c/RF24_cg.c
               _00491_DS_   0x00557e    program     static ../../../RF24_c/RF24_cg.c
               _00492_DS_   0x005582    program     static ../../../RF24_c/RF24_cg.c
               _00489_DS_   0x0055ac    program     static ../../../RF24_c/RF24_cg.c
            _RF24_maskIRQ   0x0055ca    program     extern ../../../RF24_c/RF24_cg.c
    _RF24N_levelToAddress   0x005660    program     extern ../../RF24Network_cg.c
               _00921_DS_   0x0056ba    program     static ../../RF24Network_cg.c
               _00923_DS_   0x0056c4    program     static ../../RF24Network_cg.c
               _00922_DS_   0x0056c6    program     static ../../RF24Network_cg.c
               _00920_DS_   0x0056ce    program     static ../../RF24Network_cg.c
               _00913_DS_   0x0056d0    program     static ../../RF24Network_cg.c
               _00914_DS_   0x0056d6    program     static ../../RF24Network_cg.c
               _00915_DS_   0x0056dc    program     static ../../RF24Network_cg.c
   _RF24_closeReadingPipe   0x0056f2    program     extern ../../../RF24_c/RF24_cg.c
               _00709_DS_   0x00574a    program     static ../../../RF24_c/RF24_cg.c
               _00708_DS_   0x005750    program     static ../../../RF24_c/RF24_cg.c
       _delayMicroseconds   0x00577e    program     extern ../../../RF24_c/utility/XC8/spi.c
               _00301_DS_   0x0057ac    program     static ../../../RF24_c/utility/XC8/spi.c
               _00318_DS_   0x0057bc    program     static ../../../RF24_c/utility/XC8/spi.c
               _00299_DS_   0x0057c4    program     static ../../../RF24_c/utility/XC8/spi.c
               _00303_DS_   0x0057e6    program     static ../../../RF24_c/utility/XC8/spi.c
       _RF24_setAutoAck_p   0x005808    program     extern ../../../RF24_c/RF24_cg.c
               _00792_DS_   0x00584a    program     static ../../../RF24_c/RF24_cg.c
               _00791_DS_   0x005850    program     static ../../../RF24_c/RF24_cg.c
               _00778_DS_   0x005856    program     static ../../../RF24_c/RF24_cg.c
               _00795_DS_   0x005862    program     static ../../../RF24_c/RF24_cg.c
               _00794_DS_   0x005868    program     static ../../../RF24_c/RF24_cg.c
               _00779_DS_   0x005870    program     static ../../../RF24_c/RF24_cg.c
               _00782_DS_   0x005880    program     static ../../../RF24_c/RF24_cg.c
    _RF24_openWritingPipe   0x005892    program     extern ../../../RF24_c/RF24_cg.c
               _Serial_rx   0x005918    program     extern serial.c
               _00131_DS_   0x005944    program     static serial.c
               _00147_DS_   0x005948    program     static serial.c
               _00136_DS_   0x00594c    program     static serial.c
               _00160_DS_   0x005956    program     static serial.c
               _00135_DS_   0x00595e    program     static serial.c
               _00138_DS_   0x00597c    program     static serial.c
               _00140_DS_   0x005984    program     static serial.c
               _00142_DS_   0x005986    program     static serial.c
                   _itoa_   0x00599c    program     extern serial.c
        _RF24_available_p   0x005a1c    program     extern ../../../RF24_c/RF24_cg.c
               _00588_DS_   0x005a80    program     static ../../../RF24_c/RF24_cg.c
               _00590_DS_   0x005a84    program     static ../../../RF24_c/RF24_cg.c
               _00591_DS_   0x005a86    program     static ../../../RF24_c/RF24_cg.c
  _RF24N_is_valid_address   0x005a9c    program     extern ../../RF24Network_cg.c
               _00887_DS_   0x005ac8    program     static ../../RF24Network_cg.c
               _00886_DS_   0x005ae0    program     static ../../RF24Network_cg.c
               _00889_DS_   0x005af4    program     static ../../RF24Network_cg.c
               _RF24_read   0x005b10    program     extern ../../../RF24_c/RF24_cg.c
          _Serial_println   0x005b7e    program     extern serial.c
         _RF24_setPALevel   0x005bea    program     extern ../../../RF24_c/RF24_cg.c
               _00827_DS_   0x005c20    program     static ../../../RF24_c/RF24_cg.c
               _00828_DS_   0x005c2a    program     static ../../../RF24_c/RF24_cg.c
          _RF24_writeFast   0x005c50    program     extern ../../../RF24_c/RF24_cg.c
              _RF24_write   0x005cb6    program     extern ../../../RF24_c/RF24_cg.c
_RF24N_direct_child_route_to   0x005d1c    program     extern ../../RF24Network_cg.c
                     _isr   0x005d82    program     extern pic_main.c
               _00112_DS_   0x005dc4    program     static pic_main.c
               _10117_DS_   0x005dc4    program     static pic_main.c
               _00107_DS_   0x005dc6    program     static pic_main.c
               _RF24_init   0x005de4    program     extern ../../../RF24_c/RF24_cg.c
          _RF24_txStandBy   0x005e44    program     extern ../../../RF24_c/RF24_cg.c
               _00512_DS_   0x005e50    program     static ../../../RF24_c/RF24_cg.c
               _00514_DS_   0x005e8c    program     static ../../../RF24_c/RF24_cg.c
               _00515_DS_   0x005e98    program     static ../../../RF24_c/RF24_cg.c
       _RF24_getCRCLength   0x005ea2    program     extern ../../../RF24_c/RF24_cg.c
               _00923_DS_   0x005edc    program     static ../../../RF24_c/RF24_cg.c
               _00921_DS_   0x005ee6    program     static ../../../RF24_c/RF24_cg.c
               _00924_DS_   0x005eea    program     static ../../../RF24_c/RF24_cg.c
   _RF24_enableAckPayload   0x005efe    program     extern ../../../RF24_c/RF24_cg.c
_RF24_enableDynamicPayloads   0x005f5a    program     extern ../../../RF24_c/RF24_cg.c
         _RF24_setRetries   0x005fb4    program     extern ../../../RF24_c/RF24_cg.c
               _this_node   0x00600c    program     extern helloworld_tx.c
              _other_node   0x00600e    program     extern helloworld_tx.c
                _interval   0x006010    program     extern helloworld_tx.c
                 ___str_0   0x006014    program     static helloworld_tx.c
                 ___str_1   0x006038    program     static helloworld_tx.c
                 ___str_2   0x006044    program     static helloworld_tx.c
                 ___str_3   0x006048    program     static helloworld_tx.c
       _child_pipe_enable   0x006050    program     static ../../../RF24_c/RF24_cg.c
              _child_pipe   0x006056    program     static ../../../RF24_c/RF24_cg.c
      _child_payload_size   0x00605c    program     static ../../../RF24_c/RF24_cg.c
       _RF24_setCRCLength   0x006062    program     extern ../../../RF24_c/RF24_cg.c
               _00900_DS_   0x006096    program     static ../../../RF24_c/RF24_cg.c
               _00904_DS_   0x00609a    program     static ../../../RF24_c/RF24_cg.c
_RF24_getDynamicPayloadSize   0x0060b8    program     extern ../../../RF24_c/RF24_cg.c
               _00571_DS_   0x006100    program     static ../../../RF24_c/RF24_cg.c
               _00572_DS_   0x006102    program     static ../../../RF24_c/RF24_cg.c
    _RF24_setAddressWidth   0x00610c    program     extern ../../../RF24_c/RF24_cg.c
               _00675_DS_   0x00614e    program     static ../../../RF24_c/RF24_cg.c
   _RF24_write_register_d   0x00615c    program     extern ../../../RF24_c/RF24_cg.c
     _RF24N_is_descendant   0x0061ac    program     extern ../../RF24Network_cg.c
               _00845_DS_   0x0061ea    program     static ../../RF24Network_cg.c
               _00846_DS_   0x0061ec    program     static ../../RF24Network_cg.c
         _RF24N_available   0x0061fc    program     extern ../../RF24Network_cg.c
               _00488_DS_   0x006232    program     static ../../RF24Network_cg.c
        _RF24_getDataRate   0x00624c    program     extern ../../../RF24_c/RF24_cg.c
               _00880_DS_   0x006278    program     static ../../../RF24_c/RF24_cg.c
               _00877_DS_   0x006284    program     static ../../../RF24_c/RF24_cg.c
               _00881_DS_   0x006286    program     static ../../../RF24_c/RF24_cg.c
            _RF24_powerUp   0x006296    program     extern ../../../RF24_c/RF24_cg.c
               _00390_DS_   0x0062d4    program     static ../../../RF24_c/RF24_cg.c
         _RF24_setAutoAck   0x0062de    program     extern ../../../RF24_c/RF24_cg.c
               _00770_DS_   0x006306    program     static ../../../RF24_c/RF24_cg.c
               _00772_DS_   0x006316    program     static ../../../RF24_c/RF24_cg.c
    _RF24_read_register_d   0x006320    program     extern ../../../RF24_c/RF24_cg.c
          _RF24_powerDown   0x006360    program     extern ../../../RF24_c/RF24_cg.c
              _RF24_csn_d   0x00639e    program     extern ../../../RF24_c/RF24_cg.c
             _RF24N_begin   0x0063dc    program     extern ../../RF24Network_cg.c
            _RF24_reUseTX   0x00641a    program     extern ../../../RF24_c/RF24_cg.c
               _RF24_ce_d   0x006456    program     extern ../../../RF24_c/RF24_cg.c
               _00112_DS_   0x006484    program     static ../../../RF24_c/RF24_cg.c
_RF24_isAckPayloadAvailable   0x00648e    program     extern ../../../RF24_c/RF24_cg.c
         _RF24_setChannel   0x0064c4    program     extern ../../../RF24_c/RF24_cg.c
               _00284_DS_   0x0064e0    program     static ../../../RF24_c/RF24_cg.c
         _RF24_disableCRC   0x0064fa    program     extern ../../../RF24_c/RF24_cg.c
   _RF24_enableDynamicAck   0x00652e    program     extern ../../../RF24_c/RF24_cg.c
                    _main   0x006562    program     extern pic_main.c
               _00118_DS_   0x00658c    program     static pic_main.c
           _RF24_spiTrans   0x006594    program     extern ../../../RF24_c/RF24_cg.c
            _RF24_isValid   0x0065c6    program     extern ../../../RF24_c/RF24_cg.c
               _00819_DS_   0x0065da    program     static ../../../RF24_c/RF24_cg.c
               _00812_DS_   0x0065e2    program     static ../../../RF24_c/RF24_cg.c
               _00813_DS_   0x0065e6    program     static ../../../RF24_c/RF24_cg.c
               _00814_DS_   0x0065ea    program     static ../../../RF24_c/RF24_cg.c
         _RF24_getPALevel   0x0065f6    program     extern ../../../RF24_c/RF24_cg.c
          _RF24_available   0x006624    program     extern ../../../RF24_c/RF24_cg.c
     _RF24_setPayloadSize   0x006652    program     extern ../../../RF24_c/RF24_cg.c
               _00301_DS_   0x00666e    program     static ../../../RF24_c/RF24_cg.c
               __gptrget2   0x00667e    program     extern gptrget2.asm
                 _lab_01_   0x00668e    program     static gptrget2.asm
     ___eeprom16_gptrput2   0x0066aa    program     extern eeprom16_gptrput2.asm
  _RF24_toggle_features_d   0x0066d6    program     extern ../../../RF24_c/RF24_cg.c
            _SPI_transfer   0x006700    program     extern ../../../RF24_c/utility/XC8/spi.c
               _00328_DS_   0x006718    program     static ../../../RF24_c/utility/XC8/spi.c
            _RF24_testRPD   0x006728    program     extern ../../../RF24_c/RF24_cg.c
        _RF24_testCarrier   0x006750    program     extern ../../../RF24_c/RF24_cg.c
         _RF24_rxFifoFull   0x006778    program     extern ../../../RF24_c/RF24_cg.c
               _SPI_begin   0x0067a0    program     extern ../../../RF24_c/utility/XC8/spi.c
            _RF24N_parent   0x0067c6    program     extern ../../RF24Network_cg.c
               _00494_DS_   0x0067de    program     static ../../RF24Network_cg.c
               _00496_DS_   0x0067e6    program     static ../../RF24Network_cg.c
     ___eeprom16_gptrget2   0x0067ec    program     extern eeprom16_gptrget2.asm
         _RF24_getChannel   0x006812    program     extern ../../../RF24_c/RF24_cg.c
         _RF24_get_status   0x006836    program     extern ../../../RF24_c/RF24_cg.c
           _RF24_flush_tx   0x00685a    program     extern ../../../RF24_c/RF24_cg.c
           _RF24_flush_rx   0x00687e    program     extern ../../../RF24_c/RF24_cg.c
     ___eeprom16_gptrput1   0x0068a2    program     extern eeprom16_gptrput1.asm
               __gptrget1   0x0068c6    program     extern gptrget1.asm
                 _lab_01_   0x0068d2    program     static gptrget1.asm
                  _millis   0x0068e8    program     extern ../../../RF24_c/utility/XC8/spi.c
     ___eeprom16_gptrget1   0x006906    program     extern eeprom16_gptrget1.asm
               __gptrput2   0x006922    program     extern gptrput2.asm
                 _lab_01_   0x006934    program     static gptrput2.asm
               _Serial_tx   0x00693c    program     extern serial.c
               _00110_DS_   0x00694a    program     static serial.c
     _RF24_endTransaction   0x006954    program     extern ../../../RF24_c/RF24_cg.c
   _RF24_beginTransaction   0x00696c    program     extern ../../../RF24_c/RF24_cg.c
               __gptrput1   0x006984    program     extern gptrput1.asm
                 _lab_01_   0x006992    program     static gptrput1.asm
         _RF24_isPVariant   0x00699a    program     extern ../../../RF24_c/RF24_cg.c
     _RF24_getPayloadSize   0x0069ac    program     extern ../../../RF24_c/RF24_cg.c
        ___eeprom16_write   0x0069be    program     extern eeprom16_write.asm
           wait_till_done   0x0069c8    program     static eeprom16_write.asm
                   _cinit   0x0069d0    program     extern ../../RF24Network_cg.c
       ___eeprom_gptrput2   0x0069e8    program     extern gptr/eeprom16_gptrput2_dispatch.S
       ___eeprom_gptrput1   0x0069ec    program     extern gptr/eeprom16_gptrput1_dispatch.S
       ___eeprom_gptrget2   0x0069f0    program     extern gptr/eeprom16_gptrget2_dispatch.S


