gpasm-1.4.0 #1107 (May  9 2015) build/sdcc/pr   12-5-2016  17:29:30         PAGE  1


LOC    OBJECT CODE    LINE  SOURCE TEXT
  VALUE

                      00001 ;--------------------------------------------------------
                      00002 ; File Created by SDCC : free open source ANSI-C Compiler
                      00003 ; Version 3.6.0 #9615 (Linux)
                      00004 ;--------------------------------------------------------
                      00005 ; PIC16 port for the Microchip 16-bit core micros
                      00006 ;--------------------------------------------------------
                      00007 
                      00008         .ident "SDCC version 3.6.0 #9615 [pic16 port]"
                      00009         .file   "../../../RF24_c/RF24_c.c"
                      00010         list    p=18f4620
                      00011         radix   dec
                      00012 
                      00013 
                      00014 ;--------------------------------------------------------
                      00015 ; public variables in this module
                      00016 ;--------------------------------------------------------
  0000                00017         global  _RF24_csn_d
  0000                00018         global  _RF24_ce_d
  0000                00019         global  _RF24_beginTransaction
  0000                00020         global  _RF24_endTransaction
  0000                00021         global  _RF24_read_register_m_d
  0000                00022         global  _RF24_read_register_d
  0000                00023         global  _RF24_write_register_c_d
  0000                00024         global  _RF24_write_register_d
  0000                00025         global  _RF24_flush_tx
  0000                00026         global  _RF24_init
  0000                00027         global  _RF24_setChannel
  0000                00028         global  _RF24_getChannel
  0000                00029         global  _RF24_setPayloadSize
  0000                00030         global  _RF24_getPayloadSize
  0000                00031         global  _RF24_begin
  0000                00032         global  _RF24_startListening
  0000                00033         global  _RF24_stopListening
  0000                00034         global  _RF24_powerDown
  0000                00035         global  _RF24_powerUp
  0000                00036         global  _RF24_write_m
  0000                00037         global  _RF24_write
  0000                00038         global  _RF24_writeBlocking
  0000                00039         global  _RF24_reUseTX
  0000                00040         global  _RF24_writeFast_m
  0000                00041         global  _RF24_writeFast
  0000                00042         global  _RF24_startFastWrite
  0000                00043         global  _RF24_startWrite
  0000                00044         global  _RF24_rxFifoFull
  0000                00045         global  _RF24_txStandBy
  0000                00046         global  _RF24_txStandBy_t
  0000                00047         global  _RF24_maskIRQ
  0000                00048         global  _RF24_getDynamicPayloadSize
  0000                00049         global  _RF24_available
  0000                00050         global  _RF24_available_p
  0000                00051         global  _RF24_read
  0000                00052         global  _RF24_whatHappened
  0000                00053         global  _RF24_openWritingPipe_d
gpasm-1.4.0 #1107 (May  9 2015) build/sdcc/pr   12-5-2016  17:29:30         PAGE  2


LOC    OBJECT CODE    LINE  SOURCE TEXT
  VALUE

  0000                00054         global  _RF24_openWritingPipe
  0000                00055         global  _RF24_openReadingPipe_d
  0000                00056         global  _RF24_setAddressWidth
  0000                00057         global  _RF24_openReadingPipe
  0000                00058         global  _RF24_closeReadingPipe
  0000                00059         global  _RF24_toggle_features_d
  0000                00060         global  _RF24_enableDynamicPayloads
  0000                00061         global  _RF24_enableAckPayload
  0000                00062         global  _RF24_enableDynamicAck
  0000                00063         global  _RF24_writeAckPayload
  0000                00064         global  _RF24_isAckPayloadAvailable
  0000                00065         global  _RF24_isPVariant
  0000                00066         global  _RF24_setAutoAck
  0000                00067         global  _RF24_setAutoAck_p
  0000                00068         global  _RF24_testCarrier
  0000                00069         global  _RF24_testRPD
  0000                00070         global  _RF24_isValid
  0000                00071         global  _RF24_setPALevel
  0000                00072         global  _RF24_getPALevel
  0000                00073         global  _RF24_setDataRate
  0000                00074         global  _RF24_getDataRate
  0000                00075         global  _RF24_setCRCLength
  0000                00076         global  _RF24_getCRCLength
  0000                00077         global  _RF24_disableCRC
  0000                00078         global  _RF24_setRetries
  0000                00079         global  _RF24_write_payload
  0000                00080         global  _RF24_read_payload
  0000                00081         global  _RF24_spiTrans
  0000                00082         global  _RF24_flush_rx
  0000                00083         global  _RF24_get_status
                      00084 
                      00085 ;--------------------------------------------------------
                      00086 ; extern variables in this module
                      00087 ;--------------------------------------------------------
  0000                00088         extern  __gptrput1
  0000                00089         extern  __gptrget1
  0000                00090         extern  _PORTAbits
  0000                00091         extern  _PORTBbits
  0000                00092         extern  _PORTCbits
  0000                00093         extern  _PORTDbits
  0000                00094         extern  _PORTEbits
  0000                00095         extern  _LATAbits
  0000                00096         extern  _LATBbits
  0000                00097         extern  _LATCbits
  0000                00098         extern  _LATDbits
  0000                00099         extern  _LATEbits
  0000                00100         extern  _DDRAbits
  0000                00101         extern  _TRISAbits
  0000                00102         extern  _DDRBbits
  0000                00103         extern  _TRISBbits
  0000                00104         extern  _DDRCbits
  0000                00105         extern  _TRISCbits
  0000                00106         extern  _DDRDbits
gpasm-1.4.0 #1107 (May  9 2015) build/sdcc/pr   12-5-2016  17:29:30         PAGE  3


LOC    OBJECT CODE    LINE  SOURCE TEXT
  VALUE

  0000                00107         extern  _TRISDbits
  0000                00108         extern  _DDREbits
  0000                00109         extern  _TRISEbits
  0000                00110         extern  _OSCTUNEbits
  0000                00111         extern  _PIE1bits
  0000                00112         extern  _PIR1bits
  0000                00113         extern  _IPR1bits
  0000                00114         extern  _PIE2bits
  0000                00115         extern  _PIR2bits
  0000                00116         extern  _IPR2bits
  0000                00117         extern  _EECON1bits
  0000                00118         extern  _RCSTAbits
  0000                00119         extern  _TXSTAbits
  0000                00120         extern  _T3CONbits
  0000                00121         extern  _CMCONbits
  0000                00122         extern  _CVRCONbits
  0000                00123         extern  _ECCP1ASbits
  0000                00124         extern  _PWM1CONbits
  0000                00125         extern  _BAUDCONbits
  0000                00126         extern  _BAUDCTLbits
  0000                00127         extern  _CCP2CONbits
  0000                00128         extern  _CCP1CONbits
  0000                00129         extern  _ADCON2bits
  0000                00130         extern  _ADCON1bits
  0000                00131         extern  _ADCON0bits
  0000                00132         extern  _SSPCON2bits
  0000                00133         extern  _SSPCON1bits
  0000                00134         extern  _SSPSTATbits
  0000                00135         extern  _T2CONbits
  0000                00136         extern  _T1CONbits
  0000                00137         extern  _RCONbits
  0000                00138         extern  _WDTCONbits
  0000                00139         extern  _HLVDCONbits
  0000                00140         extern  _LVDCONbits
  0000                00141         extern  _OSCCONbits
  0000                00142         extern  _T0CONbits
  0000                00143         extern  _STATUSbits
  0000                00144         extern  _INTCON3bits
  0000                00145         extern  _INTCON2bits
  0000                00146         extern  _INTCONbits
  0000                00147         extern  _STKPTRbits
  0000                00148         extern  _stdin
  0000                00149         extern  _stdout
  0000                00150         extern  _mtime
  0000                00151         extern  _PORTA
  0000                00152         extern  _PORTB
  0000                00153         extern  _PORTC
  0000                00154         extern  _PORTD
  0000                00155         extern  _PORTE
  0000                00156         extern  _LATA
  0000                00157         extern  _LATB
  0000                00158         extern  _LATC
  0000                00159         extern  _LATD
gpasm-1.4.0 #1107 (May  9 2015) build/sdcc/pr   12-5-2016  17:29:30         PAGE  4


LOC    OBJECT CODE    LINE  SOURCE TEXT
  VALUE

  0000                00160         extern  _LATE
  0000                00161         extern  _DDRA
  0000                00162         extern  _TRISA
  0000                00163         extern  _DDRB
  0000                00164         extern  _TRISB
  0000                00165         extern  _DDRC
  0000                00166         extern  _TRISC
  0000                00167         extern  _DDRD
  0000                00168         extern  _TRISD
  0000                00169         extern  _DDRE
  0000                00170         extern  _TRISE
  0000                00171         extern  _OSCTUNE
  0000                00172         extern  _PIE1
  0000                00173         extern  _PIR1
  0000                00174         extern  _IPR1
  0000                00175         extern  _PIE2
  0000                00176         extern  _PIR2
  0000                00177         extern  _IPR2
  0000                00178         extern  _EECON1
  0000                00179         extern  _EECON2
  0000                00180         extern  _EEDATA
  0000                00181         extern  _EEADR
  0000                00182         extern  _EEADRH
  0000                00183         extern  _RCSTA
  0000                00184         extern  _TXSTA
  0000                00185         extern  _TXREG
  0000                00186         extern  _RCREG
  0000                00187         extern  _SPBRG
  0000                00188         extern  _SPBRGH
  0000                00189         extern  _T3CON
  0000                00190         extern  _TMR3
  0000                00191         extern  _TMR3L
  0000                00192         extern  _TMR3H
  0000                00193         extern  _CMCON
  0000                00194         extern  _CVRCON
  0000                00195         extern  _ECCP1AS
  0000                00196         extern  _PWM1CON
  0000                00197         extern  _BAUDCON
  0000                00198         extern  _BAUDCTL
  0000                00199         extern  _CCP2CON
  0000                00200         extern  _CCPR2
  0000                00201         extern  _CCPR2L
  0000                00202         extern  _CCPR2H
  0000                00203         extern  _CCP1CON
  0000                00204         extern  _CCPR1
  0000                00205         extern  _CCPR1L
  0000                00206         extern  _CCPR1H
  0000                00207         extern  _ADCON2
  0000                00208         extern  _ADCON1
  0000                00209         extern  _ADCON0
  0000                00210         extern  _ADRES
  0000                00211         extern  _ADRESL
  0000                00212         extern  _ADRESH
gpasm-1.4.0 #1107 (May  9 2015) build/sdcc/pr   12-5-2016  17:29:30         PAGE  5


LOC    OBJECT CODE    LINE  SOURCE TEXT
  VALUE

  0000                00213         extern  _SSPCON2
  0000                00214         extern  _SSPCON1
  0000                00215         extern  _SSPSTAT
  0000                00216         extern  _SSPADD
  0000                00217         extern  _SSPBUF
  0000                00218         extern  _T2CON
  0000                00219         extern  _PR2
  0000                00220         extern  _TMR2
  0000                00221         extern  _T1CON
  0000                00222         extern  _TMR1
  0000                00223         extern  _TMR1L
  0000                00224         extern  _TMR1H
  0000                00225         extern  _RCON
  0000                00226         extern  _WDTCON
  0000                00227         extern  _HLVDCON
  0000                00228         extern  _LVDCON
  0000                00229         extern  _OSCCON
  0000                00230         extern  _T0CON
  0000                00231         extern  _TMR0
  0000                00232         extern  _TMR0L
  0000                00233         extern  _TMR0H
  0000                00234         extern  _STATUS
  0000                00235         extern  _FSR2L
  0000                00236         extern  _FSR2H
  0000                00237         extern  _PLUSW2
  0000                00238         extern  _PREINC2
  0000                00239         extern  _POSTDEC2
  0000                00240         extern  _POSTINC2
  0000                00241         extern  _INDF2
  0000                00242         extern  _BSR
  0000                00243         extern  _FSR1L
  0000                00244         extern  _FSR1H
  0000                00245         extern  _PLUSW1
  0000                00246         extern  _PREINC1
  0000                00247         extern  _POSTDEC1
  0000                00248         extern  _POSTINC1
  0000                00249         extern  _INDF1
  0000                00250         extern  _WREG
  0000                00251         extern  _FSR0L
  0000                00252         extern  _FSR0H
  0000                00253         extern  _PLUSW0
  0000                00254         extern  _PREINC0
  0000                00255         extern  _POSTDEC0
  0000                00256         extern  _POSTINC0
  0000                00257         extern  _INDF0
  0000                00258         extern  _INTCON3
  0000                00259         extern  _INTCON2
  0000                00260         extern  _INTCON
  0000                00261         extern  _PROD
  0000                00262         extern  _PRODL
  0000                00263         extern  _PRODH
  0000                00264         extern  _TABLAT
  0000                00265         extern  _TBLPTR
gpasm-1.4.0 #1107 (May  9 2015) build/sdcc/pr   12-5-2016  17:29:30         PAGE  6


LOC    OBJECT CODE    LINE  SOURCE TEXT
  VALUE

  0000                00266         extern  _TBLPTRL
  0000                00267         extern  _TBLPTRH
  0000                00268         extern  _TBLPTRU
  0000                00269         extern  _PC
  0000                00270         extern  _PCL
  0000                00271         extern  _PCLATH
  0000                00272         extern  _PCLATU
  0000                00273         extern  _STKPTR
  0000                00274         extern  _TOS
  0000                00275         extern  _TOSL
  0000                00276         extern  _TOSH
  0000                00277         extern  _TOSU
  0000                00278         extern  _memcpy
  0000                00279         extern  _digitalWrite
  0000                00280         extern  _pinMode
  0000                00281         extern  _millis
  0000                00282         extern  _delay
  0000                00283         extern  _delayMicroseconds
  0000                00284         extern  _SPI_begin
  0000                00285         extern  _SPI_transfer
                      00286 
                      00287 ;--------------------------------------------------------
                      00288 ;       Equates to used internal registers
                      00289 ;--------------------------------------------------------
  00000FD8            00290 STATUS  equ     0xfd8
  00000FE8            00291 WREG    equ     0xfe8
  00000FF6            00292 TBLPTRL equ     0xff6
  00000FF7            00293 TBLPTRH equ     0xff7
  00000FF8            00294 TBLPTRU equ     0xff8
  00000FF5            00295 TABLAT  equ     0xff5
  00000FE9            00296 FSR0L   equ     0xfe9
  00000FEA            00297 FSR0H   equ     0xfea
  00000FE1            00298 FSR1L   equ     0xfe1
  00000FD9            00299 FSR2L   equ     0xfd9
  00000FEF            00300 INDF0   equ     0xfef
  00000FE6            00301 POSTINC1        equ     0xfe6
  00000FE5            00302 POSTDEC1        equ     0xfe5
  00000FE4            00303 PREINC1 equ     0xfe4
  00000FDB            00304 PLUSW2  equ     0xfdb
  00000FF3            00305 PRODL   equ     0xff3
  00000FF4            00306 PRODH   equ     0xff4
                      00307 
                      00308 
                      00309 ; Internal registers
                      00310 .registers      udata_ovr       0x0000
000000                00311 r0x00   res     1
000001                00312 r0x01   res     1
000002                00313 r0x02   res     1
000003                00314 r0x03   res     1
000004                00315 r0x04   res     1
000005                00316 r0x05   res     1
000006                00317 r0x06   res     1
000007                00318 r0x07   res     1
gpasm-1.4.0 #1107 (May  9 2015) build/sdcc/pr   12-5-2016  17:29:30         PAGE  7


LOC    OBJECT CODE    LINE  SOURCE TEXT
  VALUE

000008                00319 r0x08   res     1
000009                00320 r0x09   res     1
00000A                00321 r0x0a   res     1
00000B                00322 r0x0b   res     1
00000C                00323 r0x0c   res     1
00000D                00324 r0x0d   res     1
00000E                00325 r0x0e   res     1
00000F                00326 r0x0f   res     1
                      00327 
                      00328 udata_RF24_c_0  udata
000000                00329 _rf     res     22
                      00330 
                      00331 udata_RF24_c_1  udata
000000                00332 _RF24_openWritingPipe_d_value_1_249     res     5
                      00333 
                      00334 udata_RF24_c_2  udata
000000                00335 _RF24_openReadingPipe_d_address_1_254   res     5
                      00336 
                      00337 ;--------------------------------------------------------
                      00338 ; global & static initialisations
                      00339 ;--------------------------------------------------------
                      00340 ; I code from now on!
                      00341 ; ; Starting pCode block
                      00342 S_RF24_c__RF24_setRetries       code
000000                00343 _RF24_setRetries:
                      00344         .line   1580; ../../../RF24_c/RF24_c.c  void RF24_setRetries( uint8_t delay, uint8_t count)
000000 CFD9 FFE5      00345         MOVFF   FSR2L, POSTDEC1
000004 CFE1 FFD9      00346         MOVFF   FSR1L, FSR2L
000008 C??? F???      00347         MOVFF   r0x00, POSTDEC1
00000C C??? F???      00348         MOVFF   r0x01, POSTDEC1
000010 C??? F???      00349         MOVFF   r0x02, POSTDEC1
000014 0E02           00350         MOVLW   0x02
000016 CFDB F000      00351         MOVFF   PLUSW2, r0x00
00001A 0E03           00352         MOVLW   0x03
00001C CFDB F000      00353         MOVFF   PLUSW2, r0x01
                      00354         .line   1582; ../../../RF24_c/RF24_c.c  RF24_write_register_d(SETUP_RETR,(delay&0xf)<<ARD | (cou
                            nt&0xf)<<ARC);
000020 0E0F           00355         MOVLW   0x0f
000022 16??           00356         ANDWF   r0x00, F
000024 38??           00357         SWAPF   r0x00, W
000026 0BF0           00358         ANDLW   0xf0
Message[1301]: Using default destination of 0 (Access Bank).
000028 6E??           00359         MOVWF   r0x02
00002A 0E0F           00360         MOVLW   0x0f
00002C 16??           00361         ANDWF   r0x01, F
00002E 50??           00362         MOVF    r0x01, W
Message[1301]: Using default destination of 0 (Access Bank).
000030 6E??           00363         MOVWF   r0x00
000032 50??           00364         MOVF    r0x00, W
000034 12??           00365         IORWF   r0x02, F
000036 50??           00366         MOVF    r0x02, W
Message[1301]: Using default destination of 0 (Access Bank).
000038 6EE5           00367         MOVWF   POSTDEC1
gpasm-1.4.0 #1107 (May  9 2015) build/sdcc/pr   12-5-2016  17:29:30         PAGE  8


LOC    OBJECT CODE    LINE  SOURCE TEXT
  VALUE

00003A 0E04           00368         MOVLW   0x04
Message[1301]: Using default destination of 0 (Access Bank).
00003C 6EE5           00369         MOVWF   POSTDEC1
00003E EC?? F0??      00370         CALL    _RF24_write_register_d
000042 52E6           00371         MOVF    POSTINC1, F
000044 52E6           00372         MOVF    POSTINC1, F
000046 CFE4 F000      00373         MOVFF   PREINC1, r0x02
00004A CFE4 F000      00374         MOVFF   PREINC1, r0x01
00004E CFE4 F000      00375         MOVFF   PREINC1, r0x00
000052 CFE4 FFD9      00376         MOVFF   PREINC1, FSR2L
000056 0012           00377         RETURN  
                      00378 
                      00379 ; ; Starting pCode block
                      00380 S_RF24_c__RF24_disableCRC       code
000000                00381 _RF24_disableCRC:
                      00382         .line   1573; ../../../RF24_c/RF24_c.c  void RF24_disableCRC(void)
000000 CFD9 FFE5      00383         MOVFF   FSR2L, POSTDEC1
000004 CFE1 FFD9      00384         MOVFF   FSR1L, FSR2L
000008 C??? F???      00385         MOVFF   r0x00, POSTDEC1
                      00386         .line   1575; ../../../RF24_c/RF24_c.c  uint8_t disable = RF24_read_register_d(NRF_CONFIG) & ~_B
                            V(EN_CRC) ;
00000C 0E00           00387         MOVLW   0x00
Message[1301]: Using default destination of 0 (Access Bank).
00000E 6EE5           00388         MOVWF   POSTDEC1
000010 EC?? F0??      00389         CALL    _RF24_read_register_d
Message[1301]: Using default destination of 0 (Access Bank).
000014 6E??           00390         MOVWF   r0x00
000016 52E6           00391         MOVF    POSTINC1, F
000018 96??           00392         BCF     r0x00, 3
                      00393         .line   1576; ../../../RF24_c/RF24_c.c  RF24_write_register_d( NRF_CONFIG, disable ) ;
00001A 50??           00394         MOVF    r0x00, W
Message[1301]: Using default destination of 0 (Access Bank).
00001C 6EE5           00395         MOVWF   POSTDEC1
00001E 0E00           00396         MOVLW   0x00
Message[1301]: Using default destination of 0 (Access Bank).
000020 6EE5           00397         MOVWF   POSTDEC1
000022 EC?? F0??      00398         CALL    _RF24_write_register_d
000026 52E6           00399         MOVF    POSTINC1, F
000028 52E6           00400         MOVF    POSTINC1, F
00002A CFE4 F000      00401         MOVFF   PREINC1, r0x00
00002E CFE4 FFD9      00402         MOVFF   PREINC1, FSR2L
000032 0012           00403         RETURN  
                      00404 
                      00405 ; ; Starting pCode block
                      00406 S_RF24_c__RF24_getCRCLength     code
000000                00407 _RF24_getCRCLength:
                      00408         .line   1553; ../../../RF24_c/RF24_c.c  rf24_crclength_e RF24_getCRCLength(void)
000000 CFD9 FFE5      00409         MOVFF   FSR2L, POSTDEC1
000004 CFE1 FFD9      00410         MOVFF   FSR1L, FSR2L
000008 C??? F???      00411         MOVFF   r0x00, POSTDEC1
00000C C??? F???      00412         MOVFF   r0x01, POSTDEC1
000010 C??? F???      00413         MOVFF   r0x02, POSTDEC1
                      00414         .line   1555; ../../../RF24_c/RF24_c.c  rf24_crclength_e result = RF24_CRC_DISABLED;
gpasm-1.4.0 #1107 (May  9 2015) build/sdcc/pr   12-5-2016  17:29:30         PAGE  9


LOC    OBJECT CODE    LINE  SOURCE TEXT
  VALUE

Message[1301]: Using default destination of 0 (Access Bank).
000014 6A??           00415         CLRF    r0x00
                      00416         .line   1557; ../../../RF24_c/RF24_c.c  uint8_t config = RF24_read_register_d(NRF_CONFIG) & ( _B
                            V(CRCO) | _BV(EN_CRC)) ;
000016 0E00           00417         MOVLW   0x00
Message[1301]: Using default destination of 0 (Access Bank).
000018 6EE5           00418         MOVWF   POSTDEC1
00001A EC?? F0??      00419         CALL    _RF24_read_register_d
Message[1301]: Using default destination of 0 (Access Bank).
00001E 6E??           00420         MOVWF   r0x01
000020 52E6           00421         MOVF    POSTINC1, F
000022 0E0C           00422         MOVLW   0x0c
000024 16??           00423         ANDWF   r0x01, F
                      00424         .line   1558; ../../../RF24_c/RF24_c.c  uint8_t AA = RF24_read_register_d(EN_AA);
000026 0E01           00425         MOVLW   0x01
Message[1301]: Using default destination of 0 (Access Bank).
000028 6EE5           00426         MOVWF   POSTDEC1
00002A EC?? F0??      00427         CALL    _RF24_read_register_d
Message[1301]: Using default destination of 0 (Access Bank).
00002E 6E??           00428         MOVWF   r0x02
000030 52E6           00429         MOVF    POSTINC1, F
                      00430         .line   1560; ../../../RF24_c/RF24_c.c  if ( config & _BV(EN_CRC ) || AA)
000032 B6??           00431         BTFSC   r0x01, 3
000034 D???           00432         BRA     _00923_DS_
000036 50??           00433         MOVF    r0x02, W
000038 E0??           00434         BZ      _00924_DS_
00003A                00435 _00923_DS_:
                      00436         .line   1562; ../../../RF24_c/RF24_c.c  if ( config & _BV(CRCO) )
00003A A4??           00437         BTFSS   r0x01, 2
00003C D???           00438         BRA     _00921_DS_
                      00439         .line   1563; ../../../RF24_c/RF24_c.c  result = RF24_CRC_16;
00003E 0E02           00440         MOVLW   0x02
Message[1301]: Using default destination of 0 (Access Bank).
000040 6E??           00441         MOVWF   r0x00
000042 D???           00442         BRA     _00924_DS_
000044                00443 _00921_DS_:
                      00444         .line   1565; ../../../RF24_c/RF24_c.c  result = RF24_CRC_8;
000044 0E01           00445         MOVLW   0x01
Message[1301]: Using default destination of 0 (Access Bank).
000046 6E??           00446         MOVWF   r0x00
000048                00447 _00924_DS_:
                      00448         .line   1568; ../../../RF24_c/RF24_c.c  return result;
000048 50??           00449         MOVF    r0x00, W
00004A CFE4 F000      00450         MOVFF   PREINC1, r0x02
00004E CFE4 F000      00451         MOVFF   PREINC1, r0x01
000052 CFE4 F000      00452         MOVFF   PREINC1, r0x00
000056 CFE4 FFD9      00453         MOVFF   PREINC1, FSR2L
00005A 0012           00454         RETURN  
                      00455 
                      00456 ; ; Starting pCode block
                      00457 S_RF24_c__RF24_setCRCLength     code
000000                00458 _RF24_setCRCLength:
                      00459         .line   1530; ../../../RF24_c/RF24_c.c  void RF24_setCRCLength(rf24_crclength_e length)
gpasm-1.4.0 #1107 (May  9 2015) build/sdcc/pr   12-5-2016  17:29:30         PAGE 10


LOC    OBJECT CODE    LINE  SOURCE TEXT
  VALUE

000000 CFD9 FFE5      00460         MOVFF   FSR2L, POSTDEC1
000004 CFE1 FFD9      00461         MOVFF   FSR1L, FSR2L
000008 C??? F???      00462         MOVFF   r0x00, POSTDEC1
00000C C??? F???      00463         MOVFF   r0x01, POSTDEC1
000010 0E02           00464         MOVLW   0x02
000012 CFDB F000      00465         MOVFF   PLUSW2, r0x00
                      00466         .line   1532; ../../../RF24_c/RF24_c.c  uint8_t config = RF24_read_register_d(NRF_CONFIG) & ~( _
                            BV(CRCO) | _BV(EN_CRC)) ;
000016 0E00           00467         MOVLW   0x00
Message[1301]: Using default destination of 0 (Access Bank).
000018 6EE5           00468         MOVWF   POSTDEC1
00001A EC?? F0??      00469         CALL    _RF24_read_register_d
Message[1301]: Using default destination of 0 (Access Bank).
00001E 6E??           00470         MOVWF   r0x01
000020 52E6           00471         MOVF    POSTINC1, F
000022 0EF3           00472         MOVLW   0xf3
000024 16??           00473         ANDWF   r0x01, F
                      00474         .line   1535; ../../../RF24_c/RF24_c.c  if ( length == RF24_CRC_DISABLED )
000026 50??           00475         MOVF    r0x00, W
000028 E0??           00476         BZ      _00904_DS_
                      00477         .line   1539; ../../../RF24_c/RF24_c.c  else if ( length == RF24_CRC_8 )
00002A 50??           00478         MOVF    r0x00, W
00002C 0A01           00479         XORLW   0x01
00002E E1??           00480         BNZ     _00900_DS_
                      00481         .line   1541; ../../../RF24_c/RF24_c.c  config |= _BV(EN_CRC);
000030 86??           00482         BSF     r0x01, 3
000032 D???           00483         BRA     _00904_DS_
000034                00484 _00900_DS_:
                      00485         .line   1545; ../../../RF24_c/RF24_c.c  config |= _BV(EN_CRC);
000034 86??           00486         BSF     r0x01, 3
                      00487         .line   1546; ../../../RF24_c/RF24_c.c  config |= _BV( CRCO );
000036 84??           00488         BSF     r0x01, 2
000038                00489 _00904_DS_:
                      00490         .line   1548; ../../../RF24_c/RF24_c.c  RF24_write_register_d( NRF_CONFIG, config ) ;
000038 50??           00491         MOVF    r0x01, W
Message[1301]: Using default destination of 0 (Access Bank).
00003A 6EE5           00492         MOVWF   POSTDEC1
00003C 0E00           00493         MOVLW   0x00
Message[1301]: Using default destination of 0 (Access Bank).
00003E 6EE5           00494         MOVWF   POSTDEC1
000040 EC?? F0??      00495         CALL    _RF24_write_register_d
000044 52E6           00496         MOVF    POSTINC1, F
000046 52E6           00497         MOVF    POSTINC1, F
000048 CFE4 F000      00498         MOVFF   PREINC1, r0x01
00004C CFE4 F000      00499         MOVFF   PREINC1, r0x00
000050 CFE4 FFD9      00500         MOVFF   PREINC1, FSR2L
000054 0012           00501         RETURN  
                      00502 
                      00503 ; ; Starting pCode block
                      00504 S_RF24_c__RF24_getDataRate      code
000000                00505 _RF24_getDataRate:
                      00506         .line   1503; ../../../RF24_c/RF24_c.c  rf24_datarate_e RF24_getDataRate(void )
000000 CFD9 FFE5      00507         MOVFF   FSR2L, POSTDEC1
gpasm-1.4.0 #1107 (May  9 2015) build/sdcc/pr   12-5-2016  17:29:30         PAGE 11


LOC    OBJECT CODE    LINE  SOURCE TEXT
  VALUE

000004 CFE1 FFD9      00508         MOVFF   FSR1L, FSR2L
000008 C??? F???      00509         MOVFF   r0x00, POSTDEC1
00000C C??? F???      00510         MOVFF   r0x01, POSTDEC1
                      00511         .line   1506; ../../../RF24_c/RF24_c.c  uint8_t dr = RF24_read_register_d(RF_SETUP) & (_BV(RF_DR
                            _LOW) | _BV(RF_DR_HIGH));
000010 0E06           00512         MOVLW   0x06
Message[1301]: Using default destination of 0 (Access Bank).
000012 6EE5           00513         MOVWF   POSTDEC1
000014 EC?? F0??      00514         CALL    _RF24_read_register_d
Message[1301]: Using default destination of 0 (Access Bank).
000018 6E??           00515         MOVWF   r0x00
00001A 52E6           00516         MOVF    POSTINC1, F
00001C 0E28           00517         MOVLW   0x28
00001E 16??           00518         ANDWF   r0x00, F
                      00519         .line   1510; ../../../RF24_c/RF24_c.c  if ( dr == _BV(RF_DR_LOW) )
000020 50??           00520         MOVF    r0x00, W
000022 0A20           00521         XORLW   0x20
000024 E1??           00522         BNZ     _00880_DS_
                      00523         .line   1513; ../../../RF24_c/RF24_c.c  result = RF24_250KBPS ;
000026 0E02           00524         MOVLW   0x02
Message[1301]: Using default destination of 0 (Access Bank).
000028 6E??           00525         MOVWF   r0x01
00002A D???           00526         BRA     _00881_DS_
00002C                00527 _00880_DS_:
                      00528         .line   1515; ../../../RF24_c/RF24_c.c  else if ( dr == _BV(RF_DR_HIGH) )
00002C 50??           00529         MOVF    r0x00, W
00002E 0A08           00530         XORLW   0x08
000030 E1??           00531         BNZ     _00877_DS_
                      00532         .line   1518; ../../../RF24_c/RF24_c.c  result = RF24_2MBPS ;
000032 0E01           00533         MOVLW   0x01
Message[1301]: Using default destination of 0 (Access Bank).
000034 6E??           00534         MOVWF   r0x01
000036 D???           00535         BRA     _00881_DS_
000038                00536 _00877_DS_:
                      00537         .line   1523; ../../../RF24_c/RF24_c.c  result = RF24_1MBPS ;
Message[1301]: Using default destination of 0 (Access Bank).
000038 6A??           00538         CLRF    r0x01
00003A                00539 _00881_DS_:
                      00540         .line   1525; ../../../RF24_c/RF24_c.c  return result ;
00003A 50??           00541         MOVF    r0x01, W
00003C CFE4 F000      00542         MOVFF   PREINC1, r0x01
000040 CFE4 F000      00543         MOVFF   PREINC1, r0x00
000044 CFE4 FFD9      00544         MOVFF   PREINC1, FSR2L
000048 0012           00545         RETURN  
                      00546 
                      00547 ; ; Starting pCode block
                      00548 S_RF24_c__RF24_setDataRate      code
000000                00549 _RF24_setDataRate:
                      00550         .line   1453; ../../../RF24_c/RF24_c.c  uint8_t RF24_setDataRate(rf24_datarate_e speed)
000000 CFD9 FFE5      00551         MOVFF   FSR2L, POSTDEC1
000004 CFE1 FFD9      00552         MOVFF   FSR1L, FSR2L
000008 C??? F???      00553         MOVFF   r0x00, POSTDEC1
00000C C??? F???      00554         MOVFF   r0x01, POSTDEC1
gpasm-1.4.0 #1107 (May  9 2015) build/sdcc/pr   12-5-2016  17:29:30         PAGE 12


LOC    OBJECT CODE    LINE  SOURCE TEXT
  VALUE

000010 C??? F???      00555         MOVFF   r0x02, POSTDEC1
000014 0E02           00556         MOVLW   0x02
000016 CFDB F000      00557         MOVFF   PLUSW2, r0x00
                      00558         .line   1455; ../../../RF24_c/RF24_c.c  uint8_t result = 0;
Message[1301]: Using default destination of 0 (Access Bank).
00001A 6A??           00559         CLRF    r0x01
                      00560         .line   1456; ../../../RF24_c/RF24_c.c  uint8_t setup = RF24_read_register_d(RF_SETUP) ;
00001C 0E06           00561         MOVLW   0x06
Message[1301]: Using default destination of 0 (Access Bank).
00001E 6EE5           00562         MOVWF   POSTDEC1
000020 EC?? F0??      00563         CALL    _RF24_read_register_d
Message[1301]: Using default destination of 0 (Access Bank).
000024 6E??           00564         MOVWF   r0x02
000026 52E6           00565         MOVF    POSTINC1, F
                      00566         .line   1459; ../../../RF24_c/RF24_c.c  setup &= ~(_BV(RF_DR_LOW) | _BV(RF_DR_HIGH)) ;
000028 0ED7           00567         MOVLW   0xd7
00002A 16??           00568         ANDWF   r0x02, F
                      00569         .line   1464; ../../../RF24_c/RF24_c.c  rf.txDelay=85;
00002C 0E55           00570         MOVLW   0x55
00002E ????           00571         BANKSEL (_rf + 13)
000030 6F??           00572         MOVWF   (_rf + 13), B
000032 ????           00573         BANKSEL (_rf + 14)
000034 6B??           00574         CLRF    (_rf + 14), B
000036 ????           00575         BANKSEL (_rf + 15)
000038 6B??           00576         CLRF    (_rf + 15), B
00003A ????           00577         BANKSEL (_rf + 16)
00003C 6B??           00578         CLRF    (_rf + 16), B
                      00579         .line   1466; ../../../RF24_c/RF24_c.c  if( speed == RF24_250KBPS )
00003E 50??           00580         MOVF    r0x00, W
000040 0A02           00581         XORLW   0x02
000042 E1??           00582         BNZ     _00848_DS_
                      00583         .line   1470; ../../../RF24_c/RF24_c.c  setup |= _BV( RF_DR_LOW ) ;
000044 8A??           00584         BSF     r0x02, 5
                      00585         .line   1474; ../../../RF24_c/RF24_c.c  rf.txDelay=155;
000046 0E9B           00586         MOVLW   0x9b
000048 ????           00587         BANKSEL (_rf + 13)
00004A 6F??           00588         MOVWF   (_rf + 13), B
00004C ????           00589         BANKSEL (_rf + 14)
00004E 6B??           00590         CLRF    (_rf + 14), B
000050 ????           00591         BANKSEL (_rf + 15)
000052 6B??           00592         CLRF    (_rf + 15), B
000054 ????           00593         BANKSEL (_rf + 16)
000056 6B??           00594         CLRF    (_rf + 16), B
000058 D???           00595         BRA     _00849_DS_
00005A                00596 _00848_DS_:
                      00597         .line   1481; ../../../RF24_c/RF24_c.c  if ( speed == RF24_2MBPS )
00005A 50??           00598         MOVF    r0x00, W
00005C 0A01           00599         XORLW   0x01
00005E E1??           00600         BNZ     _00849_DS_
                      00601         .line   1483; ../../../RF24_c/RF24_c.c  setup |= _BV(RF_DR_HIGH);
000060 86??           00602         BSF     r0x02, 3
                      00603         .line   1487; ../../../RF24_c/RF24_c.c  rf.txDelay=65;
000062 0E41           00604         MOVLW   0x41
gpasm-1.4.0 #1107 (May  9 2015) build/sdcc/pr   12-5-2016  17:29:30         PAGE 13


LOC    OBJECT CODE    LINE  SOURCE TEXT
  VALUE

000064 ????           00605         BANKSEL (_rf + 13)
000066 6F??           00606         MOVWF   (_rf + 13), B
000068 ????           00607         BANKSEL (_rf + 14)
00006A 6B??           00608         CLRF    (_rf + 14), B
00006C ????           00609         BANKSEL (_rf + 15)
00006E 6B??           00610         CLRF    (_rf + 15), B
000070 ????           00611         BANKSEL (_rf + 16)
000072 6B??           00612         CLRF    (_rf + 16), B
000074                00613 _00849_DS_:
                      00614         .line   1491; ../../../RF24_c/RF24_c.c  RF24_write_register_d(RF_SETUP,setup);
000074 50??           00615         MOVF    r0x02, W
Message[1301]: Using default destination of 0 (Access Bank).
000076 6EE5           00616         MOVWF   POSTDEC1
000078 0E06           00617         MOVLW   0x06
Message[1301]: Using default destination of 0 (Access Bank).
00007A 6EE5           00618         MOVWF   POSTDEC1
00007C EC?? F0??      00619         CALL    _RF24_write_register_d
000080 52E6           00620         MOVF    POSTINC1, F
000082 52E6           00621         MOVF    POSTINC1, F
                      00622         .line   1494; ../../../RF24_c/RF24_c.c  if ( RF24_read_register_d(RF_SETUP) == setup )
000084 0E06           00623         MOVLW   0x06
Message[1301]: Using default destination of 0 (Access Bank).
000086 6EE5           00624         MOVWF   POSTDEC1
000088 EC?? F0??      00625         CALL    _RF24_read_register_d
Message[1301]: Using default destination of 0 (Access Bank).
00008C 6E??           00626         MOVWF   r0x00
00008E 52E6           00627         MOVF    POSTINC1, F
000090 50??           00628         MOVF    r0x00, W
000092 18??           00629         XORWF   r0x02, W
000094 E1??           00630         BNZ     _00851_DS_
                      00631         .line   1496; ../../../RF24_c/RF24_c.c  result = 1;
000096 0E01           00632         MOVLW   0x01
Message[1301]: Using default destination of 0 (Access Bank).
000098 6E??           00633         MOVWF   r0x01
00009A                00634 _00851_DS_:
                      00635         .line   1498; ../../../RF24_c/RF24_c.c  return result;
00009A 50??           00636         MOVF    r0x01, W
00009C CFE4 F000      00637         MOVFF   PREINC1, r0x02
0000A0 CFE4 F000      00638         MOVFF   PREINC1, r0x01
0000A4 CFE4 F000      00639         MOVFF   PREINC1, r0x00
0000A8 CFE4 FFD9      00640         MOVFF   PREINC1, FSR2L
0000AC 0012           00641         RETURN  
                      00642 
                      00643 ; ; Starting pCode block
                      00644 S_RF24_c__RF24_getPALevel       code
000000                00645 _RF24_getPALevel:
                      00646         .line   1445; ../../../RF24_c/RF24_c.c  uint8_t RF24_getPALevel(void)
000000 CFD9 FFE5      00647         MOVFF   FSR2L, POSTDEC1
000004 CFE1 FFD9      00648         MOVFF   FSR1L, FSR2L
000008 C??? F???      00649         MOVFF   r0x00, POSTDEC1
                      00650         .line   1448; ../../../RF24_c/RF24_c.c  return (RF24_read_register_d(RF_SETUP) & (_BV(RF_PWR_LOW
                            ) | _BV(RF_PWR_HIGH))) >> 1 ;
00000C 0E06           00651         MOVLW   0x06
gpasm-1.4.0 #1107 (May  9 2015) build/sdcc/pr   12-5-2016  17:29:30         PAGE 14


LOC    OBJECT CODE    LINE  SOURCE TEXT
  VALUE

Message[1301]: Using default destination of 0 (Access Bank).
00000E 6EE5           00652         MOVWF   POSTDEC1
000010 EC?? F0??      00653         CALL    _RF24_read_register_d
Message[1301]: Using default destination of 0 (Access Bank).
000014 6E??           00654         MOVWF   r0x00
000016 52E6           00655         MOVF    POSTINC1, F
000018 0E06           00656         MOVLW   0x06
00001A 16??           00657         ANDWF   r0x00, F
00001C 40??           00658         RRNCF   r0x00, W
00001E 0B7F           00659         ANDLW   0x7f
Message[1301]: Using default destination of 0 (Access Bank).
000020 6E??           00660         MOVWF   r0x00
000022 50??           00661         MOVF    r0x00, W
000024 CFE4 F000      00662         MOVFF   PREINC1, r0x00
000028 CFE4 FFD9      00663         MOVFF   PREINC1, FSR2L
00002C 0012           00664         RETURN  
                      00665 
                      00666 ; ; Starting pCode block
                      00667 S_RF24_c__RF24_setPALevel       code
000000                00668 _RF24_setPALevel:
                      00669         .line   1428; ../../../RF24_c/RF24_c.c  void RF24_setPALevel(uint8_t level)
000000 CFD9 FFE5      00670         MOVFF   FSR2L, POSTDEC1
000004 CFE1 FFD9      00671         MOVFF   FSR1L, FSR2L
000008 C??? F???      00672         MOVFF   r0x00, POSTDEC1
00000C C??? F???      00673         MOVFF   r0x01, POSTDEC1
000010 C??? F???      00674         MOVFF   r0x02, POSTDEC1
000014 0E02           00675         MOVLW   0x02
000016 CFDB F000      00676         MOVFF   PLUSW2, r0x00
                      00677         .line   1431; ../../../RF24_c/RF24_c.c  uint8_t setup = RF24_read_register_d(RF_SETUP) & 0b11111
                            000;
00001A 0E06           00678         MOVLW   0x06
Message[1301]: Using default destination of 0 (Access Bank).
00001C 6EE5           00679         MOVWF   POSTDEC1
00001E EC?? F0??      00680         CALL    _RF24_read_register_d
Message[1301]: Using default destination of 0 (Access Bank).
000022 6E??           00681         MOVWF   r0x01
000024 52E6           00682         MOVF    POSTINC1, F
000026 0EF8           00683         MOVLW   0xf8
000028 16??           00684         ANDWF   r0x01, F
                      00685         .line   1433; ../../../RF24_c/RF24_c.c  if(level > 3){                                          
                                    // If invalid level, go to max PA
00002A 0E04           00686         MOVLW   0x04
00002C 5C??           00687         SUBWF   r0x00, W
00002E E3??           00688         BNC     _00827_DS_
                      00689         .line   1434; ../../../RF24_c/RF24_c.c  level = (RF24_PA_MAX << 1) + 1;         // +1 to support
                             the SI24R1 chip extra bit
000030 0E07           00690         MOVLW   0x07
Message[1301]: Using default destination of 0 (Access Bank).
000032 6E??           00691         MOVWF   r0x00
000034 D???           00692         BRA     _00828_DS_
000036                00693 _00827_DS_:
                      00694         .line   1436; ../../../RF24_c/RF24_c.c  level = (level << 1) + 1;                       // Else 
                            set level as requested
gpasm-1.4.0 #1107 (May  9 2015) build/sdcc/pr   12-5-2016  17:29:30         PAGE 15


LOC    OBJECT CODE    LINE  SOURCE TEXT
  VALUE

000036 44??           00695         RLNCF   r0x00, W
000038 0BFE           00696         ANDLW   0xfe
Message[1301]: Using default destination of 0 (Access Bank).
00003A 6E??           00697         MOVWF   r0x02
00003C 28??           00698         INCF    r0x02, W
Message[1301]: Using default destination of 0 (Access Bank).
00003E 6E??           00699         MOVWF   r0x00
000040                00700 _00828_DS_:
                      00701         .line   1440; ../../../RF24_c/RF24_c.c  RF24_write_register_d( RF_SETUP, setup |= level ) ;     
                            // Write it to the chip
000040 50??           00702         MOVF    r0x01, W
000042 12??           00703         IORWF   r0x00, F
000044 50??           00704         MOVF    r0x00, W
Message[1301]: Using default destination of 0 (Access Bank).
000046 6EE5           00705         MOVWF   POSTDEC1
000048 0E06           00706         MOVLW   0x06
Message[1301]: Using default destination of 0 (Access Bank).
00004A 6EE5           00707         MOVWF   POSTDEC1
00004C EC?? F0??      00708         CALL    _RF24_write_register_d
000050 52E6           00709         MOVF    POSTINC1, F
000052 52E6           00710         MOVF    POSTINC1, F
000054 CFE4 F000      00711         MOVFF   PREINC1, r0x02
000058 CFE4 F000      00712         MOVFF   PREINC1, r0x01
00005C CFE4 F000      00713         MOVFF   PREINC1, r0x00
000060 CFE4 FFD9      00714         MOVFF   PREINC1, FSR2L
000064 0012           00715         RETURN  
                      00716 
                      00717 ; ; Starting pCode block
                      00718 S_RF24_c__RF24_isValid  code
000000                00719 _RF24_isValid:
                      00720         .line   1420; ../../../RF24_c/RF24_c.c  uint8_t RF24_isValid(void) 
000000 CFD9 FFE5      00721         MOVFF   FSR2L, POSTDEC1
000004 CFE1 FFD9      00722         MOVFF   FSR1L, FSR2L
000008 C??? F???      00723         MOVFF   r0x00, POSTDEC1
00000C ????           00724         BANKSEL _rf
                      00725         .line   1422; ../../../RF24_c/RF24_c.c  return rf.ce_pin != 0xff && rf.csn_pin != 0xff; 
00000E 51??           00726         MOVF    _rf, W, B
000010 0AFF           00727         XORLW   0xff
000012 E0??           00728         BZ      _00812_DS_
000014                00729 _00819_DS_:
000014 ????           00730         BANKSEL (_rf + 1)
000016 51??           00731         MOVF    (_rf + 1), W, B
000018 0AFF           00732         XORLW   0xff
00001A E1??           00733         BNZ     _00813_DS_
00001C                00734 _00812_DS_:
Message[1301]: Using default destination of 0 (Access Bank).
00001C 6A??           00735         CLRF    r0x00
00001E D???           00736         BRA     _00814_DS_
000020                00737 _00813_DS_:
000020 0E01           00738         MOVLW   0x01
Message[1301]: Using default destination of 0 (Access Bank).
000022 6E??           00739         MOVWF   r0x00
000024                00740 _00814_DS_:
gpasm-1.4.0 #1107 (May  9 2015) build/sdcc/pr   12-5-2016  17:29:30         PAGE 16


LOC    OBJECT CODE    LINE  SOURCE TEXT
  VALUE

000024 50??           00741         MOVF    r0x00, W
000026 CFE4 F000      00742         MOVFF   PREINC1, r0x00
00002A CFE4 FFD9      00743         MOVFF   PREINC1, FSR2L
00002E 0012           00744         RETURN  
                      00745 
                      00746 ; ; Starting pCode block
                      00747 S_RF24_c__RF24_testRPD  code
000000                00748 _RF24_testRPD:
                      00749         .line   1413; ../../../RF24_c/RF24_c.c  uint8_t RF24_testRPD(void)
000000 CFD9 FFE5      00750         MOVFF   FSR2L, POSTDEC1
000004 CFE1 FFD9      00751         MOVFF   FSR1L, FSR2L
000008 C??? F???      00752         MOVFF   r0x00, POSTDEC1
                      00753         .line   1415; ../../../RF24_c/RF24_c.c  return ( RF24_read_register_d(RPD) & 1 ) ;
00000C 0E09           00754         MOVLW   0x09
Message[1301]: Using default destination of 0 (Access Bank).
00000E 6EE5           00755         MOVWF   POSTDEC1
000010 EC?? F0??      00756         CALL    _RF24_read_register_d
Message[1301]: Using default destination of 0 (Access Bank).
000014 6E??           00757         MOVWF   r0x00
000016 52E6           00758         MOVF    POSTINC1, F
000018 0E01           00759         MOVLW   0x01
00001A 16??           00760         ANDWF   r0x00, F
00001C 50??           00761         MOVF    r0x00, W
00001E CFE4 F000      00762         MOVFF   PREINC1, r0x00
000022 CFE4 FFD9      00763         MOVFF   PREINC1, FSR2L
000026 0012           00764         RETURN  
                      00765 
                      00766 ; ; Starting pCode block
                      00767 S_RF24_c__RF24_testCarrier      code
000000                00768 _RF24_testCarrier:
                      00769         .line   1406; ../../../RF24_c/RF24_c.c  uint8_t RF24_testCarrier(void)
000000 CFD9 FFE5      00770         MOVFF   FSR2L, POSTDEC1
000004 CFE1 FFD9      00771         MOVFF   FSR1L, FSR2L
000008 C??? F???      00772         MOVFF   r0x00, POSTDEC1
                      00773         .line   1408; ../../../RF24_c/RF24_c.c  return ( RF24_read_register_d(CD) & 1 );
00000C 0E09           00774         MOVLW   0x09
Message[1301]: Using default destination of 0 (Access Bank).
00000E 6EE5           00775         MOVWF   POSTDEC1
000010 EC?? F0??      00776         CALL    _RF24_read_register_d
Message[1301]: Using default destination of 0 (Access Bank).
000014 6E??           00777         MOVWF   r0x00
000016 52E6           00778         MOVF    POSTINC1, F
000018 0E01           00779         MOVLW   0x01
00001A 16??           00780         ANDWF   r0x00, F
00001C 50??           00781         MOVF    r0x00, W
00001E CFE4 F000      00782         MOVFF   PREINC1, r0x00
000022 CFE4 FFD9      00783         MOVFF   PREINC1, FSR2L
000026 0012           00784         RETURN  
                      00785 
                      00786 ; ; Starting pCode block
                      00787 S_RF24_c__RF24_setAutoAck_p     code
000000                00788 _RF24_setAutoAck_p:
                      00789         .line   1387; ../../../RF24_c/RF24_c.c  void RF24_setAutoAck_p( uint8_t pipe, uint8_t enable )
gpasm-1.4.0 #1107 (May  9 2015) build/sdcc/pr   12-5-2016  17:29:30         PAGE 17


LOC    OBJECT CODE    LINE  SOURCE TEXT
  VALUE

000000 CFD9 FFE5      00790         MOVFF   FSR2L, POSTDEC1
000004 CFE1 FFD9      00791         MOVFF   FSR1L, FSR2L
000008 C??? F???      00792         MOVFF   r0x00, POSTDEC1
00000C C??? F???      00793         MOVFF   r0x01, POSTDEC1
000010 C??? F???      00794         MOVFF   r0x02, POSTDEC1
000014 0E02           00795         MOVLW   0x02
000016 CFDB F000      00796         MOVFF   PLUSW2, r0x00
00001A 0E03           00797         MOVLW   0x03
00001C CFDB F000      00798         MOVFF   PLUSW2, r0x01
                      00799         .line   1389; ../../../RF24_c/RF24_c.c  if ( pipe <= 6 )
000020 0E07           00800         MOVLW   0x07
000022 5C??           00801         SUBWF   r0x00, W
000024 E2??           00802         BC      _00782_DS_
                      00803         .line   1391; ../../../RF24_c/RF24_c.c  uint8_t en_aa = RF24_read_register_d( EN_AA ) ;
000026 0E01           00804         MOVLW   0x01
Message[1301]: Using default destination of 0 (Access Bank).
000028 6EE5           00805         MOVWF   POSTDEC1
00002A EC?? F0??      00806         CALL    _RF24_read_register_d
Message[1301]: Using default destination of 0 (Access Bank).
00002E 6E??           00807         MOVWF   r0x02
000030 52E6           00808         MOVF    POSTINC1, F
                      00809         .line   1392; ../../../RF24_c/RF24_c.c  if( enable )
000032 50??           00810         MOVF    r0x01, W
000034 E0??           00811         BZ      _00778_DS_
                      00812         .line   1394; ../../../RF24_c/RF24_c.c  en_aa |= _BV(pipe) ;
000036 0E01           00813         MOVLW   0x01
Message[1301]: Using default destination of 0 (Access Bank).
000038 6E??           00814         MOVWF   r0x01
00003A 50??           00815         MOVF    r0x00, W
00003C E0??           00816         BZ      _00791_DS_
Message[1301]: Using default destination of 0 (Access Bank).
00003E 6CE8           00817         NEGF    WREG
000040 90D8           00818         BCF     STATUS, 0
000042                00819 _00792_DS_:
000042 36??           00820         RLCF    r0x01, F
000044 0F01           00821         ADDLW   0x01
000046 E3??           00822         BNC     _00792_DS_
000048                00823 _00791_DS_:
000048 50??           00824         MOVF    r0x01, W
00004A 12??           00825         IORWF   r0x02, F
00004C D???           00826         BRA     _00779_DS_
00004E                00827 _00778_DS_:
                      00828         .line   1398; ../../../RF24_c/RF24_c.c  en_aa &= ~_BV(pipe) ;
00004E 0E01           00829         MOVLW   0x01
Message[1301]: Using default destination of 0 (Access Bank).
000050 6E??           00830         MOVWF   r0x01
000052 50??           00831         MOVF    r0x00, W
000054 E0??           00832         BZ      _00794_DS_
Message[1301]: Using default destination of 0 (Access Bank).
000056 6CE8           00833         NEGF    WREG
000058 90D8           00834         BCF     STATUS, 0
00005A                00835 _00795_DS_:
00005A 36??           00836         RLCF    r0x01, F
gpasm-1.4.0 #1107 (May  9 2015) build/sdcc/pr   12-5-2016  17:29:30         PAGE 18


LOC    OBJECT CODE    LINE  SOURCE TEXT
  VALUE

00005C 0F01           00837         ADDLW   0x01
00005E E3??           00838         BNC     _00795_DS_
000060                00839 _00794_DS_:
000060 1C??           00840         COMF    r0x01, W
Message[1301]: Using default destination of 0 (Access Bank).
000062 6E??           00841         MOVWF   r0x00
000064 50??           00842         MOVF    r0x00, W
000066 16??           00843         ANDWF   r0x02, F
000068                00844 _00779_DS_:
                      00845         .line   1400; ../../../RF24_c/RF24_c.c  RF24_write_register_d( EN_AA, en_aa ) ;
000068 50??           00846         MOVF    r0x02, W
Message[1301]: Using default destination of 0 (Access Bank).
00006A 6EE5           00847         MOVWF   POSTDEC1
00006C 0E01           00848         MOVLW   0x01
Message[1301]: Using default destination of 0 (Access Bank).
00006E 6EE5           00849         MOVWF   POSTDEC1
000070 EC?? F0??      00850         CALL    _RF24_write_register_d
000074 52E6           00851         MOVF    POSTINC1, F
000076 52E6           00852         MOVF    POSTINC1, F
000078                00853 _00782_DS_:
000078 CFE4 F000      00854         MOVFF   PREINC1, r0x02
00007C CFE4 F000      00855         MOVFF   PREINC1, r0x01
000080 CFE4 F000      00856         MOVFF   PREINC1, r0x00
000084 CFE4 FFD9      00857         MOVFF   PREINC1, FSR2L
000088 0012           00858         RETURN  
                      00859 
                      00860 ; ; Starting pCode block
                      00861 S_RF24_c__RF24_setAutoAck       code
000000                00862 _RF24_setAutoAck:
                      00863         .line   1377; ../../../RF24_c/RF24_c.c  void RF24_setAutoAck( uint8_t enable)
000000 CFD9 FFE5      00864         MOVFF   FSR2L, POSTDEC1
000004 CFE1 FFD9      00865         MOVFF   FSR1L, FSR2L
000008 C??? F???      00866         MOVFF   r0x00, POSTDEC1
00000C 0E02           00867         MOVLW   0x02
00000E CFDB F000      00868         MOVFF   PLUSW2, r0x00
                      00869         .line   1379; ../../../RF24_c/RF24_c.c  if ( enable )
000012 50??           00870         MOVF    r0x00, W
000014 E0??           00871         BZ      _00770_DS_
                      00872         .line   1380; ../../../RF24_c/RF24_c.c  RF24_write_register_d(EN_AA, 0b111111);
000016 0E3F           00873         MOVLW   0x3f
Message[1301]: Using default destination of 0 (Access Bank).
000018 6EE5           00874         MOVWF   POSTDEC1
00001A 0E01           00875         MOVLW   0x01
Message[1301]: Using default destination of 0 (Access Bank).
00001C 6EE5           00876         MOVWF   POSTDEC1
00001E EC?? F0??      00877         CALL    _RF24_write_register_d
000022 52E6           00878         MOVF    POSTINC1, F
000024 52E6           00879         MOVF    POSTINC1, F
000026 D???           00880         BRA     _00772_DS_
000028                00881 _00770_DS_:
                      00882         .line   1382; ../../../RF24_c/RF24_c.c  RF24_write_register_d(EN_AA, 0);
000028 0E00           00883         MOVLW   0x00
Message[1301]: Using default destination of 0 (Access Bank).
gpasm-1.4.0 #1107 (May  9 2015) build/sdcc/pr   12-5-2016  17:29:30         PAGE 19


LOC    OBJECT CODE    LINE  SOURCE TEXT
  VALUE

00002A 6EE5           00884         MOVWF   POSTDEC1
00002C 0E01           00885         MOVLW   0x01
Message[1301]: Using default destination of 0 (Access Bank).
00002E 6EE5           00886         MOVWF   POSTDEC1
000030 EC?? F0??      00887         CALL    _RF24_write_register_d
000034 52E6           00888         MOVF    POSTINC1, F
000036 52E6           00889         MOVF    POSTINC1, F
000038                00890 _00772_DS_:
000038 CFE4 F000      00891         MOVFF   PREINC1, r0x00
00003C CFE4 FFD9      00892         MOVFF   PREINC1, FSR2L
000040 0012           00893         RETURN  
                      00894 
                      00895 ; ; Starting pCode block
                      00896 S_RF24_c__RF24_isPVariant       code
000000                00897 _RF24_isPVariant:
                      00898         .line   1370; ../../../RF24_c/RF24_c.c  uint8_t RF24_isPVariant(void)
000000 CFD9 FFE5      00899         MOVFF   FSR2L, POSTDEC1
000004 CFE1 FFD9      00900         MOVFF   FSR1L, FSR2L
000008 ????           00901         BANKSEL (_rf + 4)
                      00902         .line   1372; ../../../RF24_c/RF24_c.c  return rf.p_variant ;
00000A 51??           00903         MOVF    (_rf + 4), W, B
00000C CFE4 FFD9      00904         MOVFF   PREINC1, FSR2L
000010 0012           00905         RETURN  
                      00906 
                      00907 ; ; Starting pCode block
                      00908 S_RF24_c__RF24_isAckPayloadAvailable    code
000000                00909 _RF24_isAckPayloadAvailable:
                      00910         .line   1363; ../../../RF24_c/RF24_c.c  uint8_t RF24_isAckPayloadAvailable(void)
000000 CFD9 FFE5      00911         MOVFF   FSR2L, POSTDEC1
000004 CFE1 FFD9      00912         MOVFF   FSR1L, FSR2L
000008 C??? F???      00913         MOVFF   r0x00, POSTDEC1
                      00914         .line   1365; ../../../RF24_c/RF24_c.c  return ! (RF24_read_register_d(FIFO_STATUS) & _BV(RX_EMP
                            TY));
00000C 0E17           00915         MOVLW   0x17
Message[1301]: Using default destination of 0 (Access Bank).
00000E 6EE5           00916         MOVWF   POSTDEC1
000010 EC?? F0??      00917         CALL    _RF24_read_register_d
Message[1301]: Using default destination of 0 (Access Bank).
000014 6E??           00918         MOVWF   r0x00
000016 52E6           00919         MOVF    POSTINC1, F
000018 50??           00920         MOVF    r0x00, W
00001A 0B01           00921         ANDLW   0x01
Message[1301]: Using default destination of 0 (Access Bank).
00001C 6E??           00922         MOVWF   r0x00
00001E 50??           00923         MOVF    r0x00, W
000020 80D8           00924         BSF     STATUS, 0
Message[1301]: Using default destination of 0 (Access Bank).
000022 66E8           00925         TSTFSZ  WREG
000024 90D8           00926         BCF     STATUS, 0
Message[1301]: Using default destination of 0 (Access Bank).
000026 6A??           00927         CLRF    r0x00
000028 36??           00928         RLCF    r0x00, F
00002A 50??           00929         MOVF    r0x00, W
gpasm-1.4.0 #1107 (May  9 2015) build/sdcc/pr   12-5-2016  17:29:30         PAGE 20


LOC    OBJECT CODE    LINE  SOURCE TEXT
  VALUE

00002C CFE4 F000      00930         MOVFF   PREINC1, r0x00
000030 CFE4 FFD9      00931         MOVFF   PREINC1, FSR2L
000034 0012           00932         RETURN  
                      00933 
                      00934 ; ; Starting pCode block
                      00935 S_RF24_c__RF24_writeAckPayload  code
000000                00936 _RF24_writeAckPayload:
                      00937         .line   1332; ../../../RF24_c/RF24_c.c  void RF24_writeAckPayload(uint8_t pipe, const void* buf,
                             uint8_t len)
000000 CFD9 FFE5      00938         MOVFF   FSR2L, POSTDEC1
000004 CFE1 FFD9      00939         MOVFF   FSR1L, FSR2L
000008 C??? F???      00940         MOVFF   r0x00, POSTDEC1
00000C C??? F???      00941         MOVFF   r0x01, POSTDEC1
000010 C??? F???      00942         MOVFF   r0x02, POSTDEC1
000014 C??? F???      00943         MOVFF   r0x03, POSTDEC1
000018 C??? F???      00944         MOVFF   r0x04, POSTDEC1
00001C 0E02           00945         MOVLW   0x02
00001E CFDB F000      00946         MOVFF   PLUSW2, r0x00
000022 0E03           00947         MOVLW   0x03
000024 CFDB F000      00948         MOVFF   PLUSW2, r0x01
000028 0E04           00949         MOVLW   0x04
00002A CFDB F000      00950         MOVFF   PLUSW2, r0x02
00002E 0E05           00951         MOVLW   0x05
000030 CFDB F000      00952         MOVFF   PLUSW2, r0x03
000034 0E06           00953         MOVLW   0x06
000036 CFDB F000      00954         MOVFF   PLUSW2, r0x04
                      00955         .line   1334; ../../../RF24_c/RF24_c.c  const uint8_t* current = (const uint8_t*)(buf);
00003A 50??           00956         MOVF    r0x03, W
Message[1301]: Using default destination of 0 (Access Bank).
00003C 6E??           00957         MOVWF   r0x03
00003E 50??           00958         MOVF    r0x02, W
Message[1301]: Using default destination of 0 (Access Bank).
000040 6E??           00959         MOVWF   r0x02
000042 50??           00960         MOVF    r0x01, W
Message[1301]: Using default destination of 0 (Access Bank).
000044 6E??           00961         MOVWF   r0x01
                      00962         .line   1336; ../../../RF24_c/RF24_c.c  uint8_t data_len = rf24_min(len,32);
000046 0E20           00963         MOVLW   0x20
000048 5C??           00964         SUBWF   r0x04, W
00004A E3??           00965         BNC     _00740_DS_
00004C 0E20           00966         MOVLW   0x20
Message[1301]: Using default destination of 0 (Access Bank).
00004E 6E??           00967         MOVWF   r0x04
000050                00968 _00740_DS_:
                      00969         .line   1350; ../../../RF24_c/RF24_c.c  RF24_beginTransaction();
000050 EC?? F0??      00970         CALL    _RF24_beginTransaction
                      00971         .line   1351; ../../../RF24_c/RF24_c.c  SPI_transfer(W_ACK_PAYLOAD | ( pipe & 0b111 ) );
000054 0E07           00972         MOVLW   0x07
000056 16??           00973         ANDWF   r0x00, F
000058 0EA8           00974         MOVLW   0xa8
00005A 12??           00975         IORWF   r0x00, F
00005C 50??           00976         MOVF    r0x00, W
Message[1301]: Using default destination of 0 (Access Bank).
gpasm-1.4.0 #1107 (May  9 2015) build/sdcc/pr   12-5-2016  17:29:30         PAGE 21


LOC    OBJECT CODE    LINE  SOURCE TEXT
  VALUE

00005E 6EE5           00977         MOVWF   POSTDEC1
000060 EC?? F0??      00978         CALL    _SPI_transfer
000064 52E6           00979         MOVF    POSTINC1, F
                      00980         .line   1353; ../../../RF24_c/RF24_c.c  while ( data_len-- )
000066 C??? F???      00981         MOVFF   r0x01, r0x00
00006A C??? F???      00982         MOVFF   r0x02, r0x01
00006E C??? F???      00983         MOVFF   r0x03, r0x02
000072                00984 _00734_DS_:
000072 C??? F???      00985         MOVFF   r0x04, r0x03
000076 06??           00986         DECF    r0x04, F
000078 50??           00987         MOVF    r0x03, W
00007A E0??           00988         BZ      _00736_DS_
                      00989         .line   1354; ../../../RF24_c/RF24_c.c  SPI_transfer(*current++);
00007C C??? F???      00990         MOVFF   r0x00, FSR0L
000080 C??? F???      00991         MOVFF   r0x01, PRODL
000084 50??           00992         MOVF    r0x02, W
000086 EC?? F0??      00993         CALL    __gptrget1
Message[1301]: Using default destination of 0 (Access Bank).
00008A 6E??           00994         MOVWF   r0x03
00008C 2A??           00995         INCF    r0x00, F
00008E E3??           00996         BNC     _00754_DS_
000090 4A??           00997         INFSNZ  r0x01, F
000092 2A??           00998         INCF    r0x02, F
000094                00999 _00754_DS_:
000094 50??           01000         MOVF    r0x03, W
Message[1301]: Using default destination of 0 (Access Bank).
000096 6EE5           01001         MOVWF   POSTDEC1
000098 EC?? F0??      01002         CALL    _SPI_transfer
00009C 52E6           01003         MOVF    POSTINC1, F
00009E D???           01004         BRA     _00734_DS_
0000A0                01005 _00736_DS_:
                      01006         .line   1355; ../../../RF24_c/RF24_c.c  RF24_endTransaction();
0000A0 EC?? F0??      01007         CALL    _RF24_endTransaction
0000A4 CFE4 F000      01008         MOVFF   PREINC1, r0x04
0000A8 CFE4 F000      01009         MOVFF   PREINC1, r0x03
0000AC CFE4 F000      01010         MOVFF   PREINC1, r0x02
0000B0 CFE4 F000      01011         MOVFF   PREINC1, r0x01
0000B4 CFE4 F000      01012         MOVFF   PREINC1, r0x00
0000B8 CFE4 FFD9      01013         MOVFF   PREINC1, FSR2L
0000BC 0012           01014         RETURN  
                      01015 
                      01016 ; ; Starting pCode block
                      01017 S_RF24_c__RF24_enableDynamicAck code
000000                01018 _RF24_enableDynamicAck:
                      01019         .line   1318; ../../../RF24_c/RF24_c.c  void RF24_enableDynamicAck(void){
000000 CFD9 FFE5      01020         MOVFF   FSR2L, POSTDEC1
000004 CFE1 FFD9      01021         MOVFF   FSR1L, FSR2L
000008 C??? F???      01022         MOVFF   r0x00, POSTDEC1
                      01023         .line   1323; ../../../RF24_c/RF24_c.c  RF24_write_register_d(FEATURE,RF24_read_register_d(FEATU
                            RE) | _BV(EN_DYN_ACK) );
00000C 0E1D           01024         MOVLW   0x1d
Message[1301]: Using default destination of 0 (Access Bank).
00000E 6EE5           01025         MOVWF   POSTDEC1
gpasm-1.4.0 #1107 (May  9 2015) build/sdcc/pr   12-5-2016  17:29:30         PAGE 22


LOC    OBJECT CODE    LINE  SOURCE TEXT
  VALUE

000010 EC?? F0??      01026         CALL    _RF24_read_register_d
Message[1301]: Using default destination of 0 (Access Bank).
000014 6E??           01027         MOVWF   r0x00
000016 52E6           01028         MOVF    POSTINC1, F
000018 80??           01029         BSF     r0x00, 0
00001A 50??           01030         MOVF    r0x00, W
Message[1301]: Using default destination of 0 (Access Bank).
00001C 6EE5           01031         MOVWF   POSTDEC1
00001E 0E1D           01032         MOVLW   0x1d
Message[1301]: Using default destination of 0 (Access Bank).
000020 6EE5           01033         MOVWF   POSTDEC1
000022 EC?? F0??      01034         CALL    _RF24_write_register_d
000026 52E6           01035         MOVF    POSTINC1, F
000028 52E6           01036         MOVF    POSTINC1, F
00002A CFE4 F000      01037         MOVFF   PREINC1, r0x00
00002E CFE4 FFD9      01038         MOVFF   PREINC1, FSR2L
000032 0012           01039         RETURN  
                      01040 
                      01041 ; ; Starting pCode block
                      01042 S_RF24_c__RF24_enableAckPayload code
000000                01043 _RF24_enableAckPayload:
                      01044         .line   1297; ../../../RF24_c/RF24_c.c  void RF24_enableAckPayload(void)
000000 CFD9 FFE5      01045         MOVFF   FSR2L, POSTDEC1
000004 CFE1 FFD9      01046         MOVFF   FSR1L, FSR2L
000008 C??? F???      01047         MOVFF   r0x00, POSTDEC1
                      01048         .line   1304; ../../../RF24_c/RF24_c.c  RF24_write_register_d(FEATURE,RF24_read_register_d(FEATU
                            RE) | _BV(EN_ACK_PAY) | _BV(EN_DPL) );
00000C 0E1D           01049         MOVLW   0x1d
Message[1301]: Using default destination of 0 (Access Bank).
00000E 6EE5           01050         MOVWF   POSTDEC1
000010 EC?? F0??      01051         CALL    _RF24_read_register_d
Message[1301]: Using default destination of 0 (Access Bank).
000014 6E??           01052         MOVWF   r0x00
000016 52E6           01053         MOVF    POSTINC1, F
000018 0E06           01054         MOVLW   0x06
00001A 12??           01055         IORWF   r0x00, F
00001C 50??           01056         MOVF    r0x00, W
Message[1301]: Using default destination of 0 (Access Bank).
00001E 6EE5           01057         MOVWF   POSTDEC1
000020 0E1D           01058         MOVLW   0x1d
Message[1301]: Using default destination of 0 (Access Bank).
000022 6EE5           01059         MOVWF   POSTDEC1
000024 EC?? F0??      01060         CALL    _RF24_write_register_d
000028 52E6           01061         MOVF    POSTINC1, F
00002A 52E6           01062         MOVF    POSTINC1, F
                      01063         .line   1312; ../../../RF24_c/RF24_c.c  RF24_write_register_d(DYNPD,RF24_read_register_d(DYNPD) 
                            | _BV(DPL_P1) | _BV(DPL_P0));
00002C 0E1C           01064         MOVLW   0x1c
Message[1301]: Using default destination of 0 (Access Bank).
00002E 6EE5           01065         MOVWF   POSTDEC1
000030 EC?? F0??      01066         CALL    _RF24_read_register_d
Message[1301]: Using default destination of 0 (Access Bank).
000034 6E??           01067         MOVWF   r0x00
gpasm-1.4.0 #1107 (May  9 2015) build/sdcc/pr   12-5-2016  17:29:30         PAGE 23


LOC    OBJECT CODE    LINE  SOURCE TEXT
  VALUE

000036 52E6           01068         MOVF    POSTINC1, F
000038 0E03           01069         MOVLW   0x03
00003A 12??           01070         IORWF   r0x00, F
00003C 50??           01071         MOVF    r0x00, W
Message[1301]: Using default destination of 0 (Access Bank).
00003E 6EE5           01072         MOVWF   POSTDEC1
000040 0E1C           01073         MOVLW   0x1c
Message[1301]: Using default destination of 0 (Access Bank).
000042 6EE5           01074         MOVWF   POSTDEC1
000044 EC?? F0??      01075         CALL    _RF24_write_register_d
000048 52E6           01076         MOVF    POSTINC1, F
00004A 52E6           01077         MOVF    POSTINC1, F
                      01078         .line   1313; ../../../RF24_c/RF24_c.c  rf.dynamic_payloads_enabled = 1;
00004C 0E01           01079         MOVLW   0x01
00004E ????           01080         BANKSEL (_rf + 6)
000050 6F??           01081         MOVWF   (_rf + 6), B
000052 CFE4 F000      01082         MOVFF   PREINC1, r0x00
000056 CFE4 FFD9      01083         MOVFF   PREINC1, FSR2L
00005A 0012           01084         RETURN  
                      01085 
                      01086 ; ; Starting pCode block
                      01087 S_RF24_c__RF24_enableDynamicPayloads    code
000000                01088 _RF24_enableDynamicPayloads:
                      01089         .line   1276; ../../../RF24_c/RF24_c.c  void RF24_enableDynamicPayloads(void)
000000 CFD9 FFE5      01090         MOVFF   FSR2L, POSTDEC1
000004 CFE1 FFD9      01091         MOVFF   FSR1L, FSR2L
000008 C??? F???      01092         MOVFF   r0x00, POSTDEC1
                      01093         .line   1281; ../../../RF24_c/RF24_c.c  RF24_write_register_d(FEATURE,RF24_read_register_d(FEATU
                            RE) | _BV(EN_DPL) );
00000C 0E1D           01094         MOVLW   0x1d
Message[1301]: Using default destination of 0 (Access Bank).
00000E 6EE5           01095         MOVWF   POSTDEC1
000010 EC?? F0??      01096         CALL    _RF24_read_register_d
Message[1301]: Using default destination of 0 (Access Bank).
000014 6E??           01097         MOVWF   r0x00
000016 52E6           01098         MOVF    POSTINC1, F
000018 84??           01099         BSF     r0x00, 2
00001A 50??           01100         MOVF    r0x00, W
Message[1301]: Using default destination of 0 (Access Bank).
00001C 6EE5           01101         MOVWF   POSTDEC1
00001E 0E1D           01102         MOVLW   0x1d
Message[1301]: Using default destination of 0 (Access Bank).
000020 6EE5           01103         MOVWF   POSTDEC1
000022 EC?? F0??      01104         CALL    _RF24_write_register_d
000026 52E6           01105         MOVF    POSTINC1, F
000028 52E6           01106         MOVF    POSTINC1, F
                      01107         .line   1290; ../../../RF24_c/RF24_c.c  RF24_write_register_d(DYNPD,RF24_read_register_d(DYNPD) 
                            | _BV(DPL_P5) | _BV(DPL_P4) | _BV(DPL_P3) | _BV(DPL_P2) | _BV(DPL_P1) | _BV(DPL_P0));
00002A 0E1C           01108         MOVLW   0x1c
Message[1301]: Using default destination of 0 (Access Bank).
00002C 6EE5           01109         MOVWF   POSTDEC1
00002E EC?? F0??      01110         CALL    _RF24_read_register_d
Message[1301]: Using default destination of 0 (Access Bank).
gpasm-1.4.0 #1107 (May  9 2015) build/sdcc/pr   12-5-2016  17:29:30         PAGE 24


LOC    OBJECT CODE    LINE  SOURCE TEXT
  VALUE

000032 6E??           01111         MOVWF   r0x00
000034 52E6           01112         MOVF    POSTINC1, F
000036 0E3F           01113         MOVLW   0x3f
000038 12??           01114         IORWF   r0x00, F
00003A 50??           01115         MOVF    r0x00, W
Message[1301]: Using default destination of 0 (Access Bank).
00003C 6EE5           01116         MOVWF   POSTDEC1
00003E 0E1C           01117         MOVLW   0x1c
Message[1301]: Using default destination of 0 (Access Bank).
000040 6EE5           01118         MOVWF   POSTDEC1
000042 EC?? F0??      01119         CALL    _RF24_write_register_d
000046 52E6           01120         MOVF    POSTINC1, F
000048 52E6           01121         MOVF    POSTINC1, F
                      01122         .line   1292; ../../../RF24_c/RF24_c.c  rf.dynamic_payloads_enabled = 1;
00004A 0E01           01123         MOVLW   0x01
00004C ????           01124         BANKSEL (_rf + 6)
00004E 6F??           01125         MOVWF   (_rf + 6), B
000050 CFE4 F000      01126         MOVFF   PREINC1, r0x00
000054 CFE4 FFD9      01127         MOVFF   PREINC1, FSR2L
000058 0012           01128         RETURN  
                      01129 
                      01130 ; ; Starting pCode block
                      01131 S_RF24_c__RF24_toggle_features_d        code
000000                01132 _RF24_toggle_features_d:
                      01133         .line   1266; ../../../RF24_c/RF24_c.c  void RF24_toggle_features_d(void)
000000 CFD9 FFE5      01134         MOVFF   FSR2L, POSTDEC1
000004 CFE1 FFD9      01135         MOVFF   FSR1L, FSR2L
                      01136         .line   1268; ../../../RF24_c/RF24_c.c  RF24_beginTransaction();
000008 EC?? F0??      01137         CALL    _RF24_beginTransaction
                      01138         .line   1269; ../../../RF24_c/RF24_c.c  SPI_transfer( ACTIVATE );
00000C 0E50           01139         MOVLW   0x50
Message[1301]: Using default destination of 0 (Access Bank).
00000E 6EE5           01140         MOVWF   POSTDEC1
000010 EC?? F0??      01141         CALL    _SPI_transfer
000014 52E6           01142         MOVF    POSTINC1, F
                      01143         .line   1270; ../../../RF24_c/RF24_c.c  SPI_transfer( 0x73 );
000016 0E73           01144         MOVLW   0x73
Message[1301]: Using default destination of 0 (Access Bank).
000018 6EE5           01145         MOVWF   POSTDEC1
00001A EC?? F0??      01146         CALL    _SPI_transfer
00001E 52E6           01147         MOVF    POSTINC1, F
                      01148         .line   1271; ../../../RF24_c/RF24_c.c  RF24_endTransaction();
000020 EC?? F0??      01149         CALL    _RF24_endTransaction
000024 CFE4 FFD9      01150         MOVFF   PREINC1, FSR2L
000028 0012           01151         RETURN  
                      01152 
                      01153 ; ; Starting pCode block
                      01154 S_RF24_c__RF24_closeReadingPipe code
000000                01155 _RF24_closeReadingPipe:
                      01156         .line   1259; ../../../RF24_c/RF24_c.c  void RF24_closeReadingPipe(uint8_t pipe )
000000 CFD9 FFE5      01157         MOVFF   FSR2L, POSTDEC1
000004 CFE1 FFD9      01158         MOVFF   FSR1L, FSR2L
000008 C??? F???      01159         MOVFF   r0x00, POSTDEC1
gpasm-1.4.0 #1107 (May  9 2015) build/sdcc/pr   12-5-2016  17:29:30         PAGE 25


LOC    OBJECT CODE    LINE  SOURCE TEXT
  VALUE

00000C C??? F???      01160         MOVFF   r0x01, POSTDEC1
000010 C??? F???      01161         MOVFF   r0x02, POSTDEC1
000014 C??? F???      01162         MOVFF   r0x03, POSTDEC1
000018 0E02           01163         MOVLW   0x02
00001A CFDB F000      01164         MOVFF   PLUSW2, r0x00
                      01165         .line   1261; ../../../RF24_c/RF24_c.c  RF24_write_register_d(EN_RXADDR,RF24_read_register_d(EN_
                            RXADDR) & ~_BV(pgm_read_byte(&child_pipe_enable[pipe])));
00001E 0E02           01166         MOVLW   0x02
Message[1301]: Using default destination of 0 (Access Bank).
000020 6EE5           01167         MOVWF   POSTDEC1
000022 EC?? F0??      01168         CALL    _RF24_read_register_d
Message[1301]: Using default destination of 0 (Access Bank).
000026 6E??           01169         MOVWF   r0x01
000028 52E6           01170         MOVF    POSTINC1, F
Message[1301]: Using default destination of 0 (Access Bank).
00002A 6A??           01171         CLRF    r0x02
Message[1301]: Using default destination of 0 (Access Bank).
00002C 6A??           01172         CLRF    r0x03
00002E 0E??           01173         MOVLW   LOW(_child_pipe_enable)
000030 26??           01174         ADDWF   r0x00, F
000032 0E??           01175         MOVLW   HIGH(_child_pipe_enable)
000034 22??           01176         ADDWFC  r0x02, F
000036 0E??           01177         MOVLW   UPPER(_child_pipe_enable)
000038 22??           01178         ADDWFC  r0x03, F
00003A C??? F???      01179         MOVFF   r0x00, TBLPTRL
00003E C??? F???      01180         MOVFF   r0x02, TBLPTRH
000042 C??? F???      01181         MOVFF   r0x03, TBLPTRU
000046 0009           01182         TBLRD*+ 
000048 CFF5 F000      01183         MOVFF   TABLAT, r0x00
00004C 0E01           01184         MOVLW   0x01
Message[1301]: Using default destination of 0 (Access Bank).
00004E 6E??           01185         MOVWF   r0x02
000050 50??           01186         MOVF    r0x00, W
000052 E0??           01187         BZ      _00708_DS_
Message[1301]: Using default destination of 0 (Access Bank).
000054 6CE8           01188         NEGF    WREG
000056 90D8           01189         BCF     STATUS, 0
000058                01190 _00709_DS_:
000058 36??           01191         RLCF    r0x02, F
00005A 0F01           01192         ADDLW   0x01
00005C E3??           01193         BNC     _00709_DS_
00005E                01194 _00708_DS_:
00005E 1C??           01195         COMF    r0x02, W
Message[1301]: Using default destination of 0 (Access Bank).
000060 6E??           01196         MOVWF   r0x00
000062 50??           01197         MOVF    r0x00, W
000064 16??           01198         ANDWF   r0x01, F
000066 50??           01199         MOVF    r0x01, W
Message[1301]: Using default destination of 0 (Access Bank).
000068 6EE5           01200         MOVWF   POSTDEC1
00006A 0E02           01201         MOVLW   0x02
Message[1301]: Using default destination of 0 (Access Bank).
00006C 6EE5           01202         MOVWF   POSTDEC1
gpasm-1.4.0 #1107 (May  9 2015) build/sdcc/pr   12-5-2016  17:29:30         PAGE 26


LOC    OBJECT CODE    LINE  SOURCE TEXT
  VALUE

00006E EC?? F0??      01203         CALL    _RF24_write_register_d
000072 52E6           01204         MOVF    POSTINC1, F
000074 52E6           01205         MOVF    POSTINC1, F
000076 CFE4 F000      01206         MOVFF   PREINC1, r0x03
00007A CFE4 F000      01207         MOVFF   PREINC1, r0x02
00007E CFE4 F000      01208         MOVFF   PREINC1, r0x01
000082 CFE4 F000      01209         MOVFF   PREINC1, r0x00
000086 CFE4 FFD9      01210         MOVFF   PREINC1, FSR2L
00008A 0012           01211         RETURN  
                      01212 
                      01213 ; ; Starting pCode block
                      01214 S_RF24_c__RF24_openReadingPipe  code
000000                01215 _RF24_openReadingPipe:
                      01216         .line   1231; ../../../RF24_c/RF24_c.c  void RF24_openReadingPipe(uint8_t child, const uint8_t *
                            address)
000000 CFD9 FFE5      01217         MOVFF   FSR2L, POSTDEC1
000004 CFE1 FFD9      01218         MOVFF   FSR1L, FSR2L
000008 C??? F???      01219         MOVFF   r0x00, POSTDEC1
00000C C??? F???      01220         MOVFF   r0x01, POSTDEC1
000010 C??? F???      01221         MOVFF   r0x02, POSTDEC1
000014 C??? F???      01222         MOVFF   r0x03, POSTDEC1
000018 C??? F???      01223         MOVFF   r0x04, POSTDEC1
00001C C??? F???      01224         MOVFF   r0x05, POSTDEC1
000020 C??? F???      01225         MOVFF   r0x06, POSTDEC1
000024 C??? F???      01226         MOVFF   r0x07, POSTDEC1
000028 C??? F???      01227         MOVFF   r0x08, POSTDEC1
00002C C??? F???      01228         MOVFF   r0x09, POSTDEC1
000030 C??? F???      01229         MOVFF   r0x0a, POSTDEC1
000034 C??? F???      01230         MOVFF   r0x0b, POSTDEC1
000038 0E02           01231         MOVLW   0x02
00003A CFDB F000      01232         MOVFF   PLUSW2, r0x00
00003E 0E03           01233         MOVLW   0x03
000040 CFDB F000      01234         MOVFF   PLUSW2, r0x01
000044 0E04           01235         MOVLW   0x04
000046 CFDB F000      01236         MOVFF   PLUSW2, r0x02
00004A 0E05           01237         MOVLW   0x05
00004C CFDB F000      01238         MOVFF   PLUSW2, r0x03
                      01239         .line   1236; ../../../RF24_c/RF24_c.c  if (child == 0){
000050 50??           01240         MOVF    r0x00, W
000052 E1??           01241         BNZ     _00681_DS_
                      01242         .line   1237; ../../../RF24_c/RF24_c.c  memcpy(rf.pipe0_reading_address,address,rf.addr_width);
000054 0E??           01243         MOVLW   HIGH(_rf + 7)
Message[1301]: Using default destination of 0 (Access Bank).
000056 6E??           01244         MOVWF   r0x05
000058 0E??           01245         MOVLW   LOW(_rf + 7)
Message[1301]: Using default destination of 0 (Access Bank).
00005A 6E??           01246         MOVWF   r0x04
00005C 0E80           01247         MOVLW   0x80
Message[1301]: Using default destination of 0 (Access Bank).
00005E 6E??           01248         MOVWF   r0x06
000060 50??           01249         MOVF    r0x03, W
Message[1301]: Using default destination of 0 (Access Bank).
000062 6E??           01250         MOVWF   r0x09
gpasm-1.4.0 #1107 (May  9 2015) build/sdcc/pr   12-5-2016  17:29:30         PAGE 27


LOC    OBJECT CODE    LINE  SOURCE TEXT
  VALUE

000064 50??           01251         MOVF    r0x02, W
Message[1301]: Using default destination of 0 (Access Bank).
000066 6E??           01252         MOVWF   r0x08
000068 50??           01253         MOVF    r0x01, W
Message[1301]: Using default destination of 0 (Access Bank).
00006A 6E??           01254         MOVWF   r0x07
00006C C??? F???      01255         MOVFF   (_rf + 12), r0x0a
Message[1301]: Using default destination of 0 (Access Bank).
000070 6A??           01256         CLRF    r0x0b
000072 50??           01257         MOVF    r0x0b, W
Message[1301]: Using default destination of 0 (Access Bank).
000074 6EE5           01258         MOVWF   POSTDEC1
000076 50??           01259         MOVF    r0x0a, W
Message[1301]: Using default destination of 0 (Access Bank).
000078 6EE5           01260         MOVWF   POSTDEC1
00007A 50??           01261         MOVF    r0x09, W
Message[1301]: Using default destination of 0 (Access Bank).
00007C 6EE5           01262         MOVWF   POSTDEC1
00007E 50??           01263         MOVF    r0x08, W
Message[1301]: Using default destination of 0 (Access Bank).
000080 6EE5           01264         MOVWF   POSTDEC1
000082 50??           01265         MOVF    r0x07, W
Message[1301]: Using default destination of 0 (Access Bank).
000084 6EE5           01266         MOVWF   POSTDEC1
000086 50??           01267         MOVF    r0x06, W
Message[1301]: Using default destination of 0 (Access Bank).
000088 6EE5           01268         MOVWF   POSTDEC1
00008A 50??           01269         MOVF    r0x05, W
Message[1301]: Using default destination of 0 (Access Bank).
00008C 6EE5           01270         MOVWF   POSTDEC1
00008E 50??           01271         MOVF    r0x04, W
Message[1301]: Using default destination of 0 (Access Bank).
000090 6EE5           01272         MOVWF   POSTDEC1
000092 EC?? F0??      01273         CALL    _memcpy
000096 0E08           01274         MOVLW   0x08
000098 26E1           01275         ADDWF   FSR1L, F
00009A                01276 _00681_DS_:
                      01277         .line   1239; ../../../RF24_c/RF24_c.c  if (child <= 6)
00009A 0E07           01278         MOVLW   0x07
00009C 5C??           01279         SUBWF   r0x00, W
00009E B0D8           01280         BTFSC   STATUS, 0
0000A0 D???           01281         BRA     _00687_DS_
                      01282         .line   1242; ../../../RF24_c/RF24_c.c  if ( child < 2 ){
0000A2 0E02           01283         MOVLW   0x02
0000A4 5C??           01284         SUBWF   r0x00, W
0000A6 E2??           01285         BC      _00683_DS_
                      01286         .line   1243; ../../../RF24_c/RF24_c.c  RF24_write_register_c_d(pgm_read_byte(&child_pipe[child]
                            ), address, rf.addr_width);
0000A8 0E??           01287         MOVLW   LOW(_child_pipe)
0000AA 24??           01288         ADDWF   r0x00, W
Message[1301]: Using default destination of 0 (Access Bank).
0000AC 6E??           01289         MOVWF   r0x04
Message[1301]: Using default destination of 0 (Access Bank).
gpasm-1.4.0 #1107 (May  9 2015) build/sdcc/pr   12-5-2016  17:29:30         PAGE 28


LOC    OBJECT CODE    LINE  SOURCE TEXT
  VALUE

0000AE 6A??           01290         CLRF    r0x05
0000B0 0E??           01291         MOVLW   HIGH(_child_pipe)
0000B2 22??           01292         ADDWFC  r0x05, F
Message[1301]: Using default destination of 0 (Access Bank).
0000B4 6A??           01293         CLRF    r0x06
0000B6 0E??           01294         MOVLW   UPPER(_child_pipe)
0000B8 22??           01295         ADDWFC  r0x06, F
0000BA C??? F???      01296         MOVFF   r0x04, TBLPTRL
0000BE C??? F???      01297         MOVFF   r0x05, TBLPTRH
0000C2 C??? F???      01298         MOVFF   r0x06, TBLPTRU
0000C6 0009           01299         TBLRD*+ 
0000C8 CFF5 F000      01300         MOVFF   TABLAT, r0x04
0000CC ????           01301         BANKSEL (_rf + 12)
0000CE 51??           01302         MOVF    (_rf + 12), W, B
Message[1301]: Using default destination of 0 (Access Bank).
0000D0 6EE5           01303         MOVWF   POSTDEC1
0000D2 50??           01304         MOVF    r0x03, W
Message[1301]: Using default destination of 0 (Access Bank).
0000D4 6EE5           01305         MOVWF   POSTDEC1
0000D6 50??           01306         MOVF    r0x02, W
Message[1301]: Using default destination of 0 (Access Bank).
0000D8 6EE5           01307         MOVWF   POSTDEC1
0000DA 50??           01308         MOVF    r0x01, W
Message[1301]: Using default destination of 0 (Access Bank).
0000DC 6EE5           01309         MOVWF   POSTDEC1
0000DE 50??           01310         MOVF    r0x04, W
Message[1301]: Using default destination of 0 (Access Bank).
0000E0 6EE5           01311         MOVWF   POSTDEC1
0000E2 EC?? F0??      01312         CALL    _RF24_write_register_c_d
0000E6 0E05           01313         MOVLW   0x05
0000E8 26E1           01314         ADDWF   FSR1L, F
0000EA D???           01315         BRA     _00684_DS_
0000EC                01316 _00683_DS_:
                      01317         .line   1245; ../../../RF24_c/RF24_c.c  RF24_write_register_c_d(pgm_read_byte(&child_pipe[child]
                            ), address, 1);
0000EC 0E??           01318         MOVLW   LOW(_child_pipe)
0000EE 24??           01319         ADDWF   r0x00, W
Message[1301]: Using default destination of 0 (Access Bank).
0000F0 6E??           01320         MOVWF   r0x04
Message[1301]: Using default destination of 0 (Access Bank).
0000F2 6A??           01321         CLRF    r0x05
0000F4 0E??           01322         MOVLW   HIGH(_child_pipe)
0000F6 22??           01323         ADDWFC  r0x05, F
Message[1301]: Using default destination of 0 (Access Bank).
0000F8 6A??           01324         CLRF    r0x06
0000FA 0E??           01325         MOVLW   UPPER(_child_pipe)
0000FC 22??           01326         ADDWFC  r0x06, F
0000FE C??? F???      01327         MOVFF   r0x04, TBLPTRL
000102 C??? F???      01328         MOVFF   r0x05, TBLPTRH
000106 C??? F???      01329         MOVFF   r0x06, TBLPTRU
00010A 0009           01330         TBLRD*+ 
00010C CFF5 F000      01331         MOVFF   TABLAT, r0x04
000110 0E01           01332         MOVLW   0x01
gpasm-1.4.0 #1107 (May  9 2015) build/sdcc/pr   12-5-2016  17:29:30         PAGE 29


LOC    OBJECT CODE    LINE  SOURCE TEXT
  VALUE

Message[1301]: Using default destination of 0 (Access Bank).
000112 6EE5           01333         MOVWF   POSTDEC1
000114 50??           01334         MOVF    r0x03, W
Message[1301]: Using default destination of 0 (Access Bank).
000116 6EE5           01335         MOVWF   POSTDEC1
000118 50??           01336         MOVF    r0x02, W
Message[1301]: Using default destination of 0 (Access Bank).
00011A 6EE5           01337         MOVWF   POSTDEC1
00011C 50??           01338         MOVF    r0x01, W
Message[1301]: Using default destination of 0 (Access Bank).
00011E 6EE5           01339         MOVWF   POSTDEC1
000120 50??           01340         MOVF    r0x04, W
Message[1301]: Using default destination of 0 (Access Bank).
000122 6EE5           01341         MOVWF   POSTDEC1
000124 EC?? F0??      01342         CALL    _RF24_write_register_c_d
000128 0E05           01343         MOVLW   0x05
00012A 26E1           01344         ADDWF   FSR1L, F
00012C                01345 _00684_DS_:
                      01346         .line   1247; ../../../RF24_c/RF24_c.c  RF24_write_register_d(pgm_read_byte(&child_payload_size[
                            child]),rf.payload_size);
00012C 0E??           01347         MOVLW   LOW(_child_payload_size)
00012E 24??           01348         ADDWF   r0x00, W
Message[1301]: Using default destination of 0 (Access Bank).
000130 6E??           01349         MOVWF   r0x01
Message[1301]: Using default destination of 0 (Access Bank).
000132 6A??           01350         CLRF    r0x02
000134 0E??           01351         MOVLW   HIGH(_child_payload_size)
000136 22??           01352         ADDWFC  r0x02, F
Message[1301]: Using default destination of 0 (Access Bank).
000138 6A??           01353         CLRF    r0x03
00013A 0E??           01354         MOVLW   UPPER(_child_payload_size)
00013C 22??           01355         ADDWFC  r0x03, F
00013E C??? F???      01356         MOVFF   r0x01, TBLPTRL
000142 C??? F???      01357         MOVFF   r0x02, TBLPTRH
000146 C??? F???      01358         MOVFF   r0x03, TBLPTRU
00014A 0009           01359         TBLRD*+ 
00014C CFF5 F000      01360         MOVFF   TABLAT, r0x01
000150 ????           01361         BANKSEL (_rf + 5)
000152 51??           01362         MOVF    (_rf + 5), W, B
Message[1301]: Using default destination of 0 (Access Bank).
000154 6EE5           01363         MOVWF   POSTDEC1
000156 50??           01364         MOVF    r0x01, W
Message[1301]: Using default destination of 0 (Access Bank).
000158 6EE5           01365         MOVWF   POSTDEC1
00015A EC?? F0??      01366         CALL    _RF24_write_register_d
00015E 52E6           01367         MOVF    POSTINC1, F
000160 52E6           01368         MOVF    POSTINC1, F
                      01369         .line   1252; ../../../RF24_c/RF24_c.c  RF24_write_register_d(EN_RXADDR,RF24_read_register_d(EN_
                            RXADDR) | _BV(pgm_read_byte(&child_pipe_enable[child])));
000162 0E02           01370         MOVLW   0x02
Message[1301]: Using default destination of 0 (Access Bank).
000164 6EE5           01371         MOVWF   POSTDEC1
000166 EC?? F0??      01372         CALL    _RF24_read_register_d
gpasm-1.4.0 #1107 (May  9 2015) build/sdcc/pr   12-5-2016  17:29:30         PAGE 30


LOC    OBJECT CODE    LINE  SOURCE TEXT
  VALUE

Message[1301]: Using default destination of 0 (Access Bank).
00016A 6E??           01373         MOVWF   r0x01
00016C 52E6           01374         MOVF    POSTINC1, F
Message[1301]: Using default destination of 0 (Access Bank).
00016E 6A??           01375         CLRF    r0x02
Message[1301]: Using default destination of 0 (Access Bank).
000170 6A??           01376         CLRF    r0x03
000172 0E??           01377         MOVLW   LOW(_child_pipe_enable)
000174 26??           01378         ADDWF   r0x00, F
000176 0E??           01379         MOVLW   HIGH(_child_pipe_enable)
000178 22??           01380         ADDWFC  r0x02, F
00017A 0E??           01381         MOVLW   UPPER(_child_pipe_enable)
00017C 22??           01382         ADDWFC  r0x03, F
00017E C??? F???      01383         MOVFF   r0x00, TBLPTRL
000182 C??? F???      01384         MOVFF   r0x02, TBLPTRH
000186 C??? F???      01385         MOVFF   r0x03, TBLPTRU
00018A 0009           01386         TBLRD*+ 
00018C CFF5 F000      01387         MOVFF   TABLAT, r0x00
000190 0E01           01388         MOVLW   0x01
Message[1301]: Using default destination of 0 (Access Bank).
000192 6E??           01389         MOVWF   r0x02
000194 50??           01390         MOVF    r0x00, W
000196 E0??           01391         BZ      _00700_DS_
Message[1301]: Using default destination of 0 (Access Bank).
000198 6CE8           01392         NEGF    WREG
00019A 90D8           01393         BCF     STATUS, 0
00019C                01394 _00701_DS_:
00019C 36??           01395         RLCF    r0x02, F
00019E 0F01           01396         ADDLW   0x01
0001A0 E3??           01397         BNC     _00701_DS_
0001A2                01398 _00700_DS_:
0001A2 50??           01399         MOVF    r0x02, W
0001A4 12??           01400         IORWF   r0x01, F
0001A6 50??           01401         MOVF    r0x01, W
Message[1301]: Using default destination of 0 (Access Bank).
0001A8 6EE5           01402         MOVWF   POSTDEC1
0001AA 0E02           01403         MOVLW   0x02
Message[1301]: Using default destination of 0 (Access Bank).
0001AC 6EE5           01404         MOVWF   POSTDEC1
0001AE EC?? F0??      01405         CALL    _RF24_write_register_d
0001B2 52E6           01406         MOVF    POSTINC1, F
0001B4 52E6           01407         MOVF    POSTINC1, F
0001B6                01408 _00687_DS_:
0001B6 CFE4 F000      01409         MOVFF   PREINC1, r0x0b
0001BA CFE4 F000      01410         MOVFF   PREINC1, r0x0a
0001BE CFE4 F000      01411         MOVFF   PREINC1, r0x09
0001C2 CFE4 F000      01412         MOVFF   PREINC1, r0x08
0001C6 CFE4 F000      01413         MOVFF   PREINC1, r0x07
0001CA CFE4 F000      01414         MOVFF   PREINC1, r0x06
0001CE CFE4 F000      01415         MOVFF   PREINC1, r0x05
0001D2 CFE4 F000      01416         MOVFF   PREINC1, r0x04
0001D6 CFE4 F000      01417         MOVFF   PREINC1, r0x03
0001DA CFE4 F000      01418         MOVFF   PREINC1, r0x02
gpasm-1.4.0 #1107 (May  9 2015) build/sdcc/pr   12-5-2016  17:29:30         PAGE 31


LOC    OBJECT CODE    LINE  SOURCE TEXT
  VALUE

0001DE CFE4 F000      01419         MOVFF   PREINC1, r0x01
0001E2 CFE4 F000      01420         MOVFF   PREINC1, r0x00
0001E6 CFE4 FFD9      01421         MOVFF   PREINC1, FSR2L
0001EA 0012           01422         RETURN  
                      01423 
                      01424 ; ; Starting pCode block
                      01425 S_RF24_c__RF24_setAddressWidth  code
000000                01426 _RF24_setAddressWidth:
                      01427         .line   1220; ../../../RF24_c/RF24_c.c  void RF24_setAddressWidth(uint8_t a_width){
000000 CFD9 FFE5      01428         MOVFF   FSR2L, POSTDEC1
000004 CFE1 FFD9      01429         MOVFF   FSR1L, FSR2L
000008 C??? F???      01430         MOVFF   r0x00, POSTDEC1
00000C C??? F???      01431         MOVFF   r0x01, POSTDEC1
000010 0E02           01432         MOVLW   0x02
000012 CFDB F000      01433         MOVFF   PLUSW2, r0x00
                      01434         .line   1222; ../../../RF24_c/RF24_c.c  if(a_width -= 2){
000016 0EFE           01435         MOVLW   0xfe
000018 24??           01436         ADDWF   r0x00, W
Message[1301]: Using default destination of 0 (Access Bank).
00001A 6E??           01437         MOVWF   r0x01
00001C C??? F???      01438         MOVFF   r0x01, r0x00
000020 50??           01439         MOVF    r0x01, W
000022 E0??           01440         BZ      _00675_DS_
                      01441         .line   1223; ../../../RF24_c/RF24_c.c  RF24_write_register_d(SETUP_AW,a_width%4);
000024 0E03           01442         MOVLW   0x03
000026 16??           01443         ANDWF   r0x00, F
000028 50??           01444         MOVF    r0x00, W
Message[1301]: Using default destination of 0 (Access Bank).
00002A 6EE5           01445         MOVWF   POSTDEC1
00002C 0E03           01446         MOVLW   0x03
Message[1301]: Using default destination of 0 (Access Bank).
00002E 6EE5           01447         MOVWF   POSTDEC1
000030 EC?? F0??      01448         CALL    _RF24_write_register_d
000034 52E6           01449         MOVF    POSTINC1, F
000036 52E6           01450         MOVF    POSTINC1, F
                      01451         .line   1224; ../../../RF24_c/RF24_c.c  rf.addr_width = (a_width%4) + 2;
000038 2A??           01452         INCF    r0x00, F
00003A 2A??           01453         INCF    r0x00, F
00003C 50??           01454         MOVF    r0x00, W
00003E ????           01455         BANKSEL (_rf + 12)
000040 6F??           01456         MOVWF   (_rf + 12), B
000042                01457 _00675_DS_:
000042 CFE4 F000      01458         MOVFF   PREINC1, r0x01
000046 CFE4 F000      01459         MOVFF   PREINC1, r0x00
00004A CFE4 FFD9      01460         MOVFF   PREINC1, FSR2L
00004E 0012           01461         RETURN  
                      01462 
                      01463 ; ; Starting pCode block
                      01464 S_RF24_c__RF24_openReadingPipe_d        code
000000                01465 _RF24_openReadingPipe_d:
                      01466         .line   1187; ../../../RF24_c/RF24_c.c  void RF24_openReadingPipe_d(uint8_t child, const raddr_t
                            * address_)
000000 CFD9 FFE5      01467         MOVFF   FSR2L, POSTDEC1
gpasm-1.4.0 #1107 (May  9 2015) build/sdcc/pr   12-5-2016  17:29:30         PAGE 32


LOC    OBJECT CODE    LINE  SOURCE TEXT
  VALUE

000004 CFE1 FFD9      01468         MOVFF   FSR1L, FSR2L
000008 C??? F???      01469         MOVFF   r0x00, POSTDEC1
00000C C??? F???      01470         MOVFF   r0x01, POSTDEC1
000010 C??? F???      01471         MOVFF   r0x02, POSTDEC1
000014 C??? F???      01472         MOVFF   r0x03, POSTDEC1
000018 C??? F???      01473         MOVFF   r0x04, POSTDEC1
00001C C??? F???      01474         MOVFF   r0x05, POSTDEC1
000020 C??? F???      01475         MOVFF   r0x06, POSTDEC1
000024 C??? F???      01476         MOVFF   r0x07, POSTDEC1
000028 C??? F???      01477         MOVFF   r0x08, POSTDEC1
00002C C??? F???      01478         MOVFF   r0x09, POSTDEC1
000030 0E02           01479         MOVLW   0x02
000032 CFDB F000      01480         MOVFF   PLUSW2, r0x00
000036 0E03           01481         MOVLW   0x03
000038 CFDB F000      01482         MOVFF   PLUSW2, r0x01
00003C 0E04           01483         MOVLW   0x04
00003E CFDB F000      01484         MOVFF   PLUSW2, r0x02
000042 0E05           01485         MOVLW   0x05
000044 CFDB F000      01486         MOVFF   PLUSW2, r0x03
                      01487         .line   1191; ../../../RF24_c/RF24_c.c  for(i=0;i<5;i++)
Message[1301]: Using default destination of 0 (Access Bank).
000048 6A??           01488         CLRF    r0x04
00004A                01489 _00644_DS_:
                      01490         .line   1193; ../../../RF24_c/RF24_c.c  address[i]=address_[4-i];
00004A 0E??           01491         MOVLW   LOW(_RF24_openReadingPipe_d_address_1_254)
00004C 24??           01492         ADDWF   r0x04, W
Message[1301]: Using default destination of 0 (Access Bank).
00004E 6E??           01493         MOVWF   r0x05
Message[1301]: Using default destination of 0 (Access Bank).
000050 6A??           01494         CLRF    r0x06
000052 0E??           01495         MOVLW   HIGH(_RF24_openReadingPipe_d_address_1_254)
000054 22??           01496         ADDWFC  r0x06, F
000056 C??? F???      01497         MOVFF   r0x04, r0x07
Message[1301]: Using default destination of 0 (Access Bank).
00005A 6A??           01498         CLRF    r0x08
00005C 50??           01499         MOVF    r0x07, W
00005E 0804           01500         SUBLW   0x04
Message[1301]: Using default destination of 0 (Access Bank).
000060 6E??           01501         MOVWF   r0x07
000062 0E00           01502         MOVLW   0x00
000064 56??           01503         SUBFWB  r0x08, F
Message[1301]: Using default destination of 0 (Access Bank).
000066 6A??           01504         CLRF    r0x09
000068 BE??           01505         BTFSC   r0x08, 7
Message[1301]: Using default destination of 0 (Access Bank).
00006A 68??           01506         SETF    r0x09
00006C 50??           01507         MOVF    r0x01, W
00006E 26??           01508         ADDWF   r0x07, F
000070 50??           01509         MOVF    r0x02, W
000072 22??           01510         ADDWFC  r0x08, F
000074 50??           01511         MOVF    r0x03, W
000076 22??           01512         ADDWFC  r0x09, F
000078 C??? F???      01513         MOVFF   r0x07, FSR0L
gpasm-1.4.0 #1107 (May  9 2015) build/sdcc/pr   12-5-2016  17:29:30         PAGE 33


LOC    OBJECT CODE    LINE  SOURCE TEXT
  VALUE

00007C C??? F???      01514         MOVFF   r0x08, PRODL
000080 50??           01515         MOVF    r0x09, W
000082 EC?? F0??      01516         CALL    __gptrget1
Message[1301]: Using default destination of 0 (Access Bank).
000086 6E??           01517         MOVWF   r0x07
000088 C??? F???      01518         MOVFF   r0x05, FSR0L
00008C C??? F???      01519         MOVFF   r0x06, FSR0H
000090 C??? F???      01520         MOVFF   r0x07, INDF0
                      01521         .line   1191; ../../../RF24_c/RF24_c.c  for(i=0;i<5;i++)
000094 2A??           01522         INCF    r0x04, F
000096 0E05           01523         MOVLW   0x05
000098 5C??           01524         SUBWF   r0x04, W
00009A E3??           01525         BNC     _00644_DS_
                      01526         .line   1198; ../../../RF24_c/RF24_c.c  if (child == 0){
00009C 50??           01527         MOVF    r0x00, W
00009E E1??           01528         BNZ     _00638_DS_
                      01529         .line   1199; ../../../RF24_c/RF24_c.c  memcpy(rf.pipe0_reading_address,address,rf.addr_width);
0000A0 0E??           01530         MOVLW   HIGH(_rf + 7)
Message[1301]: Using default destination of 0 (Access Bank).
0000A2 6E??           01531         MOVWF   r0x02
0000A4 0E??           01532         MOVLW   LOW(_rf + 7)
Message[1301]: Using default destination of 0 (Access Bank).
0000A6 6E??           01533         MOVWF   r0x01
0000A8 0E80           01534         MOVLW   0x80
Message[1301]: Using default destination of 0 (Access Bank).
0000AA 6E??           01535         MOVWF   r0x03
0000AC 0E??           01536         MOVLW   HIGH(_RF24_openReadingPipe_d_address_1_254)
Message[1301]: Using default destination of 0 (Access Bank).
0000AE 6E??           01537         MOVWF   r0x05
0000B0 0E??           01538         MOVLW   LOW(_RF24_openReadingPipe_d_address_1_254)
Message[1301]: Using default destination of 0 (Access Bank).
0000B2 6E??           01539         MOVWF   r0x04
0000B4 0E80           01540         MOVLW   0x80
Message[1301]: Using default destination of 0 (Access Bank).
0000B6 6E??           01541         MOVWF   r0x06
0000B8 C??? F???      01542         MOVFF   (_rf + 12), r0x07
Message[1301]: Using default destination of 0 (Access Bank).
0000BC 6A??           01543         CLRF    r0x08
0000BE 50??           01544         MOVF    r0x08, W
Message[1301]: Using default destination of 0 (Access Bank).
0000C0 6EE5           01545         MOVWF   POSTDEC1
0000C2 50??           01546         MOVF    r0x07, W
Message[1301]: Using default destination of 0 (Access Bank).
0000C4 6EE5           01547         MOVWF   POSTDEC1
0000C6 50??           01548         MOVF    r0x06, W
Message[1301]: Using default destination of 0 (Access Bank).
0000C8 6EE5           01549         MOVWF   POSTDEC1
0000CA 50??           01550         MOVF    r0x05, W
Message[1301]: Using default destination of 0 (Access Bank).
0000CC 6EE5           01551         MOVWF   POSTDEC1
0000CE 50??           01552         MOVF    r0x04, W
Message[1301]: Using default destination of 0 (Access Bank).
0000D0 6EE5           01553         MOVWF   POSTDEC1
gpasm-1.4.0 #1107 (May  9 2015) build/sdcc/pr   12-5-2016  17:29:30         PAGE 34


LOC    OBJECT CODE    LINE  SOURCE TEXT
  VALUE

0000D2 50??           01554         MOVF    r0x03, W
Message[1301]: Using default destination of 0 (Access Bank).
0000D4 6EE5           01555         MOVWF   POSTDEC1
0000D6 50??           01556         MOVF    r0x02, W
Message[1301]: Using default destination of 0 (Access Bank).
0000D8 6EE5           01557         MOVWF   POSTDEC1
0000DA 50??           01558         MOVF    r0x01, W
Message[1301]: Using default destination of 0 (Access Bank).
0000DC 6EE5           01559         MOVWF   POSTDEC1
0000DE EC?? F0??      01560         CALL    _memcpy
0000E2 0E08           01561         MOVLW   0x08
0000E4 26E1           01562         ADDWF   FSR1L, F
0000E6                01563 _00638_DS_:
                      01564         .line   1202; ../../../RF24_c/RF24_c.c  if (child <= 6)
0000E6 0E07           01565         MOVLW   0x07
0000E8 5C??           01566         SUBWF   r0x00, W
0000EA B0D8           01567         BTFSC   STATUS, 0
0000EC D???           01568         BRA     _00646_DS_
                      01569         .line   1205; ../../../RF24_c/RF24_c.c  if ( child < 2 )
0000EE 0E02           01570         MOVLW   0x02
0000F0 5C??           01571         SUBWF   r0x00, W
0000F2 E2??           01572         BC      _00640_DS_
                      01573         .line   1206; ../../../RF24_c/RF24_c.c  RF24_write_register_c_d(pgm_read_byte(&child_pipe[child]
                            ), (const uint8_t*)(address), rf.addr_width);
0000F4 0E??           01574         MOVLW   LOW(_child_pipe)
0000F6 24??           01575         ADDWF   r0x00, W
Message[1301]: Using default destination of 0 (Access Bank).
0000F8 6E??           01576         MOVWF   r0x01
Message[1301]: Using default destination of 0 (Access Bank).
0000FA 6A??           01577         CLRF    r0x02
0000FC 0E??           01578         MOVLW   HIGH(_child_pipe)
0000FE 22??           01579         ADDWFC  r0x02, F
Message[1301]: Using default destination of 0 (Access Bank).
000100 6A??           01580         CLRF    r0x03
000102 0E??           01581         MOVLW   UPPER(_child_pipe)
000104 22??           01582         ADDWFC  r0x03, F
000106 C??? F???      01583         MOVFF   r0x01, TBLPTRL
00010A C??? F???      01584         MOVFF   r0x02, TBLPTRH
00010E C??? F???      01585         MOVFF   r0x03, TBLPTRU
000112 0009           01586         TBLRD*+ 
000114 CFF5 F000      01587         MOVFF   TABLAT, r0x01
000118 0E??           01588         MOVLW   HIGH(_RF24_openReadingPipe_d_address_1_254)
Message[1301]: Using default destination of 0 (Access Bank).
00011A 6E??           01589         MOVWF   r0x03
00011C 0E??           01590         MOVLW   LOW(_RF24_openReadingPipe_d_address_1_254)
Message[1301]: Using default destination of 0 (Access Bank).
00011E 6E??           01591         MOVWF   r0x02
000120 0E80           01592         MOVLW   0x80
Message[1301]: Using default destination of 0 (Access Bank).
000122 6E??           01593         MOVWF   r0x04
000124 ????           01594         BANKSEL (_rf + 12)
000126 51??           01595         MOVF    (_rf + 12), W, B
Message[1301]: Using default destination of 0 (Access Bank).
gpasm-1.4.0 #1107 (May  9 2015) build/sdcc/pr   12-5-2016  17:29:30         PAGE 35


LOC    OBJECT CODE    LINE  SOURCE TEXT
  VALUE

000128 6EE5           01596         MOVWF   POSTDEC1
00012A 50??           01597         MOVF    r0x04, W
Message[1301]: Using default destination of 0 (Access Bank).
00012C 6EE5           01598         MOVWF   POSTDEC1
00012E 50??           01599         MOVF    r0x03, W
Message[1301]: Using default destination of 0 (Access Bank).
000130 6EE5           01600         MOVWF   POSTDEC1
000132 50??           01601         MOVF    r0x02, W
Message[1301]: Using default destination of 0 (Access Bank).
000134 6EE5           01602         MOVWF   POSTDEC1
000136 50??           01603         MOVF    r0x01, W
Message[1301]: Using default destination of 0 (Access Bank).
000138 6EE5           01604         MOVWF   POSTDEC1
00013A EC?? F0??      01605         CALL    _RF24_write_register_c_d
00013E 0E05           01606         MOVLW   0x05
000140 26E1           01607         ADDWF   FSR1L, F
000142 D???           01608         BRA     _00641_DS_
000144                01609 _00640_DS_:
                      01610         .line   1208; ../../../RF24_c/RF24_c.c  RF24_write_register_c_d(pgm_read_byte(&child_pipe[child]
                            ), (const uint8_t*)(address), 1);
000144 0E??           01611         MOVLW   LOW(_child_pipe)
000146 24??           01612         ADDWF   r0x00, W
Message[1301]: Using default destination of 0 (Access Bank).
000148 6E??           01613         MOVWF   r0x01
Message[1301]: Using default destination of 0 (Access Bank).
00014A 6A??           01614         CLRF    r0x02
00014C 0E??           01615         MOVLW   HIGH(_child_pipe)
00014E 22??           01616         ADDWFC  r0x02, F
Message[1301]: Using default destination of 0 (Access Bank).
000150 6A??           01617         CLRF    r0x03
000152 0E??           01618         MOVLW   UPPER(_child_pipe)
000154 22??           01619         ADDWFC  r0x03, F
000156 C??? F???      01620         MOVFF   r0x01, TBLPTRL
00015A C??? F???      01621         MOVFF   r0x02, TBLPTRH
00015E C??? F???      01622         MOVFF   r0x03, TBLPTRU
000162 0009           01623         TBLRD*+ 
000164 CFF5 F000      01624         MOVFF   TABLAT, r0x01
000168 0E??           01625         MOVLW   HIGH(_RF24_openReadingPipe_d_address_1_254)
Message[1301]: Using default destination of 0 (Access Bank).
00016A 6E??           01626         MOVWF   r0x03
00016C 0E??           01627         MOVLW   LOW(_RF24_openReadingPipe_d_address_1_254)
Message[1301]: Using default destination of 0 (Access Bank).
00016E 6E??           01628         MOVWF   r0x02
000170 0E80           01629         MOVLW   0x80
Message[1301]: Using default destination of 0 (Access Bank).
000172 6E??           01630         MOVWF   r0x04
000174 0E01           01631         MOVLW   0x01
Message[1301]: Using default destination of 0 (Access Bank).
000176 6EE5           01632         MOVWF   POSTDEC1
000178 50??           01633         MOVF    r0x04, W
Message[1301]: Using default destination of 0 (Access Bank).
00017A 6EE5           01634         MOVWF   POSTDEC1
00017C 50??           01635         MOVF    r0x03, W
gpasm-1.4.0 #1107 (May  9 2015) build/sdcc/pr   12-5-2016  17:29:30         PAGE 36


LOC    OBJECT CODE    LINE  SOURCE TEXT
  VALUE

Message[1301]: Using default destination of 0 (Access Bank).
00017E 6EE5           01636         MOVWF   POSTDEC1
000180 50??           01637         MOVF    r0x02, W
Message[1301]: Using default destination of 0 (Access Bank).
000182 6EE5           01638         MOVWF   POSTDEC1
000184 50??           01639         MOVF    r0x01, W
Message[1301]: Using default destination of 0 (Access Bank).
000186 6EE5           01640         MOVWF   POSTDEC1
000188 EC?? F0??      01641         CALL    _RF24_write_register_c_d
00018C 0E05           01642         MOVLW   0x05
00018E 26E1           01643         ADDWF   FSR1L, F
000190                01644 _00641_DS_:
                      01645         .line   1210; ../../../RF24_c/RF24_c.c  RF24_write_register_d(pgm_read_byte(&child_payload_size[
                            child]),rf.payload_size);
000190 0E??           01646         MOVLW   LOW(_child_payload_size)
000192 24??           01647         ADDWF   r0x00, W
Message[1301]: Using default destination of 0 (Access Bank).
000194 6E??           01648         MOVWF   r0x01
Message[1301]: Using default destination of 0 (Access Bank).
000196 6A??           01649         CLRF    r0x02
000198 0E??           01650         MOVLW   HIGH(_child_payload_size)
00019A 22??           01651         ADDWFC  r0x02, F
Message[1301]: Using default destination of 0 (Access Bank).
00019C 6A??           01652         CLRF    r0x03
00019E 0E??           01653         MOVLW   UPPER(_child_payload_size)
0001A0 22??           01654         ADDWFC  r0x03, F
0001A2 C??? F???      01655         MOVFF   r0x01, TBLPTRL
0001A6 C??? F???      01656         MOVFF   r0x02, TBLPTRH
0001AA C??? F???      01657         MOVFF   r0x03, TBLPTRU
0001AE 0009           01658         TBLRD*+ 
0001B0 CFF5 F000      01659         MOVFF   TABLAT, r0x01
0001B4 ????           01660         BANKSEL (_rf + 5)
0001B6 51??           01661         MOVF    (_rf + 5), W, B
Message[1301]: Using default destination of 0 (Access Bank).
0001B8 6EE5           01662         MOVWF   POSTDEC1
0001BA 50??           01663         MOVF    r0x01, W
Message[1301]: Using default destination of 0 (Access Bank).
0001BC 6EE5           01664         MOVWF   POSTDEC1
0001BE EC?? F0??      01665         CALL    _RF24_write_register_d
0001C2 52E6           01666         MOVF    POSTINC1, F
0001C4 52E6           01667         MOVF    POSTINC1, F
                      01668         .line   1215; ../../../RF24_c/RF24_c.c  RF24_write_register_d(EN_RXADDR,RF24_read_register_d(EN_
                            RXADDR) | _BV(pgm_read_byte(&child_pipe_enable[child])));
0001C6 0E02           01669         MOVLW   0x02
Message[1301]: Using default destination of 0 (Access Bank).
0001C8 6EE5           01670         MOVWF   POSTDEC1
0001CA EC?? F0??      01671         CALL    _RF24_read_register_d
Message[1301]: Using default destination of 0 (Access Bank).
0001CE 6E??           01672         MOVWF   r0x01
0001D0 52E6           01673         MOVF    POSTINC1, F
Message[1301]: Using default destination of 0 (Access Bank).
0001D2 6A??           01674         CLRF    r0x02
Message[1301]: Using default destination of 0 (Access Bank).
gpasm-1.4.0 #1107 (May  9 2015) build/sdcc/pr   12-5-2016  17:29:30         PAGE 37


LOC    OBJECT CODE    LINE  SOURCE TEXT
  VALUE

0001D4 6A??           01675         CLRF    r0x03
0001D6 0E??           01676         MOVLW   LOW(_child_pipe_enable)
0001D8 26??           01677         ADDWF   r0x00, F
0001DA 0E??           01678         MOVLW   HIGH(_child_pipe_enable)
0001DC 22??           01679         ADDWFC  r0x02, F
0001DE 0E??           01680         MOVLW   UPPER(_child_pipe_enable)
0001E0 22??           01681         ADDWFC  r0x03, F
0001E2 C??? F???      01682         MOVFF   r0x00, TBLPTRL
0001E6 C??? F???      01683         MOVFF   r0x02, TBLPTRH
0001EA C??? F???      01684         MOVFF   r0x03, TBLPTRU
0001EE 0009           01685         TBLRD*+ 
0001F0 CFF5 F000      01686         MOVFF   TABLAT, r0x00
0001F4 0E01           01687         MOVLW   0x01
Message[1301]: Using default destination of 0 (Access Bank).
0001F6 6E??           01688         MOVWF   r0x02
0001F8 50??           01689         MOVF    r0x00, W
0001FA E0??           01690         BZ      _00667_DS_
Message[1301]: Using default destination of 0 (Access Bank).
0001FC 6CE8           01691         NEGF    WREG
0001FE 90D8           01692         BCF     STATUS, 0
000200                01693 _00668_DS_:
000200 36??           01694         RLCF    r0x02, F
000202 0F01           01695         ADDLW   0x01
000204 E3??           01696         BNC     _00668_DS_
000206                01697 _00667_DS_:
000206 50??           01698         MOVF    r0x02, W
000208 12??           01699         IORWF   r0x01, F
00020A 50??           01700         MOVF    r0x01, W
Message[1301]: Using default destination of 0 (Access Bank).
00020C 6EE5           01701         MOVWF   POSTDEC1
00020E 0E02           01702         MOVLW   0x02
Message[1301]: Using default destination of 0 (Access Bank).
000210 6EE5           01703         MOVWF   POSTDEC1
000212 EC?? F0??      01704         CALL    _RF24_write_register_d
000216 52E6           01705         MOVF    POSTINC1, F
000218 52E6           01706         MOVF    POSTINC1, F
00021A                01707 _00646_DS_:
00021A CFE4 F000      01708         MOVFF   PREINC1, r0x09
00021E CFE4 F000      01709         MOVFF   PREINC1, r0x08
000222 CFE4 F000      01710         MOVFF   PREINC1, r0x07
000226 CFE4 F000      01711         MOVFF   PREINC1, r0x06
00022A CFE4 F000      01712         MOVFF   PREINC1, r0x05
00022E CFE4 F000      01713         MOVFF   PREINC1, r0x04
000232 CFE4 F000      01714         MOVFF   PREINC1, r0x03
000236 CFE4 F000      01715         MOVFF   PREINC1, r0x02
00023A CFE4 F000      01716         MOVFF   PREINC1, r0x01
00023E CFE4 F000      01717         MOVFF   PREINC1, r0x00
000242 CFE4 FFD9      01718         MOVFF   PREINC1, FSR2L
000246 0012           01719         RETURN  
                      01720 
                      01721 ; ; Starting pCode block
                      01722 S_RF24_c__RF24_openWritingPipe  code
000000                01723 _RF24_openWritingPipe:
gpasm-1.4.0 #1107 (May  9 2015) build/sdcc/pr   12-5-2016  17:29:30         PAGE 38


LOC    OBJECT CODE    LINE  SOURCE TEXT
  VALUE

                      01724         .line   1163; ../../../RF24_c/RF24_c.c  void RF24_openWritingPipe(const uint8_t *address)
000000 CFD9 FFE5      01725         MOVFF   FSR2L, POSTDEC1
000004 CFE1 FFD9      01726         MOVFF   FSR1L, FSR2L
000008 C??? F???      01727         MOVFF   r0x00, POSTDEC1
00000C C??? F???      01728         MOVFF   r0x01, POSTDEC1
000010 C??? F???      01729         MOVFF   r0x02, POSTDEC1
000014 0E02           01730         MOVLW   0x02
000016 CFDB F000      01731         MOVFF   PLUSW2, r0x00
00001A 0E03           01732         MOVLW   0x03
00001C CFDB F000      01733         MOVFF   PLUSW2, r0x01
000020 0E04           01734         MOVLW   0x04
000022 CFDB F000      01735         MOVFF   PLUSW2, r0x02
000026 ????           01736         BANKSEL (_rf + 12)
                      01737         .line   1168; ../../../RF24_c/RF24_c.c  RF24_write_register_c_d(RX_ADDR_P0,address, rf.addr_widt
                            h);
000028 51??           01738         MOVF    (_rf + 12), W, B
Message[1301]: Using default destination of 0 (Access Bank).
00002A 6EE5           01739         MOVWF   POSTDEC1
00002C 50??           01740         MOVF    r0x02, W
Message[1301]: Using default destination of 0 (Access Bank).
00002E 6EE5           01741         MOVWF   POSTDEC1
000030 50??           01742         MOVF    r0x01, W
Message[1301]: Using default destination of 0 (Access Bank).
000032 6EE5           01743         MOVWF   POSTDEC1
000034 50??           01744         MOVF    r0x00, W
Message[1301]: Using default destination of 0 (Access Bank).
000036 6EE5           01745         MOVWF   POSTDEC1
000038 0E0A           01746         MOVLW   0x0a
Message[1301]: Using default destination of 0 (Access Bank).
00003A 6EE5           01747         MOVWF   POSTDEC1
00003C EC?? F0??      01748         CALL    _RF24_write_register_c_d
000040 0E05           01749         MOVLW   0x05
000042 26E1           01750         ADDWF   FSR1L, F
000044 ????           01751         BANKSEL (_rf + 12)
                      01752         .line   1169; ../../../RF24_c/RF24_c.c  RF24_write_register_c_d(TX_ADDR, address, rf.addr_width)
                            ;
000046 51??           01753         MOVF    (_rf + 12), W, B
Message[1301]: Using default destination of 0 (Access Bank).
000048 6EE5           01754         MOVWF   POSTDEC1
00004A 50??           01755         MOVF    r0x02, W
Message[1301]: Using default destination of 0 (Access Bank).
00004C 6EE5           01756         MOVWF   POSTDEC1
00004E 50??           01757         MOVF    r0x01, W
Message[1301]: Using default destination of 0 (Access Bank).
000050 6EE5           01758         MOVWF   POSTDEC1
000052 50??           01759         MOVF    r0x00, W
Message[1301]: Using default destination of 0 (Access Bank).
000054 6EE5           01760         MOVWF   POSTDEC1
000056 0E10           01761         MOVLW   0x10
Message[1301]: Using default destination of 0 (Access Bank).
000058 6EE5           01762         MOVWF   POSTDEC1
00005A EC?? F0??      01763         CALL    _RF24_write_register_c_d
00005E 0E05           01764         MOVLW   0x05
gpasm-1.4.0 #1107 (May  9 2015) build/sdcc/pr   12-5-2016  17:29:30         PAGE 39


LOC    OBJECT CODE    LINE  SOURCE TEXT
  VALUE

000060 26E1           01765         ADDWF   FSR1L, F
000062 ????           01766         BANKSEL (_rf + 5)
                      01767         .line   1173; ../../../RF24_c/RF24_c.c  RF24_write_register_d(RX_PW_P0,rf.payload_size);
000064 51??           01768         MOVF    (_rf + 5), W, B
Message[1301]: Using default destination of 0 (Access Bank).
000066 6EE5           01769         MOVWF   POSTDEC1
000068 0E11           01770         MOVLW   0x11
Message[1301]: Using default destination of 0 (Access Bank).
00006A 6EE5           01771         MOVWF   POSTDEC1
00006C EC?? F0??      01772         CALL    _RF24_write_register_d
000070 52E6           01773         MOVF    POSTINC1, F
000072 52E6           01774         MOVF    POSTINC1, F
000074 CFE4 F000      01775         MOVFF   PREINC1, r0x02
000078 CFE4 F000      01776         MOVFF   PREINC1, r0x01
00007C CFE4 F000      01777         MOVFF   PREINC1, r0x00
000080 CFE4 FFD9      01778         MOVFF   PREINC1, FSR2L
000084 0012           01779         RETURN  
                      01780 
                      01781 ; ; Starting pCode block
                      01782 S_RF24_c__RF24_openWritingPipe_d        code
000000                01783 _RF24_openWritingPipe_d:
                      01784         .line   1144; ../../../RF24_c/RF24_c.c  void RF24_openWritingPipe_d(const raddr_t*  value_)
000000 CFD9 FFE5      01785         MOVFF   FSR2L, POSTDEC1
000004 CFE1 FFD9      01786         MOVFF   FSR1L, FSR2L
000008 C??? F???      01787         MOVFF   r0x00, POSTDEC1
00000C C??? F???      01788         MOVFF   r0x01, POSTDEC1
000010 C??? F???      01789         MOVFF   r0x02, POSTDEC1
000014 C??? F???      01790         MOVFF   r0x03, POSTDEC1
000018 C??? F???      01791         MOVFF   r0x04, POSTDEC1
00001C C??? F???      01792         MOVFF   r0x05, POSTDEC1
000020 C??? F???      01793         MOVFF   r0x06, POSTDEC1
000024 C??? F???      01794         MOVFF   r0x07, POSTDEC1
000028 C??? F???      01795         MOVFF   r0x08, POSTDEC1
00002C 0E02           01796         MOVLW   0x02
00002E CFDB F000      01797         MOVFF   PLUSW2, r0x00
000032 0E03           01798         MOVLW   0x03
000034 CFDB F000      01799         MOVFF   PLUSW2, r0x01
000038 0E04           01800         MOVLW   0x04
00003A CFDB F000      01801         MOVFF   PLUSW2, r0x02
                      01802         .line   1148; ../../../RF24_c/RF24_c.c  for(i=0;i<5;i++)
Message[1301]: Using default destination of 0 (Access Bank).
00003E 6A??           01803         CLRF    r0x03
000040                01804 _00615_DS_:
                      01805         .line   1150; ../../../RF24_c/RF24_c.c  value[i]=value_[4-i];
000040 0E??           01806         MOVLW   LOW(_RF24_openWritingPipe_d_value_1_249)
000042 24??           01807         ADDWF   r0x03, W
Message[1301]: Using default destination of 0 (Access Bank).
000044 6E??           01808         MOVWF   r0x04
Message[1301]: Using default destination of 0 (Access Bank).
000046 6A??           01809         CLRF    r0x05
000048 0E??           01810         MOVLW   HIGH(_RF24_openWritingPipe_d_value_1_249)
00004A 22??           01811         ADDWFC  r0x05, F
00004C C??? F???      01812         MOVFF   r0x03, r0x06
gpasm-1.4.0 #1107 (May  9 2015) build/sdcc/pr   12-5-2016  17:29:30         PAGE 40


LOC    OBJECT CODE    LINE  SOURCE TEXT
  VALUE

Message[1301]: Using default destination of 0 (Access Bank).
000050 6A??           01813         CLRF    r0x07
000052 50??           01814         MOVF    r0x06, W
000054 0804           01815         SUBLW   0x04
Message[1301]: Using default destination of 0 (Access Bank).
000056 6E??           01816         MOVWF   r0x06
000058 0E00           01817         MOVLW   0x00
00005A 56??           01818         SUBFWB  r0x07, F
Message[1301]: Using default destination of 0 (Access Bank).
00005C 6A??           01819         CLRF    r0x08
00005E BE??           01820         BTFSC   r0x07, 7
Message[1301]: Using default destination of 0 (Access Bank).
000060 68??           01821         SETF    r0x08
000062 50??           01822         MOVF    r0x00, W
000064 26??           01823         ADDWF   r0x06, F
000066 50??           01824         MOVF    r0x01, W
000068 22??           01825         ADDWFC  r0x07, F
00006A 50??           01826         MOVF    r0x02, W
00006C 22??           01827         ADDWFC  r0x08, F
00006E C??? F???      01828         MOVFF   r0x06, FSR0L
000072 C??? F???      01829         MOVFF   r0x07, PRODL
000076 50??           01830         MOVF    r0x08, W
000078 EC?? F0??      01831         CALL    __gptrget1
Message[1301]: Using default destination of 0 (Access Bank).
00007C 6E??           01832         MOVWF   r0x06
00007E C??? F???      01833         MOVFF   r0x04, FSR0L
000082 C??? F???      01834         MOVFF   r0x05, FSR0H
000086 C??? F???      01835         MOVFF   r0x06, INDF0
                      01836         .line   1148; ../../../RF24_c/RF24_c.c  for(i=0;i<5;i++)
00008A 2A??           01837         INCF    r0x03, F
00008C 0E05           01838         MOVLW   0x05
00008E 5C??           01839         SUBWF   r0x03, W
000090 E3??           01840         BNC     _00615_DS_
                      01841         .line   1153; ../../../RF24_c/RF24_c.c  RF24_write_register_c_d(RX_ADDR_P0, ((uint8_t*)(value)),
                             rf.addr_width);
000092 0E??           01842         MOVLW   HIGH(_RF24_openWritingPipe_d_value_1_249)
Message[1301]: Using default destination of 0 (Access Bank).
000094 6E??           01843         MOVWF   r0x01
000096 0E??           01844         MOVLW   LOW(_RF24_openWritingPipe_d_value_1_249)
Message[1301]: Using default destination of 0 (Access Bank).
000098 6E??           01845         MOVWF   r0x00
00009A 0E80           01846         MOVLW   0x80
Message[1301]: Using default destination of 0 (Access Bank).
00009C 6E??           01847         MOVWF   r0x02
00009E ????           01848         BANKSEL (_rf + 12)
0000A0 51??           01849         MOVF    (_rf + 12), W, B
Message[1301]: Using default destination of 0 (Access Bank).
0000A2 6EE5           01850         MOVWF   POSTDEC1
0000A4 50??           01851         MOVF    r0x02, W
Message[1301]: Using default destination of 0 (Access Bank).
0000A6 6EE5           01852         MOVWF   POSTDEC1
0000A8 50??           01853         MOVF    r0x01, W
Message[1301]: Using default destination of 0 (Access Bank).
gpasm-1.4.0 #1107 (May  9 2015) build/sdcc/pr   12-5-2016  17:29:30         PAGE 41


LOC    OBJECT CODE    LINE  SOURCE TEXT
  VALUE

0000AA 6EE5           01854         MOVWF   POSTDEC1
0000AC 50??           01855         MOVF    r0x00, W
Message[1301]: Using default destination of 0 (Access Bank).
0000AE 6EE5           01856         MOVWF   POSTDEC1
0000B0 0E0A           01857         MOVLW   0x0a
Message[1301]: Using default destination of 0 (Access Bank).
0000B2 6EE5           01858         MOVWF   POSTDEC1
0000B4 EC?? F0??      01859         CALL    _RF24_write_register_c_d
0000B8 0E05           01860         MOVLW   0x05
0000BA 26E1           01861         ADDWF   FSR1L, F
                      01862         .line   1154; ../../../RF24_c/RF24_c.c  RF24_write_register_c_d(TX_ADDR, ((uint8_t*)(value)), rf
                            .addr_width);
0000BC 0E??           01863         MOVLW   HIGH(_RF24_openWritingPipe_d_value_1_249)
Message[1301]: Using default destination of 0 (Access Bank).
0000BE 6E??           01864         MOVWF   r0x01
0000C0 0E??           01865         MOVLW   LOW(_RF24_openWritingPipe_d_value_1_249)
Message[1301]: Using default destination of 0 (Access Bank).
0000C2 6E??           01866         MOVWF   r0x00
0000C4 0E80           01867         MOVLW   0x80
Message[1301]: Using default destination of 0 (Access Bank).
0000C6 6E??           01868         MOVWF   r0x02
0000C8 ????           01869         BANKSEL (_rf + 12)
0000CA 51??           01870         MOVF    (_rf + 12), W, B
Message[1301]: Using default destination of 0 (Access Bank).
0000CC 6EE5           01871         MOVWF   POSTDEC1
0000CE 50??           01872         MOVF    r0x02, W
Message[1301]: Using default destination of 0 (Access Bank).
0000D0 6EE5           01873         MOVWF   POSTDEC1
0000D2 50??           01874         MOVF    r0x01, W
Message[1301]: Using default destination of 0 (Access Bank).
0000D4 6EE5           01875         MOVWF   POSTDEC1
0000D6 50??           01876         MOVF    r0x00, W
Message[1301]: Using default destination of 0 (Access Bank).
0000D8 6EE5           01877         MOVWF   POSTDEC1
0000DA 0E10           01878         MOVLW   0x10
Message[1301]: Using default destination of 0 (Access Bank).
0000DC 6EE5           01879         MOVWF   POSTDEC1
0000DE EC?? F0??      01880         CALL    _RF24_write_register_c_d
0000E2 0E05           01881         MOVLW   0x05
0000E4 26E1           01882         ADDWF   FSR1L, F
0000E6 ????           01883         BANKSEL (_rf + 5)
                      01884         .line   1159; ../../../RF24_c/RF24_c.c  RF24_write_register_d(RX_PW_P0,rf.payload_size);
0000E8 51??           01885         MOVF    (_rf + 5), W, B
Message[1301]: Using default destination of 0 (Access Bank).
0000EA 6EE5           01886         MOVWF   POSTDEC1
0000EC 0E11           01887         MOVLW   0x11
Message[1301]: Using default destination of 0 (Access Bank).
0000EE 6EE5           01888         MOVWF   POSTDEC1
0000F0 EC?? F0??      01889         CALL    _RF24_write_register_d
0000F4 52E6           01890         MOVF    POSTINC1, F
0000F6 52E6           01891         MOVF    POSTINC1, F
0000F8 CFE4 F000      01892         MOVFF   PREINC1, r0x08
0000FC CFE4 F000      01893         MOVFF   PREINC1, r0x07
gpasm-1.4.0 #1107 (May  9 2015) build/sdcc/pr   12-5-2016  17:29:30         PAGE 42


LOC    OBJECT CODE    LINE  SOURCE TEXT
  VALUE

000100 CFE4 F000      01894         MOVFF   PREINC1, r0x06
000104 CFE4 F000      01895         MOVFF   PREINC1, r0x05
000108 CFE4 F000      01896         MOVFF   PREINC1, r0x04
00010C CFE4 F000      01897         MOVFF   PREINC1, r0x03
000110 CFE4 F000      01898         MOVFF   PREINC1, r0x02
000114 CFE4 F000      01899         MOVFF   PREINC1, r0x01
000118 CFE4 F000      01900         MOVFF   PREINC1, r0x00
00011C CFE4 FFD9      01901         MOVFF   PREINC1, FSR2L
000120 0012           01902         RETURN  
                      01903 
                      01904 ; ; Starting pCode block
                      01905 S_RF24_c__RF24_whatHappened     code
000000                01906 _RF24_whatHappened:
                      01907         .line   1130; ../../../RF24_c/RF24_c.c  void RF24_whatHappened( uint8_t * tx_ok,uint8_t * tx_fai
                            l,uint8_t * rx_ready)
000000 CFD9 FFE5      01908         MOVFF   FSR2L, POSTDEC1
000004 CFE1 FFD9      01909         MOVFF   FSR1L, FSR2L
000008 C??? F???      01910         MOVFF   r0x00, POSTDEC1
00000C C??? F???      01911         MOVFF   r0x01, POSTDEC1
000010 C??? F???      01912         MOVFF   r0x02, POSTDEC1
000014 C??? F???      01913         MOVFF   r0x03, POSTDEC1
000018 C??? F???      01914         MOVFF   r0x04, POSTDEC1
00001C C??? F???      01915         MOVFF   r0x05, POSTDEC1
000020 C??? F???      01916         MOVFF   r0x06, POSTDEC1
000024 C??? F???      01917         MOVFF   r0x07, POSTDEC1
000028 C??? F???      01918         MOVFF   r0x08, POSTDEC1
00002C C??? F???      01919         MOVFF   r0x09, POSTDEC1
000030 C??? F???      01920         MOVFF   r0x0a, POSTDEC1
000034 0E02           01921         MOVLW   0x02
000036 CFDB F000      01922         MOVFF   PLUSW2, r0x00
00003A 0E03           01923         MOVLW   0x03
00003C CFDB F000      01924         MOVFF   PLUSW2, r0x01
000040 0E04           01925         MOVLW   0x04
000042 CFDB F000      01926         MOVFF   PLUSW2, r0x02
000046 0E05           01927         MOVLW   0x05
000048 CFDB F000      01928         MOVFF   PLUSW2, r0x03
00004C 0E06           01929         MOVLW   0x06
00004E CFDB F000      01930         MOVFF   PLUSW2, r0x04
000052 0E07           01931         MOVLW   0x07
000054 CFDB F000      01932         MOVFF   PLUSW2, r0x05
000058 0E08           01933         MOVLW   0x08
00005A CFDB F000      01934         MOVFF   PLUSW2, r0x06
00005E 0E09           01935         MOVLW   0x09
000060 CFDB F000      01936         MOVFF   PLUSW2, r0x07
000064 0E0A           01937         MOVLW   0x0a
000066 CFDB F000      01938         MOVFF   PLUSW2, r0x08
                      01939         .line   1134; ../../../RF24_c/RF24_c.c  uint8_t status = RF24_write_register_d(NRF_STATUS,_BV(RX
                            _DR) | _BV(TX_DS) | _BV(MAX_RT) );
00006A 0E70           01940         MOVLW   0x70
Message[1301]: Using default destination of 0 (Access Bank).
00006C 6EE5           01941         MOVWF   POSTDEC1
00006E 0E07           01942         MOVLW   0x07
Message[1301]: Using default destination of 0 (Access Bank).
gpasm-1.4.0 #1107 (May  9 2015) build/sdcc/pr   12-5-2016  17:29:30         PAGE 43


LOC    OBJECT CODE    LINE  SOURCE TEXT
  VALUE

000070 6EE5           01943         MOVWF   POSTDEC1
000072 EC?? F0??      01944         CALL    _RF24_write_register_d
Message[1301]: Using default destination of 0 (Access Bank).
000076 6E??           01945         MOVWF   r0x09
000078 52E6           01946         MOVF    POSTINC1, F
00007A 52E6           01947         MOVF    POSTINC1, F
                      01948         .line   1137; ../../../RF24_c/RF24_c.c  *tx_ok = status & _BV(TX_DS);
00007C 0E20           01949         MOVLW   0x20
00007E 14??           01950         ANDWF   r0x09, W
Message[1301]: Using default destination of 0 (Access Bank).
000080 6E??           01951         MOVWF   r0x0a
000082 C??? F???      01952         MOVFF   r0x0a, POSTDEC1
000086 C??? F???      01953         MOVFF   r0x00, FSR0L
00008A C??? F???      01954         MOVFF   r0x01, PRODL
00008E 50??           01955         MOVF    r0x02, W
000090 EC?? F0??      01956         CALL    __gptrput1
                      01957         .line   1138; ../../../RF24_c/RF24_c.c  *tx_fail = status & _BV(MAX_RT);
000094 0E10           01958         MOVLW   0x10
000096 14??           01959         ANDWF   r0x09, W
Message[1301]: Using default destination of 0 (Access Bank).
000098 6E??           01960         MOVWF   r0x00
00009A C??? F???      01961         MOVFF   r0x00, POSTDEC1
00009E C??? F???      01962         MOVFF   r0x03, FSR0L
0000A2 C??? F???      01963         MOVFF   r0x04, PRODL
0000A6 50??           01964         MOVF    r0x05, W
0000A8 EC?? F0??      01965         CALL    __gptrput1
                      01966         .line   1139; ../../../RF24_c/RF24_c.c  *rx_ready = status & _BV(RX_DR);
0000AC 0E40           01967         MOVLW   0x40
0000AE 16??           01968         ANDWF   r0x09, F
0000B0 C??? F???      01969         MOVFF   r0x09, POSTDEC1
0000B4 C??? F???      01970         MOVFF   r0x06, FSR0L
0000B8 C??? F???      01971         MOVFF   r0x07, PRODL
0000BC 50??           01972         MOVF    r0x08, W
0000BE EC?? F0??      01973         CALL    __gptrput1
0000C2 CFE4 F000      01974         MOVFF   PREINC1, r0x0a
0000C6 CFE4 F000      01975         MOVFF   PREINC1, r0x09
0000CA CFE4 F000      01976         MOVFF   PREINC1, r0x08
0000CE CFE4 F000      01977         MOVFF   PREINC1, r0x07
0000D2 CFE4 F000      01978         MOVFF   PREINC1, r0x06
0000D6 CFE4 F000      01979         MOVFF   PREINC1, r0x05
0000DA CFE4 F000      01980         MOVFF   PREINC1, r0x04
0000DE CFE4 F000      01981         MOVFF   PREINC1, r0x03
0000E2 CFE4 F000      01982         MOVFF   PREINC1, r0x02
0000E6 CFE4 F000      01983         MOVFF   PREINC1, r0x01
0000EA CFE4 F000      01984         MOVFF   PREINC1, r0x00
0000EE CFE4 FFD9      01985         MOVFF   PREINC1, FSR2L
0000F2 0012           01986         RETURN  
                      01987 
                      01988 ; ; Starting pCode block
                      01989 S_RF24_c__RF24_read     code
000000                01990 _RF24_read:
                      01991         .line   1118; ../../../RF24_c/RF24_c.c  void RF24_read(void* buf, uint8_t len ){
000000 CFD9 FFE5      01992         MOVFF   FSR2L, POSTDEC1
gpasm-1.4.0 #1107 (May  9 2015) build/sdcc/pr   12-5-2016  17:29:30         PAGE 44


LOC    OBJECT CODE    LINE  SOURCE TEXT
  VALUE

000004 CFE1 FFD9      01993         MOVFF   FSR1L, FSR2L
000008 C??? F???      01994         MOVFF   r0x00, POSTDEC1
00000C C??? F???      01995         MOVFF   r0x01, POSTDEC1
000010 C??? F???      01996         MOVFF   r0x02, POSTDEC1
000014 C??? F???      01997         MOVFF   r0x03, POSTDEC1
000018 0E02           01998         MOVLW   0x02
00001A CFDB F000      01999         MOVFF   PLUSW2, r0x00
00001E 0E03           02000         MOVLW   0x03
000020 CFDB F000      02001         MOVFF   PLUSW2, r0x01
000024 0E04           02002         MOVLW   0x04
000026 CFDB F000      02003         MOVFF   PLUSW2, r0x02
00002A 0E05           02004         MOVLW   0x05
00002C CFDB F000      02005         MOVFF   PLUSW2, r0x03
                      02006         .line   1121; ../../../RF24_c/RF24_c.c  RF24_read_payload( buf, len );
000030 50??           02007         MOVF    r0x03, W
Message[1301]: Using default destination of 0 (Access Bank).
000032 6EE5           02008         MOVWF   POSTDEC1
000034 50??           02009         MOVF    r0x02, W
Message[1301]: Using default destination of 0 (Access Bank).
000036 6EE5           02010         MOVWF   POSTDEC1
000038 50??           02011         MOVF    r0x01, W
Message[1301]: Using default destination of 0 (Access Bank).
00003A 6EE5           02012         MOVWF   POSTDEC1
00003C 50??           02013         MOVF    r0x00, W
Message[1301]: Using default destination of 0 (Access Bank).
00003E 6EE5           02014         MOVWF   POSTDEC1
000040 EC?? F0??      02015         CALL    _RF24_read_payload
000044 0E04           02016         MOVLW   0x04
000046 26E1           02017         ADDWF   FSR1L, F
                      02018         .line   1124; ../../../RF24_c/RF24_c.c  RF24_write_register_d(NRF_STATUS,_BV(RX_DR) | _BV(MAX_RT
                            ) | _BV(TX_DS) );
000048 0E70           02019         MOVLW   0x70
Message[1301]: Using default destination of 0 (Access Bank).
00004A 6EE5           02020         MOVWF   POSTDEC1
00004C 0E07           02021         MOVLW   0x07
Message[1301]: Using default destination of 0 (Access Bank).
00004E 6EE5           02022         MOVWF   POSTDEC1
000050 EC?? F0??      02023         CALL    _RF24_write_register_d
000054 52E6           02024         MOVF    POSTINC1, F
000056 52E6           02025         MOVF    POSTINC1, F
000058 CFE4 F000      02026         MOVFF   PREINC1, r0x03
00005C CFE4 F000      02027         MOVFF   PREINC1, r0x02
000060 CFE4 F000      02028         MOVFF   PREINC1, r0x01
000064 CFE4 F000      02029         MOVFF   PREINC1, r0x00
000068 CFE4 FFD9      02030         MOVFF   PREINC1, FSR2L
00006C 0012           02031         RETURN  
                      02032 
                      02033 ; ; Starting pCode block
                      02034 S_RF24_c__RF24_available_p      code
000000                02035 _RF24_available_p:
                      02036         .line   1098; ../../../RF24_c/RF24_c.c  uint8_t RF24_available_p(uint8_t* pipe_num)
000000 CFD9 FFE5      02037         MOVFF   FSR2L, POSTDEC1
000004 CFE1 FFD9      02038         MOVFF   FSR1L, FSR2L
gpasm-1.4.0 #1107 (May  9 2015) build/sdcc/pr   12-5-2016  17:29:30         PAGE 45


LOC    OBJECT CODE    LINE  SOURCE TEXT
  VALUE

000008 C??? F???      02039         MOVFF   r0x00, POSTDEC1
00000C C??? F???      02040         MOVFF   r0x01, POSTDEC1
000010 C??? F???      02041         MOVFF   r0x02, POSTDEC1
000014 C??? F???      02042         MOVFF   r0x03, POSTDEC1
000018 0E02           02043         MOVLW   0x02
00001A CFDB F000      02044         MOVFF   PLUSW2, r0x00
00001E 0E03           02045         MOVLW   0x03
000020 CFDB F000      02046         MOVFF   PLUSW2, r0x01
000024 0E04           02047         MOVLW   0x04
000026 CFDB F000      02048         MOVFF   PLUSW2, r0x02
                      02049         .line   1100; ../../../RF24_c/RF24_c.c  if (!( RF24_read_register_d(FIFO_STATUS) & _BV(RX_EMPTY)
                             )){
00002A 0E17           02050         MOVLW   0x17
Message[1301]: Using default destination of 0 (Access Bank).
00002C 6EE5           02051         MOVWF   POSTDEC1
00002E EC?? F0??      02052         CALL    _RF24_read_register_d
Message[1301]: Using default destination of 0 (Access Bank).
000032 6E??           02053         MOVWF   r0x03
000034 52E6           02054         MOVF    POSTINC1, F
000036 B0??           02055         BTFSC   r0x03, 0
000038 D???           02056         BRA     _00590_DS_
                      02057         .line   1103; ../../../RF24_c/RF24_c.c  if ( pipe_num ){
00003A 50??           02058         MOVF    r0x00, W
00003C 10??           02059         IORWF   r0x01, W
00003E 10??           02060         IORWF   r0x02, W
000040 E0??           02061         BZ      _00588_DS_
                      02062         .line   1104; ../../../RF24_c/RF24_c.c  uint8_t status = RF24_get_status();
000042 EC?? F0??      02063         CALL    _RF24_get_status
Message[1301]: Using default destination of 0 (Access Bank).
000046 6E??           02064         MOVWF   r0x03
                      02065         .line   1105; ../../../RF24_c/RF24_c.c  *pipe_num = ( status >> RX_P_NO ) & 0b111;
000048 40??           02066         RRNCF   r0x03, W
00004A 0B7F           02067         ANDLW   0x7f
Message[1301]: Using default destination of 0 (Access Bank).
00004C 6E??           02068         MOVWF   r0x03
00004E 0E07           02069         MOVLW   0x07
000050 16??           02070         ANDWF   r0x03, F
000052 C??? F???      02071         MOVFF   r0x03, POSTDEC1
000056 C??? F???      02072         MOVFF   r0x00, FSR0L
00005A C??? F???      02073         MOVFF   r0x01, PRODL
00005E 50??           02074         MOVF    r0x02, W
000060 EC?? F0??      02075         CALL    __gptrput1
000064                02076 _00588_DS_:
                      02077         .line   1107; ../../../RF24_c/RF24_c.c  return 1;
000064 0E01           02078         MOVLW   0x01
000066 D???           02079         BRA     _00591_DS_
000068                02080 _00590_DS_:
                      02081         .line   1111; ../../../RF24_c/RF24_c.c  return 0;
Message[1301]: Using default destination of 0 (Access Bank).
000068 6AE8           02082         CLRF    WREG
00006A                02083 _00591_DS_:
00006A CFE4 F000      02084         MOVFF   PREINC1, r0x03
00006E CFE4 F000      02085         MOVFF   PREINC1, r0x02
gpasm-1.4.0 #1107 (May  9 2015) build/sdcc/pr   12-5-2016  17:29:30         PAGE 46


LOC    OBJECT CODE    LINE  SOURCE TEXT
  VALUE

000072 CFE4 F000      02086         MOVFF   PREINC1, r0x01
000076 CFE4 F000      02087         MOVFF   PREINC1, r0x00
00007A CFE4 FFD9      02088         MOVFF   PREINC1, FSR2L
00007E 0012           02089         RETURN  
                      02090 
                      02091 ; ; Starting pCode block
                      02092 S_RF24_c__RF24_available        code
000000                02093 _RF24_available:
                      02094         .line   1091; ../../../RF24_c/RF24_c.c  uint8_t RF24_available(void)
000000 CFD9 FFE5      02095         MOVFF   FSR2L, POSTDEC1
000004 CFE1 FFD9      02096         MOVFF   FSR1L, FSR2L
000008 C??? F???      02097         MOVFF   r0x00, POSTDEC1
                      02098         .line   1093; ../../../RF24_c/RF24_c.c  return RF24_available_p(NULL);
00000C 0E00           02099         MOVLW   0x00
Message[1301]: Using default destination of 0 (Access Bank).
00000E 6EE5           02100         MOVWF   POSTDEC1
000010 0E00           02101         MOVLW   0x00
Message[1301]: Using default destination of 0 (Access Bank).
000012 6EE5           02102         MOVWF   POSTDEC1
000014 0E00           02103         MOVLW   0x00
Message[1301]: Using default destination of 0 (Access Bank).
000016 6EE5           02104         MOVWF   POSTDEC1
000018 EC?? F0??      02105         CALL    _RF24_available_p
Message[1301]: Using default destination of 0 (Access Bank).
00001C 6E??           02106         MOVWF   r0x00
00001E 0E03           02107         MOVLW   0x03
000020 26E1           02108         ADDWF   FSR1L, F
000022 50??           02109         MOVF    r0x00, W
000024 CFE4 F000      02110         MOVFF   PREINC1, r0x00
000028 CFE4 FFD9      02111         MOVFF   PREINC1, FSR2L
00002C 0012           02112         RETURN  
                      02113 
                      02114 ; ; Starting pCode block
                      02115 S_RF24_c__RF24_getDynamicPayloadSize    code
000000                02116 _RF24_getDynamicPayloadSize:
                      02117         .line   1067; ../../../RF24_c/RF24_c.c  uint8_t RF24_getDynamicPayloadSize(void)
000000 CFD9 FFE5      02118         MOVFF   FSR2L, POSTDEC1
000004 CFE1 FFD9      02119         MOVFF   FSR1L, FSR2L
000008 C??? F???      02120         MOVFF   r0x00, POSTDEC1
                      02121         .line   1079; ../../../RF24_c/RF24_c.c  RF24_beginTransaction();
00000C EC?? F0??      02122         CALL    _RF24_beginTransaction
                      02123         .line   1080; ../../../RF24_c/RF24_c.c  SPI_transfer( R_RX_PL_WID );
000010 0E60           02124         MOVLW   0x60
Message[1301]: Using default destination of 0 (Access Bank).
000012 6EE5           02125         MOVWF   POSTDEC1
000014 EC?? F0??      02126         CALL    _SPI_transfer
000018 52E6           02127         MOVF    POSTINC1, F
                      02128         .line   1081; ../../../RF24_c/RF24_c.c  result = SPI_transfer(0xff);
00001A 0EFF           02129         MOVLW   0xff
Message[1301]: Using default destination of 0 (Access Bank).
00001C 6EE5           02130         MOVWF   POSTDEC1
00001E EC?? F0??      02131         CALL    _SPI_transfer
Message[1301]: Using default destination of 0 (Access Bank).
gpasm-1.4.0 #1107 (May  9 2015) build/sdcc/pr   12-5-2016  17:29:30         PAGE 47


LOC    OBJECT CODE    LINE  SOURCE TEXT
  VALUE

000022 6E??           02132         MOVWF   r0x00
000024 52E6           02133         MOVF    POSTINC1, F
                      02134         .line   1082; ../../../RF24_c/RF24_c.c  RF24_endTransaction();
000026 EC?? F0??      02135         CALL    _RF24_endTransaction
                      02136         .line   1085; ../../../RF24_c/RF24_c.c  if(result > 32) { RF24_flush_rx();; delay(2); return 0; 
                            }
00002A 0E21           02137         MOVLW   0x21
00002C 5C??           02138         SUBWF   r0x00, W
00002E E3??           02139         BNC     _00571_DS_
000030 EC?? F0??      02140         CALL    _RF24_flush_rx
000034 0E00           02141         MOVLW   0x00
Message[1301]: Using default destination of 0 (Access Bank).
000036 6EE5           02142         MOVWF   POSTDEC1
000038 0E02           02143         MOVLW   0x02
Message[1301]: Using default destination of 0 (Access Bank).
00003A 6EE5           02144         MOVWF   POSTDEC1
00003C EC?? F0??      02145         CALL    _delay
000040 52E6           02146         MOVF    POSTINC1, F
000042 52E6           02147         MOVF    POSTINC1, F
Message[1301]: Using default destination of 0 (Access Bank).
000044 6AE8           02148         CLRF    WREG
000046 D???           02149         BRA     _00572_DS_
000048                02150 _00571_DS_:
                      02151         .line   1086; ../../../RF24_c/RF24_c.c  return result;
000048 50??           02152         MOVF    r0x00, W
00004A                02153 _00572_DS_:
00004A CFE4 F000      02154         MOVFF   PREINC1, r0x00
00004E CFE4 FFD9      02155         MOVFF   PREINC1, FSR2L
000052 0012           02156         RETURN  
                      02157 
                      02158 ; ; Starting pCode block
                      02159 S_RF24_c__RF24_maskIRQ  code
000000                02160 _RF24_maskIRQ:
                      02161         .line   1055; ../../../RF24_c/RF24_c.c  void RF24_maskIRQ(uint8_t tx, uint8_t fail, uint8_t rx){
000000 CFD9 FFE5      02162         MOVFF   FSR2L, POSTDEC1
000004 CFE1 FFD9      02163         MOVFF   FSR1L, FSR2L
000008 C??? F???      02164         MOVFF   r0x00, POSTDEC1
00000C C??? F???      02165         MOVFF   r0x01, POSTDEC1
000010 C??? F???      02166         MOVFF   r0x02, POSTDEC1
000014 C??? F???      02167         MOVFF   r0x03, POSTDEC1
000018 C??? F???      02168         MOVFF   r0x04, POSTDEC1
00001C C??? F???      02169         MOVFF   r0x05, POSTDEC1
000020 0E02           02170         MOVLW   0x02
000022 CFDB F000      02171         MOVFF   PLUSW2, r0x00
000026 0E03           02172         MOVLW   0x03
000028 CFDB F000      02173         MOVFF   PLUSW2, r0x01
00002C 0E04           02174         MOVLW   0x04
00002E CFDB F000      02175         MOVFF   PLUSW2, r0x02
                      02176         .line   1057; ../../../RF24_c/RF24_c.c  uint8_t config = RF24_read_register_d(NRF_CONFIG);
000032 0E00           02177         MOVLW   0x00
Message[1301]: Using default destination of 0 (Access Bank).
000034 6EE5           02178         MOVWF   POSTDEC1
000036 EC?? F0??      02179         CALL    _RF24_read_register_d
gpasm-1.4.0 #1107 (May  9 2015) build/sdcc/pr   12-5-2016  17:29:30         PAGE 48


LOC    OBJECT CODE    LINE  SOURCE TEXT
  VALUE

Message[1301]: Using default destination of 0 (Access Bank).
00003A 6E??           02180         MOVWF   r0x03
00003C 52E6           02181         MOVF    POSTINC1, F
                      02182         .line   1059; ../../../RF24_c/RF24_c.c  config &= ~(1 << MASK_MAX_RT | 1 << MASK_TX_DS | 1 << MA
                            SK_RX_DR);
00003E 0E8F           02183         MOVLW   0x8f
000040 16??           02184         ANDWF   r0x03, F
                      02185         .line   1061; ../../../RF24_c/RF24_c.c  config |= fail << MASK_MAX_RT | tx << MASK_TX_DS | rx <<
                             MASK_RX_DR;
000042 38??           02186         SWAPF   r0x01, W
000044 0BF0           02187         ANDLW   0xf0
Message[1301]: Using default destination of 0 (Access Bank).
000046 6E??           02188         MOVWF   r0x04
000048 38??           02189         SWAPF   r0x00, W
00004A 44E8           02190         RLNCF   WREG, W
00004C 0BE0           02191         ANDLW   0xe0
Message[1301]: Using default destination of 0 (Access Bank).
00004E 6E??           02192         MOVWF   r0x05
000050 50??           02193         MOVF    r0x05, W
000052 10??           02194         IORWF   r0x04, W
Message[1301]: Using default destination of 0 (Access Bank).
000054 6E??           02195         MOVWF   r0x00
000056 40??           02196         RRNCF   r0x02, W
000058 40E8           02197         RRNCF   WREG, W
00005A 0BC0           02198         ANDLW   0xc0
Message[1301]: Using default destination of 0 (Access Bank).
00005C 6E??           02199         MOVWF   r0x01
00005E 50??           02200         MOVF    r0x01, W
000060 10??           02201         IORWF   r0x00, W
Message[1301]: Using default destination of 0 (Access Bank).
000062 6E??           02202         MOVWF   r0x02
000064 50??           02203         MOVF    r0x02, W
000066 12??           02204         IORWF   r0x03, F
                      02205         .line   1062; ../../../RF24_c/RF24_c.c  RF24_write_register_d(NRF_CONFIG, config);
000068 50??           02206         MOVF    r0x03, W
Message[1301]: Using default destination of 0 (Access Bank).
00006A 6EE5           02207         MOVWF   POSTDEC1
00006C 0E00           02208         MOVLW   0x00
Message[1301]: Using default destination of 0 (Access Bank).
00006E 6EE5           02209         MOVWF   POSTDEC1
000070 EC?? F0??      02210         CALL    _RF24_write_register_d
000074 52E6           02211         MOVF    POSTINC1, F
000076 52E6           02212         MOVF    POSTINC1, F
000078 CFE4 F000      02213         MOVFF   PREINC1, r0x05
00007C CFE4 F000      02214         MOVFF   PREINC1, r0x04
000080 CFE4 F000      02215         MOVFF   PREINC1, r0x03
000084 CFE4 F000      02216         MOVFF   PREINC1, r0x02
000088 CFE4 F000      02217         MOVFF   PREINC1, r0x01
00008C CFE4 F000      02218         MOVFF   PREINC1, r0x00
000090 CFE4 FFD9      02219         MOVFF   PREINC1, FSR2L
000094 0012           02220         RETURN  
                      02221 
                      02222 ; ; Starting pCode block
gpasm-1.4.0 #1107 (May  9 2015) build/sdcc/pr   12-5-2016  17:29:30         PAGE 49


LOC    OBJECT CODE    LINE  SOURCE TEXT
  VALUE

                      02223 S_RF24_c__RF24_txStandBy_t      code
000000                02224 _RF24_txStandBy_t:
                      02225         .line   1018; ../../../RF24_c/RF24_c.c  uint8_t RF24_txStandBy_t(uint32_t timeout, uint8_t start
                            Tx){
000000 CFD9 FFE5      02226         MOVFF   FSR2L, POSTDEC1
000004 CFE1 FFD9      02227         MOVFF   FSR1L, FSR2L
000008 C??? F???      02228         MOVFF   r0x00, POSTDEC1
00000C C??? F???      02229         MOVFF   r0x01, POSTDEC1
000010 C??? F???      02230         MOVFF   r0x02, POSTDEC1
000014 C??? F???      02231         MOVFF   r0x03, POSTDEC1
000018 C??? F???      02232         MOVFF   r0x04, POSTDEC1
00001C C??? F???      02233         MOVFF   r0x05, POSTDEC1
000020 C??? F???      02234         MOVFF   r0x06, POSTDEC1
000024 C??? F???      02235         MOVFF   r0x07, POSTDEC1
000028 C??? F???      02236         MOVFF   r0x08, POSTDEC1
00002C C??? F???      02237         MOVFF   r0x09, POSTDEC1
000030 C??? F???      02238         MOVFF   r0x0a, POSTDEC1
000034 C??? F???      02239         MOVFF   r0x0b, POSTDEC1
000038 0E02           02240         MOVLW   0x02
00003A CFDB F000      02241         MOVFF   PLUSW2, r0x00
00003E 0E03           02242         MOVLW   0x03
000040 CFDB F000      02243         MOVFF   PLUSW2, r0x01
000044 0E04           02244         MOVLW   0x04
000046 CFDB F000      02245         MOVFF   PLUSW2, r0x02
00004A 0E05           02246         MOVLW   0x05
00004C CFDB F000      02247         MOVFF   PLUSW2, r0x03
000050 0E06           02248         MOVLW   0x06
000052 CFDB F000      02249         MOVFF   PLUSW2, r0x04
                      02250         .line   1021; ../../../RF24_c/RF24_c.c  if(startTx){
000056 50??           02251         MOVF    r0x04, W
000058 E0??           02252         BZ      _00533_DS_
                      02253         .line   1022; ../../../RF24_c/RF24_c.c  RF24_stopListening();
00005A EC?? F0??      02254         CALL    _RF24_stopListening
                      02255         .line   1023; ../../../RF24_c/RF24_c.c  RF24_ce_d(HIGH);
00005E 0E01           02256         MOVLW   0x01
Message[1301]: Using default destination of 0 (Access Bank).
000060 6EE5           02257         MOVWF   POSTDEC1
000062 EC?? F0??      02258         CALL    _RF24_ce_d
000066 52E6           02259         MOVF    POSTINC1, F
000068                02260 _00533_DS_:
                      02261         .line   1026; ../../../RF24_c/RF24_c.c  start = millis();
000068 EC?? F0??      02262         CALL    _millis
Message[1301]: Using default destination of 0 (Access Bank).
00006C 6E??           02263         MOVWF   r0x04
00006E CFF3 F000      02264         MOVFF   PRODL, r0x05
000072 CFF4 F000      02265         MOVFF   PRODH, r0x06
000076 CFE9 F000      02266         MOVFF   FSR0L, r0x07
00007A                02267 _00538_DS_:
                      02268         .line   1028; ../../../RF24_c/RF24_c.c  while( ! (RF24_read_register_d(FIFO_STATUS) & _BV(TX_EMP
                            TY)) ){
00007A 0E17           02269         MOVLW   0x17
Message[1301]: Using default destination of 0 (Access Bank).
00007C 6EE5           02270         MOVWF   POSTDEC1
gpasm-1.4.0 #1107 (May  9 2015) build/sdcc/pr   12-5-2016  17:29:30         PAGE 50


LOC    OBJECT CODE    LINE  SOURCE TEXT
  VALUE

00007E EC?? F0??      02271         CALL    _RF24_read_register_d
Message[1301]: Using default destination of 0 (Access Bank).
000082 6E??           02272         MOVWF   r0x08
000084 52E6           02273         MOVF    POSTINC1, F
000086 B8??           02274         BTFSC   r0x08, 4
000088 D???           02275         BRA     _00540_DS_
                      02276         .line   1029; ../../../RF24_c/RF24_c.c  if( RF24_get_status() & _BV(MAX_RT)){
00008A EC?? F0??      02277         CALL    _RF24_get_status
Message[1301]: Using default destination of 0 (Access Bank).
00008E 6E??           02278         MOVWF   r0x08
000090 A8??           02279         BTFSS   r0x08, 4
000092 D???           02280         BRA     _00538_DS_
                      02281         .line   1030; ../../../RF24_c/RF24_c.c  RF24_write_register_d(NRF_STATUS,_BV(MAX_RT) );
000094 0E10           02282         MOVLW   0x10
Message[1301]: Using default destination of 0 (Access Bank).
000096 6EE5           02283         MOVWF   POSTDEC1
000098 0E07           02284         MOVLW   0x07
Message[1301]: Using default destination of 0 (Access Bank).
00009A 6EE5           02285         MOVWF   POSTDEC1
00009C EC?? F0??      02286         CALL    _RF24_write_register_d
0000A0 52E6           02287         MOVF    POSTINC1, F
0000A2 52E6           02288         MOVF    POSTINC1, F
                      02289         .line   1031; ../../../RF24_c/RF24_c.c  RF24_ce_d(LOW);                                         
                                                              //Set re-transmit
0000A4 0E00           02290         MOVLW   0x00
Message[1301]: Using default destination of 0 (Access Bank).
0000A6 6EE5           02291         MOVWF   POSTDEC1
0000A8 EC?? F0??      02292         CALL    _RF24_ce_d
0000AC 52E6           02293         MOVF    POSTINC1, F
                      02294         .line   1032; ../../../RF24_c/RF24_c.c  RF24_ce_d(HIGH);
0000AE 0E01           02295         MOVLW   0x01
Message[1301]: Using default destination of 0 (Access Bank).
0000B0 6EE5           02296         MOVWF   POSTDEC1
0000B2 EC?? F0??      02297         CALL    _RF24_ce_d
0000B6 52E6           02298         MOVF    POSTINC1, F
                      02299         .line   1033; ../../../RF24_c/RF24_c.c  if(millis() - start >= timeout){
0000B8 EC?? F0??      02300         CALL    _millis
Message[1301]: Using default destination of 0 (Access Bank).
0000BC 6E??           02301         MOVWF   r0x08
0000BE CFF3 F000      02302         MOVFF   PRODL, r0x09
0000C2 CFF4 F000      02303         MOVFF   PRODH, r0x0a
0000C6 CFE9 F000      02304         MOVFF   FSR0L, r0x0b
0000CA 50??           02305         MOVF    r0x04, W
0000CC 5E??           02306         SUBWF   r0x08, F
0000CE 50??           02307         MOVF    r0x05, W
0000D0 5A??           02308         SUBWFB  r0x09, F
0000D2 50??           02309         MOVF    r0x06, W
0000D4 5A??           02310         SUBWFB  r0x0a, F
0000D6 50??           02311         MOVF    r0x07, W
0000D8 5A??           02312         SUBWFB  r0x0b, F
0000DA 50??           02313         MOVF    r0x03, W
0000DC 5C??           02314         SUBWF   r0x0b, W
0000DE E1??           02315         BNZ     _00560_DS_
gpasm-1.4.0 #1107 (May  9 2015) build/sdcc/pr   12-5-2016  17:29:30         PAGE 51


LOC    OBJECT CODE    LINE  SOURCE TEXT
  VALUE

0000E0 50??           02316         MOVF    r0x02, W
0000E2 5C??           02317         SUBWF   r0x0a, W
0000E4 E1??           02318         BNZ     _00560_DS_
0000E6 50??           02319         MOVF    r0x01, W
0000E8 5C??           02320         SUBWF   r0x09, W
0000EA E1??           02321         BNZ     _00560_DS_
0000EC 50??           02322         MOVF    r0x00, W
0000EE 5C??           02323         SUBWF   r0x08, W
0000F0                02324 _00560_DS_:
0000F0 A0D8           02325         BTFSS   STATUS, 0
0000F2 D???           02326         BRA     _00538_DS_
                      02327         .line   1034; ../../../RF24_c/RF24_c.c  RF24_ce_d(LOW); RF24_flush_tx();; return 0;
0000F4 0E00           02328         MOVLW   0x00
Message[1301]: Using default destination of 0 (Access Bank).
0000F6 6EE5           02329         MOVWF   POSTDEC1
0000F8 EC?? F0??      02330         CALL    _RF24_ce_d
0000FC 52E6           02331         MOVF    POSTINC1, F
0000FE EC?? F0??      02332         CALL    _RF24_flush_tx
Message[1301]: Using default destination of 0 (Access Bank).
000102 6AE8           02333         CLRF    WREG
000104 D???           02334         BRA     _00541_DS_
000106                02335 _00540_DS_:
                      02336         .line   1048; ../../../RF24_c/RF24_c.c  RF24_ce_d(LOW);                            //Set STANDBY
                            -I mode
000106 0E00           02337         MOVLW   0x00
Message[1301]: Using default destination of 0 (Access Bank).
000108 6EE5           02338         MOVWF   POSTDEC1
00010A EC?? F0??      02339         CALL    _RF24_ce_d
00010E 52E6           02340         MOVF    POSTINC1, F
                      02341         .line   1049; ../../../RF24_c/RF24_c.c  return 1;
000110 0E01           02342         MOVLW   0x01
000112                02343 _00541_DS_:
000112 CFE4 F000      02344         MOVFF   PREINC1, r0x0b
000116 CFE4 F000      02345         MOVFF   PREINC1, r0x0a
00011A CFE4 F000      02346         MOVFF   PREINC1, r0x09
00011E CFE4 F000      02347         MOVFF   PREINC1, r0x08
000122 CFE4 F000      02348         MOVFF   PREINC1, r0x07
000126 CFE4 F000      02349         MOVFF   PREINC1, r0x06
00012A CFE4 F000      02350         MOVFF   PREINC1, r0x05
00012E CFE4 F000      02351         MOVFF   PREINC1, r0x04
000132 CFE4 F000      02352         MOVFF   PREINC1, r0x03
000136 CFE4 F000      02353         MOVFF   PREINC1, r0x02
00013A CFE4 F000      02354         MOVFF   PREINC1, r0x01
00013E CFE4 F000      02355         MOVFF   PREINC1, r0x00
000142 CFE4 FFD9      02356         MOVFF   PREINC1, FSR2L
000146 0012           02357         RETURN  
                      02358 
                      02359 ; ; Starting pCode block
                      02360 S_RF24_c__RF24_txStandBy        code
000000                02361 _RF24_txStandBy:
                      02362         .line   990; ../../../RF24_c/RF24_c.c   uint8_t RF24_txStandBy(void){
000000 CFD9 FFE5      02363         MOVFF   FSR2L, POSTDEC1
000004 CFE1 FFD9      02364         MOVFF   FSR1L, FSR2L
gpasm-1.4.0 #1107 (May  9 2015) build/sdcc/pr   12-5-2016  17:29:30         PAGE 52


LOC    OBJECT CODE    LINE  SOURCE TEXT
  VALUE

000008 C??? F???      02365         MOVFF   r0x00, POSTDEC1
00000C                02366 _00512_DS_:
                      02367         .line   995; ../../../RF24_c/RF24_c.c   while( ! (RF24_read_register_d(FIFO_STATUS) & _BV(TX_EMP
                            TY)) ){
00000C 0E17           02368         MOVLW   0x17
Message[1301]: Using default destination of 0 (Access Bank).
00000E 6EE5           02369         MOVWF   POSTDEC1
000010 EC?? F0??      02370         CALL    _RF24_read_register_d
Message[1301]: Using default destination of 0 (Access Bank).
000014 6E??           02371         MOVWF   r0x00
000016 52E6           02372         MOVF    POSTINC1, F
000018 B8??           02373         BTFSC   r0x00, 4
00001A D???           02374         BRA     _00514_DS_
                      02375         .line   996; ../../../RF24_c/RF24_c.c   if( RF24_get_status() & _BV(MAX_RT)){
00001C EC?? F0??      02376         CALL    _RF24_get_status
Message[1301]: Using default destination of 0 (Access Bank).
000020 6E??           02377         MOVWF   r0x00
000022 A8??           02378         BTFSS   r0x00, 4
000024 D???           02379         BRA     _00512_DS_
                      02380         .line   997; ../../../RF24_c/RF24_c.c   RF24_write_register_d(NRF_STATUS,_BV(MAX_RT) );
000026 0E10           02381         MOVLW   0x10
Message[1301]: Using default destination of 0 (Access Bank).
000028 6EE5           02382         MOVWF   POSTDEC1
00002A 0E07           02383         MOVLW   0x07
Message[1301]: Using default destination of 0 (Access Bank).
00002C 6EE5           02384         MOVWF   POSTDEC1
00002E EC?? F0??      02385         CALL    _RF24_write_register_d
000032 52E6           02386         MOVF    POSTINC1, F
000034 52E6           02387         MOVF    POSTINC1, F
                      02388         .line   998; ../../../RF24_c/RF24_c.c   RF24_ce_d(LOW);
000036 0E00           02389         MOVLW   0x00
Message[1301]: Using default destination of 0 (Access Bank).
000038 6EE5           02390         MOVWF   POSTDEC1
00003A EC?? F0??      02391         CALL    _RF24_ce_d
00003E 52E6           02392         MOVF    POSTINC1, F
                      02393         .line   999; ../../../RF24_c/RF24_c.c   RF24_flush_tx();;    //Non blocking, flush the data
000040 EC?? F0??      02394         CALL    _RF24_flush_tx
                      02395         .line   1000; ../../../RF24_c/RF24_c.c  return 0;
Message[1301]: Using default destination of 0 (Access Bank).
000044 6AE8           02396         CLRF    WREG
000046 D???           02397         BRA     _00515_DS_
000048                02398 _00514_DS_:
                      02399         .line   1012; ../../../RF24_c/RF24_c.c  RF24_ce_d(LOW);                    //Set STANDBY-I mode
000048 0E00           02400         MOVLW   0x00
Message[1301]: Using default destination of 0 (Access Bank).
00004A 6EE5           02401         MOVWF   POSTDEC1
00004C EC?? F0??      02402         CALL    _RF24_ce_d
000050 52E6           02403         MOVF    POSTINC1, F
                      02404         .line   1013; ../../../RF24_c/RF24_c.c  return 1;
000052 0E01           02405         MOVLW   0x01
000054                02406 _00515_DS_:
000054 CFE4 F000      02407         MOVFF   PREINC1, r0x00
000058 CFE4 FFD9      02408         MOVFF   PREINC1, FSR2L
gpasm-1.4.0 #1107 (May  9 2015) build/sdcc/pr   12-5-2016  17:29:30         PAGE 53


LOC    OBJECT CODE    LINE  SOURCE TEXT
  VALUE

00005C 0012           02409         RETURN  
                      02410 
                      02411 ; ; Starting pCode block
                      02412 S_RF24_c__RF24_rxFifoFull       code
000000                02413 _RF24_rxFifoFull:
                      02414         .line   985; ../../../RF24_c/RF24_c.c   uint8_t RF24_rxFifoFull(void){
000000 CFD9 FFE5      02415         MOVFF   FSR2L, POSTDEC1
000004 CFE1 FFD9      02416         MOVFF   FSR1L, FSR2L
000008 C??? F???      02417         MOVFF   r0x00, POSTDEC1
                      02418         .line   986; ../../../RF24_c/RF24_c.c   return RF24_read_register_d(FIFO_STATUS) & _BV(RX_FULL);
00000C 0E17           02419         MOVLW   0x17
Message[1301]: Using default destination of 0 (Access Bank).
00000E 6EE5           02420         MOVWF   POSTDEC1
000010 EC?? F0??      02421         CALL    _RF24_read_register_d
Message[1301]: Using default destination of 0 (Access Bank).
000014 6E??           02422         MOVWF   r0x00
000016 52E6           02423         MOVF    POSTINC1, F
000018 0E02           02424         MOVLW   0x02
00001A 16??           02425         ANDWF   r0x00, F
00001C 50??           02426         MOVF    r0x00, W
00001E CFE4 F000      02427         MOVFF   PREINC1, r0x00
000022 CFE4 FFD9      02428         MOVFF   PREINC1, FSR2L
000026 0012           02429         RETURN  
                      02430 
                      02431 ; ; Starting pCode block
                      02432 S_RF24_c__RF24_startWrite       code
000000                02433 _RF24_startWrite:
                      02434         .line   968; ../../../RF24_c/RF24_c.c   void RF24_startWrite(const void* buf, uint8_t len, const
                             uint8_t multicast ){
000000 CFD9 FFE5      02435         MOVFF   FSR2L, POSTDEC1
000004 CFE1 FFD9      02436         MOVFF   FSR1L, FSR2L
000008 C??? F???      02437         MOVFF   r0x00, POSTDEC1
00000C C??? F???      02438         MOVFF   r0x01, POSTDEC1
000010 C??? F???      02439         MOVFF   r0x02, POSTDEC1
000014 C??? F???      02440         MOVFF   r0x03, POSTDEC1
000018 C??? F???      02441         MOVFF   r0x04, POSTDEC1
00001C 0E02           02442         MOVLW   0x02
00001E CFDB F000      02443         MOVFF   PLUSW2, r0x00
000022 0E03           02444         MOVLW   0x03
000024 CFDB F000      02445         MOVFF   PLUSW2, r0x01
000028 0E04           02446         MOVLW   0x04
00002A CFDB F000      02447         MOVFF   PLUSW2, r0x02
00002E 0E05           02448         MOVLW   0x05
000030 CFDB F000      02449         MOVFF   PLUSW2, r0x03
000034 0E06           02450         MOVLW   0x06
000036 CFDB F000      02451         MOVFF   PLUSW2, r0x04
                      02452         .line   973; ../../../RF24_c/RF24_c.c   RF24_write_payload( buf, len,multicast? W_TX_PAYLOAD_NO_
                            ACK : W_TX_PAYLOAD ) ;
00003A 50??           02453         MOVF    r0x04, W
00003C E0??           02454         BZ      _00499_DS_
00003E 0EB0           02455         MOVLW   0xb0
Message[1301]: Using default destination of 0 (Access Bank).
000040 6E??           02456         MOVWF   r0x04
gpasm-1.4.0 #1107 (May  9 2015) build/sdcc/pr   12-5-2016  17:29:30         PAGE 54


LOC    OBJECT CODE    LINE  SOURCE TEXT
  VALUE

000042 D???           02457         BRA     _00500_DS_
000044                02458 _00499_DS_:
000044 0EA0           02459         MOVLW   0xa0
Message[1301]: Using default destination of 0 (Access Bank).
000046 6E??           02460         MOVWF   r0x04
000048                02461 _00500_DS_:
000048 50??           02462         MOVF    r0x04, W
Message[1301]: Using default destination of 0 (Access Bank).
00004A 6EE5           02463         MOVWF   POSTDEC1
00004C 50??           02464         MOVF    r0x03, W
Message[1301]: Using default destination of 0 (Access Bank).
00004E 6EE5           02465         MOVWF   POSTDEC1
000050 50??           02466         MOVF    r0x02, W
Message[1301]: Using default destination of 0 (Access Bank).
000052 6EE5           02467         MOVWF   POSTDEC1
000054 50??           02468         MOVF    r0x01, W
Message[1301]: Using default destination of 0 (Access Bank).
000056 6EE5           02469         MOVWF   POSTDEC1
000058 50??           02470         MOVF    r0x00, W
Message[1301]: Using default destination of 0 (Access Bank).
00005A 6EE5           02471         MOVWF   POSTDEC1
00005C EC?? F0??      02472         CALL    _RF24_write_payload
000060 0E05           02473         MOVLW   0x05
000062 26E1           02474         ADDWF   FSR1L, F
                      02475         .line   974; ../../../RF24_c/RF24_c.c   RF24_ce_d(HIGH);
000064 0E01           02476         MOVLW   0x01
Message[1301]: Using default destination of 0 (Access Bank).
000066 6EE5           02477         MOVWF   POSTDEC1
000068 EC?? F0??      02478         CALL    _RF24_ce_d
00006C 52E6           02479         MOVF    POSTINC1, F
                      02480         .line   976; ../../../RF24_c/RF24_c.c   delayMicroseconds(10);
00006E 0E0A           02481         MOVLW   0x0a
Message[1301]: Using default destination of 0 (Access Bank).
000070 6EE5           02482         MOVWF   POSTDEC1
000072 EC?? F0??      02483         CALL    _delayMicroseconds
000076 52E6           02484         MOVF    POSTINC1, F
                      02485         .line   978; ../../../RF24_c/RF24_c.c   RF24_ce_d(LOW);
000078 0E00           02486         MOVLW   0x00
Message[1301]: Using default destination of 0 (Access Bank).
00007A 6EE5           02487         MOVWF   POSTDEC1
00007C EC?? F0??      02488         CALL    _RF24_ce_d
000080 52E6           02489         MOVF    POSTINC1, F
000082 CFE4 F000      02490         MOVFF   PREINC1, r0x04
000086 CFE4 F000      02491         MOVFF   PREINC1, r0x03
00008A CFE4 F000      02492         MOVFF   PREINC1, r0x02
00008E CFE4 F000      02493         MOVFF   PREINC1, r0x01
000092 CFE4 F000      02494         MOVFF   PREINC1, r0x00
000096 CFE4 FFD9      02495         MOVFF   PREINC1, FSR2L
00009A 0012           02496         RETURN  
                      02497 
                      02498 ; ; Starting pCode block
                      02499 S_RF24_c__RF24_startFastWrite   code
000000                02500 _RF24_startFastWrite:
gpasm-1.4.0 #1107 (May  9 2015) build/sdcc/pr   12-5-2016  17:29:30         PAGE 55


LOC    OBJECT CODE    LINE  SOURCE TEXT
  VALUE

                      02501         .line   954; ../../../RF24_c/RF24_c.c   void RF24_startFastWrite(const void* buf, uint8_t len, c
                            onst uint8_t multicast, uint8_t startTx){ //TMRh20
000000 CFD9 FFE5      02502         MOVFF   FSR2L, POSTDEC1
000004 CFE1 FFD9      02503         MOVFF   FSR1L, FSR2L
000008 C??? F???      02504         MOVFF   r0x00, POSTDEC1
00000C C??? F???      02505         MOVFF   r0x01, POSTDEC1
000010 C??? F???      02506         MOVFF   r0x02, POSTDEC1
000014 C??? F???      02507         MOVFF   r0x03, POSTDEC1
000018 C??? F???      02508         MOVFF   r0x04, POSTDEC1
00001C C??? F???      02509         MOVFF   r0x05, POSTDEC1
000020 0E02           02510         MOVLW   0x02
000022 CFDB F000      02511         MOVFF   PLUSW2, r0x00
000026 0E03           02512         MOVLW   0x03
000028 CFDB F000      02513         MOVFF   PLUSW2, r0x01
00002C 0E04           02514         MOVLW   0x04
00002E CFDB F000      02515         MOVFF   PLUSW2, r0x02
000032 0E05           02516         MOVLW   0x05
000034 CFDB F000      02517         MOVFF   PLUSW2, r0x03
000038 0E06           02518         MOVLW   0x06
00003A CFDB F000      02519         MOVFF   PLUSW2, r0x04
00003E 0E07           02520         MOVLW   0x07
000040 CFDB F000      02521         MOVFF   PLUSW2, r0x05
                      02522         .line   957; ../../../RF24_c/RF24_c.c   RF24_write_payload( buf, len,multicast ? W_TX_PAYLOAD_NO
                            _ACK : W_TX_PAYLOAD ) ;
000044 50??           02523         MOVF    r0x04, W
000046 E0??           02524         BZ      _00491_DS_
000048 0EB0           02525         MOVLW   0xb0
Message[1301]: Using default destination of 0 (Access Bank).
00004A 6E??           02526         MOVWF   r0x04
00004C D???           02527         BRA     _00492_DS_
00004E                02528 _00491_DS_:
00004E 0EA0           02529         MOVLW   0xa0
Message[1301]: Using default destination of 0 (Access Bank).
000050 6E??           02530         MOVWF   r0x04
000052                02531 _00492_DS_:
000052 50??           02532         MOVF    r0x04, W
Message[1301]: Using default destination of 0 (Access Bank).
000054 6EE5           02533         MOVWF   POSTDEC1
000056 50??           02534         MOVF    r0x03, W
Message[1301]: Using default destination of 0 (Access Bank).
000058 6EE5           02535         MOVWF   POSTDEC1
00005A 50??           02536         MOVF    r0x02, W
Message[1301]: Using default destination of 0 (Access Bank).
00005C 6EE5           02537         MOVWF   POSTDEC1
00005E 50??           02538         MOVF    r0x01, W
Message[1301]: Using default destination of 0 (Access Bank).
000060 6EE5           02539         MOVWF   POSTDEC1
000062 50??           02540         MOVF    r0x00, W
Message[1301]: Using default destination of 0 (Access Bank).
000064 6EE5           02541         MOVWF   POSTDEC1
000066 EC?? F0??      02542         CALL    _RF24_write_payload
00006A 0E05           02543         MOVLW   0x05
00006C 26E1           02544         ADDWF   FSR1L, F
gpasm-1.4.0 #1107 (May  9 2015) build/sdcc/pr   12-5-2016  17:29:30         PAGE 56


LOC    OBJECT CODE    LINE  SOURCE TEXT
  VALUE

                      02545         .line   958; ../../../RF24_c/RF24_c.c   if(startTx){
00006E 50??           02546         MOVF    r0x05, W
000070 E0??           02547         BZ      _00489_DS_
                      02548         .line   959; ../../../RF24_c/RF24_c.c   RF24_ce_d(HIGH);
000072 0E01           02549         MOVLW   0x01
Message[1301]: Using default destination of 0 (Access Bank).
000074 6EE5           02550         MOVWF   POSTDEC1
000076 EC?? F0??      02551         CALL    _RF24_ce_d
00007A 52E6           02552         MOVF    POSTINC1, F
00007C                02553 _00489_DS_:
00007C CFE4 F000      02554         MOVFF   PREINC1, r0x05
000080 CFE4 F000      02555         MOVFF   PREINC1, r0x04
000084 CFE4 F000      02556         MOVFF   PREINC1, r0x03
000088 CFE4 F000      02557         MOVFF   PREINC1, r0x02
00008C CFE4 F000      02558         MOVFF   PREINC1, r0x01
000090 CFE4 F000      02559         MOVFF   PREINC1, r0x00
000094 CFE4 FFD9      02560         MOVFF   PREINC1, FSR2L
000098 0012           02561         RETURN  
                      02562 
                      02563 ; ; Starting pCode block
                      02564 S_RF24_c__RF24_writeFast        code
000000                02565 _RF24_writeFast:
                      02566         .line   943; ../../../RF24_c/RF24_c.c   uint8_t RF24_writeFast(const void* buf, uint8_t len ){
000000 CFD9 FFE5      02567         MOVFF   FSR2L, POSTDEC1
000004 CFE1 FFD9      02568         MOVFF   FSR1L, FSR2L
000008 C??? F???      02569         MOVFF   r0x00, POSTDEC1
00000C C??? F???      02570         MOVFF   r0x01, POSTDEC1
000010 C??? F???      02571         MOVFF   r0x02, POSTDEC1
000014 C??? F???      02572         MOVFF   r0x03, POSTDEC1
000018 0E02           02573         MOVLW   0x02
00001A CFDB F000      02574         MOVFF   PLUSW2, r0x00
00001E 0E03           02575         MOVLW   0x03
000020 CFDB F000      02576         MOVFF   PLUSW2, r0x01
000024 0E04           02577         MOVLW   0x04
000026 CFDB F000      02578         MOVFF   PLUSW2, r0x02
00002A 0E05           02579         MOVLW   0x05
00002C CFDB F000      02580         MOVFF   PLUSW2, r0x03
                      02581         .line   944; ../../../RF24_c/RF24_c.c   return RF24_writeFast_m(buf,len,0);
000030 0E00           02582         MOVLW   0x00
Message[1301]: Using default destination of 0 (Access Bank).
000032 6EE5           02583         MOVWF   POSTDEC1
000034 50??           02584         MOVF    r0x03, W
Message[1301]: Using default destination of 0 (Access Bank).
000036 6EE5           02585         MOVWF   POSTDEC1
000038 50??           02586         MOVF    r0x02, W
Message[1301]: Using default destination of 0 (Access Bank).
00003A 6EE5           02587         MOVWF   POSTDEC1
00003C 50??           02588         MOVF    r0x01, W
Message[1301]: Using default destination of 0 (Access Bank).
00003E 6EE5           02589         MOVWF   POSTDEC1
000040 50??           02590         MOVF    r0x00, W
Message[1301]: Using default destination of 0 (Access Bank).
000042 6EE5           02591         MOVWF   POSTDEC1
gpasm-1.4.0 #1107 (May  9 2015) build/sdcc/pr   12-5-2016  17:29:30         PAGE 57


LOC    OBJECT CODE    LINE  SOURCE TEXT
  VALUE

000044 EC?? F0??      02592         CALL    _RF24_writeFast_m
Message[1301]: Using default destination of 0 (Access Bank).
000048 6E??           02593         MOVWF   r0x00
00004A 0E05           02594         MOVLW   0x05
00004C 26E1           02595         ADDWF   FSR1L, F
00004E 50??           02596         MOVF    r0x00, W
000050 CFE4 F000      02597         MOVFF   PREINC1, r0x03
000054 CFE4 F000      02598         MOVFF   PREINC1, r0x02
000058 CFE4 F000      02599         MOVFF   PREINC1, r0x01
00005C CFE4 F000      02600         MOVFF   PREINC1, r0x00
000060 CFE4 FFD9      02601         MOVFF   PREINC1, FSR2L
000064 0012           02602         RETURN  
                      02603 
                      02604 ; ; Starting pCode block
                      02605 S_RF24_c__RF24_writeFast_m      code
000000                02606 _RF24_writeFast_m:
                      02607         .line   909; ../../../RF24_c/RF24_c.c   uint8_t RF24_writeFast_m( const void* buf, uint8_t len, 
                            const uint8_t multicast )
000000 CFD9 FFE5      02608         MOVFF   FSR2L, POSTDEC1
000004 CFE1 FFD9      02609         MOVFF   FSR1L, FSR2L
000008 C??? F???      02610         MOVFF   r0x00, POSTDEC1
00000C C??? F???      02611         MOVFF   r0x01, POSTDEC1
000010 C??? F???      02612         MOVFF   r0x02, POSTDEC1
000014 C??? F???      02613         MOVFF   r0x03, POSTDEC1
000018 C??? F???      02614         MOVFF   r0x04, POSTDEC1
00001C C??? F???      02615         MOVFF   r0x05, POSTDEC1
000020 0E02           02616         MOVLW   0x02
000022 CFDB F000      02617         MOVFF   PLUSW2, r0x00
000026 0E03           02618         MOVLW   0x03
000028 CFDB F000      02619         MOVFF   PLUSW2, r0x01
00002C 0E04           02620         MOVLW   0x04
00002E CFDB F000      02621         MOVFF   PLUSW2, r0x02
000032 0E05           02622         MOVLW   0x05
000034 CFDB F000      02623         MOVFF   PLUSW2, r0x03
000038 0E06           02624         MOVLW   0x06
00003A CFDB F000      02625         MOVFF   PLUSW2, r0x04
00003E                02626 _00462_DS_:
                      02627         .line   920; ../../../RF24_c/RF24_c.c   while( ( RF24_get_status()  & ( _BV(TX_FULL) ))) {      
                                              //Blocking only if FIFO is full. This will loop and block until TX is successful or fa
                            il
00003E EC?? F0??      02628         CALL    _RF24_get_status
Message[1301]: Using default destination of 0 (Access Bank).
000042 6E??           02629         MOVWF   r0x05
000044 A0??           02630         BTFSS   r0x05, 0
000046 D???           02631         BRA     _00464_DS_
                      02632         .line   922; ../../../RF24_c/RF24_c.c   if( RF24_get_status() & _BV(MAX_RT)){
000048 EC?? F0??      02633         CALL    _RF24_get_status
Message[1301]: Using default destination of 0 (Access Bank).
00004C 6E??           02634         MOVWF   r0x05
00004E A8??           02635         BTFSS   r0x05, 4
000050 D???           02636         BRA     _00462_DS_
                      02637         .line   924; ../../../RF24_c/RF24_c.c   RF24_write_register_d(NRF_STATUS,_BV(MAX_RT) );         
                                      //Clear max retry flag
gpasm-1.4.0 #1107 (May  9 2015) build/sdcc/pr   12-5-2016  17:29:30         PAGE 58


LOC    OBJECT CODE    LINE  SOURCE TEXT
  VALUE

000052 0E10           02638         MOVLW   0x10
Message[1301]: Using default destination of 0 (Access Bank).
000054 6EE5           02639         MOVWF   POSTDEC1
000056 0E07           02640         MOVLW   0x07
Message[1301]: Using default destination of 0 (Access Bank).
000058 6EE5           02641         MOVWF   POSTDEC1
00005A EC?? F0??      02642         CALL    _RF24_write_register_d
00005E 52E6           02643         MOVF    POSTINC1, F
000060 52E6           02644         MOVF    POSTINC1, F
                      02645         .line   925; ../../../RF24_c/RF24_c.c   return 0;                                               
                                                              //Return 0. The previous payload has been retransmitted
Message[1301]: Using default destination of 0 (Access Bank).
000062 6AE8           02646         CLRF    WREG
000064 D???           02647         BRA     _00465_DS_
000066                02648 _00464_DS_:
                      02649         .line   938; ../../../RF24_c/RF24_c.c   RF24_startFastWrite(buf,len,multicast,1);
000066 0E01           02650         MOVLW   0x01
Message[1301]: Using default destination of 0 (Access Bank).
000068 6EE5           02651         MOVWF   POSTDEC1
00006A 50??           02652         MOVF    r0x04, W
Message[1301]: Using default destination of 0 (Access Bank).
00006C 6EE5           02653         MOVWF   POSTDEC1
00006E 50??           02654         MOVF    r0x03, W
Message[1301]: Using default destination of 0 (Access Bank).
000070 6EE5           02655         MOVWF   POSTDEC1
000072 50??           02656         MOVF    r0x02, W
Message[1301]: Using default destination of 0 (Access Bank).
000074 6EE5           02657         MOVWF   POSTDEC1
000076 50??           02658         MOVF    r0x01, W
Message[1301]: Using default destination of 0 (Access Bank).
000078 6EE5           02659         MOVWF   POSTDEC1
00007A 50??           02660         MOVF    r0x00, W
Message[1301]: Using default destination of 0 (Access Bank).
00007C 6EE5           02661         MOVWF   POSTDEC1
00007E EC?? F0??      02662         CALL    _RF24_startFastWrite
000082 0E06           02663         MOVLW   0x06
000084 26E1           02664         ADDWF   FSR1L, F
                      02665         .line   940; ../../../RF24_c/RF24_c.c   return 1;
000086 0E01           02666         MOVLW   0x01
000088                02667 _00465_DS_:
000088 CFE4 F000      02668         MOVFF   PREINC1, r0x05
00008C CFE4 F000      02669         MOVFF   PREINC1, r0x04
000090 CFE4 F000      02670         MOVFF   PREINC1, r0x03
000094 CFE4 F000      02671         MOVFF   PREINC1, r0x02
000098 CFE4 F000      02672         MOVFF   PREINC1, r0x01
00009C CFE4 F000      02673         MOVFF   PREINC1, r0x00
0000A0 CFE4 FFD9      02674         MOVFF   PREINC1, FSR2L
0000A4 0012           02675         RETURN  
                      02676 
                      02677 ; ; Starting pCode block
                      02678 S_RF24_c__RF24_reUseTX  code
000000                02679 _RF24_reUseTX:
                      02680         .line   900; ../../../RF24_c/RF24_c.c   void RF24_reUseTX(void){
gpasm-1.4.0 #1107 (May  9 2015) build/sdcc/pr   12-5-2016  17:29:30         PAGE 59


LOC    OBJECT CODE    LINE  SOURCE TEXT
  VALUE

000000 CFD9 FFE5      02681         MOVFF   FSR2L, POSTDEC1
000004 CFE1 FFD9      02682         MOVFF   FSR1L, FSR2L
                      02683         .line   901; ../../../RF24_c/RF24_c.c   RF24_write_register_d(NRF_STATUS,_BV(MAX_RT) );         
                                      //Clear max retry flag
000008 0E10           02684         MOVLW   0x10
Message[1301]: Using default destination of 0 (Access Bank).
00000A 6EE5           02685         MOVWF   POSTDEC1
00000C 0E07           02686         MOVLW   0x07
Message[1301]: Using default destination of 0 (Access Bank).
00000E 6EE5           02687         MOVWF   POSTDEC1
000010 EC?? F0??      02688         CALL    _RF24_write_register_d
000014 52E6           02689         MOVF    POSTINC1, F
000016 52E6           02690         MOVF    POSTINC1, F
                      02691         .line   902; ../../../RF24_c/RF24_c.c   RF24_spiTrans(REUSE_TX_PL );
000018 0EE3           02692         MOVLW   0xe3
Message[1301]: Using default destination of 0 (Access Bank).
00001A 6EE5           02693         MOVWF   POSTDEC1
00001C EC?? F0??      02694         CALL    _RF24_spiTrans
000020 52E6           02695         MOVF    POSTINC1, F
                      02696         .line   903; ../../../RF24_c/RF24_c.c   RF24_ce_d(LOW);                                         
                                                              //Re-Transfer packet
000022 0E00           02697         MOVLW   0x00
Message[1301]: Using default destination of 0 (Access Bank).
000024 6EE5           02698         MOVWF   POSTDEC1
000026 EC?? F0??      02699         CALL    _RF24_ce_d
00002A 52E6           02700         MOVF    POSTINC1, F
                      02701         .line   904; ../../../RF24_c/RF24_c.c   RF24_ce_d(HIGH);
00002C 0E01           02702         MOVLW   0x01
Message[1301]: Using default destination of 0 (Access Bank).
00002E 6EE5           02703         MOVWF   POSTDEC1
000030 EC?? F0??      02704         CALL    _RF24_ce_d
000034 52E6           02705         MOVF    POSTINC1, F
000036 CFE4 FFD9      02706         MOVFF   PREINC1, FSR2L
00003A 0012           02707         RETURN  
                      02708 
                      02709 ; ; Starting pCode block
                      02710 S_RF24_c__RF24_writeBlocking    code
000000                02711 _RF24_writeBlocking:
                      02712         .line   866; ../../../RF24_c/RF24_c.c   uint8_t RF24_writeBlocking(const void* buf, uint8_t len,
                             uint32_t timeout )
000000 CFD9 FFE5      02713         MOVFF   FSR2L, POSTDEC1
000004 CFE1 FFD9      02714         MOVFF   FSR1L, FSR2L
000008 C??? F???      02715         MOVFF   r0x00, POSTDEC1
00000C C??? F???      02716         MOVFF   r0x01, POSTDEC1
000010 C??? F???      02717         MOVFF   r0x02, POSTDEC1
000014 C??? F???      02718         MOVFF   r0x03, POSTDEC1
000018 C??? F???      02719         MOVFF   r0x04, POSTDEC1
00001C C??? F???      02720         MOVFF   r0x05, POSTDEC1
000020 C??? F???      02721         MOVFF   r0x06, POSTDEC1
000024 C??? F???      02722         MOVFF   r0x07, POSTDEC1
000028 C??? F???      02723         MOVFF   r0x08, POSTDEC1
00002C C??? F???      02724         MOVFF   r0x09, POSTDEC1
000030 C??? F???      02725         MOVFF   r0x0a, POSTDEC1
gpasm-1.4.0 #1107 (May  9 2015) build/sdcc/pr   12-5-2016  17:29:30         PAGE 60


LOC    OBJECT CODE    LINE  SOURCE TEXT
  VALUE

000034 C??? F???      02726         MOVFF   r0x0b, POSTDEC1
000038 C??? F???      02727         MOVFF   r0x0c, POSTDEC1
00003C C??? F???      02728         MOVFF   r0x0d, POSTDEC1
000040 C??? F???      02729         MOVFF   r0x0e, POSTDEC1
000044 C??? F???      02730         MOVFF   r0x0f, POSTDEC1
000048 0E02           02731         MOVLW   0x02
00004A CFDB F000      02732         MOVFF   PLUSW2, r0x00
00004E 0E03           02733         MOVLW   0x03
000050 CFDB F000      02734         MOVFF   PLUSW2, r0x01
000054 0E04           02735         MOVLW   0x04
000056 CFDB F000      02736         MOVFF   PLUSW2, r0x02
00005A 0E05           02737         MOVLW   0x05
00005C CFDB F000      02738         MOVFF   PLUSW2, r0x03
000060 0E06           02739         MOVLW   0x06
000062 CFDB F000      02740         MOVFF   PLUSW2, r0x04
000066 0E07           02741         MOVLW   0x07
000068 CFDB F000      02742         MOVFF   PLUSW2, r0x05
00006C 0E08           02743         MOVLW   0x08
00006E CFDB F000      02744         MOVFF   PLUSW2, r0x06
000072 0E09           02745         MOVLW   0x09
000074 CFDB F000      02746         MOVFF   PLUSW2, r0x07
                      02747         .line   873; ../../../RF24_c/RF24_c.c   uint32_t timer = millis();                              
                                                      //Get the time that the payload transmission started
000078 EC?? F0??      02748         CALL    _millis
Message[1301]: Using default destination of 0 (Access Bank).
00007C 6E??           02749         MOVWF   r0x08
00007E CFF3 F000      02750         MOVFF   PRODL, r0x09
000082 CFF4 F000      02751         MOVFF   PRODH, r0x0a
000086 CFE9 F000      02752         MOVFF   FSR0L, r0x0b
00008A                02753 _00431_DS_:
                      02754         .line   875; ../../../RF24_c/RF24_c.c   while( ( RF24_get_status()  & ( _BV(TX_FULL) ))) {      
                                      //Blocking only if FIFO is full. This will loop and block until TX is successful or timeout
00008A EC?? F0??      02755         CALL    _RF24_get_status
Message[1301]: Using default destination of 0 (Access Bank).
00008E 6E??           02756         MOVWF   r0x0c
000090 A0??           02757         BTFSS   r0x0c, 0
000092 D???           02758         BRA     _00433_DS_
                      02759         .line   877; ../../../RF24_c/RF24_c.c   if( RF24_get_status() & _BV(MAX_RT)){                   
                                              //If MAX Retries have been reached
000094 EC?? F0??      02760         CALL    _RF24_get_status
Message[1301]: Using default destination of 0 (Access Bank).
000098 6E??           02761         MOVWF   r0x0c
00009A A8??           02762         BTFSS   r0x0c, 4
00009C D???           02763         BRA     _00431_DS_
                      02764         .line   878; ../../../RF24_c/RF24_c.c   RF24_reUseTX();                                         
                                                              //Set re-transmit and clear the MAX_RT interrupt flag
00009E EC?? F0??      02765         CALL    _RF24_reUseTX
                      02766         .line   879; ../../../RF24_c/RF24_c.c   if(millis() - timer > timeout){ return 0; }             
                              //If this payload has exceeded the user-defined timeout, exit and return 0
0000A2 EC?? F0??      02767         CALL    _millis
Message[1301]: Using default destination of 0 (Access Bank).
0000A6 6E??           02768         MOVWF   r0x0c
0000A8 CFF3 F000      02769         MOVFF   PRODL, r0x0d
gpasm-1.4.0 #1107 (May  9 2015) build/sdcc/pr   12-5-2016  17:29:30         PAGE 61


LOC    OBJECT CODE    LINE  SOURCE TEXT
  VALUE

0000AC CFF4 F000      02770         MOVFF   PRODH, r0x0e
0000B0 CFE9 F000      02771         MOVFF   FSR0L, r0x0f
0000B4 50??           02772         MOVF    r0x08, W
0000B6 5E??           02773         SUBWF   r0x0c, F
0000B8 50??           02774         MOVF    r0x09, W
0000BA 5A??           02775         SUBWFB  r0x0d, F
0000BC 50??           02776         MOVF    r0x0a, W
0000BE 5A??           02777         SUBWFB  r0x0e, F
0000C0 50??           02778         MOVF    r0x0b, W
0000C2 5A??           02779         SUBWFB  r0x0f, F
0000C4 50??           02780         MOVF    r0x0f, W
0000C6 5C??           02781         SUBWF   r0x07, W
0000C8 E1??           02782         BNZ     _00450_DS_
0000CA 50??           02783         MOVF    r0x0e, W
0000CC 5C??           02784         SUBWF   r0x06, W
0000CE E1??           02785         BNZ     _00450_DS_
0000D0 50??           02786         MOVF    r0x0d, W
0000D2 5C??           02787         SUBWF   r0x05, W
0000D4 E1??           02788         BNZ     _00450_DS_
0000D6 50??           02789         MOVF    r0x0c, W
0000D8 5C??           02790         SUBWF   r0x04, W
0000DA                02791 _00450_DS_:
0000DA E2??           02792         BC      _00431_DS_
Message[1301]: Using default destination of 0 (Access Bank).
0000DC 6AE8           02793         CLRF    WREG
0000DE D???           02794         BRA     _00434_DS_
0000E0                02795 _00433_DS_:
                      02796         .line   893; ../../../RF24_c/RF24_c.c   RF24_startFastWrite(buf,len,0,1);                       
                                                                      //Write the payload if a buffer is clear
0000E0 0E01           02797         MOVLW   0x01
Message[1301]: Using default destination of 0 (Access Bank).
0000E2 6EE5           02798         MOVWF   POSTDEC1
0000E4 0E00           02799         MOVLW   0x00
Message[1301]: Using default destination of 0 (Access Bank).
0000E6 6EE5           02800         MOVWF   POSTDEC1
0000E8 50??           02801         MOVF    r0x03, W
Message[1301]: Using default destination of 0 (Access Bank).
0000EA 6EE5           02802         MOVWF   POSTDEC1
0000EC 50??           02803         MOVF    r0x02, W
Message[1301]: Using default destination of 0 (Access Bank).
0000EE 6EE5           02804         MOVWF   POSTDEC1
0000F0 50??           02805         MOVF    r0x01, W
Message[1301]: Using default destination of 0 (Access Bank).
0000F2 6EE5           02806         MOVWF   POSTDEC1
0000F4 50??           02807         MOVF    r0x00, W
Message[1301]: Using default destination of 0 (Access Bank).
0000F6 6EE5           02808         MOVWF   POSTDEC1
0000F8 EC?? F0??      02809         CALL    _RF24_startFastWrite
0000FC 0E06           02810         MOVLW   0x06
0000FE 26E1           02811         ADDWF   FSR1L, F
                      02812         .line   895; ../../../RF24_c/RF24_c.c   return 1;                                               
                                                                              //Return 1 to indicate successful transmission
000100 0E01           02813         MOVLW   0x01
gpasm-1.4.0 #1107 (May  9 2015) build/sdcc/pr   12-5-2016  17:29:30         PAGE 62


LOC    OBJECT CODE    LINE  SOURCE TEXT
  VALUE

000102                02814 _00434_DS_:
000102 CFE4 F000      02815         MOVFF   PREINC1, r0x0f
000106 CFE4 F000      02816         MOVFF   PREINC1, r0x0e
00010A CFE4 F000      02817         MOVFF   PREINC1, r0x0d
00010E CFE4 F000      02818         MOVFF   PREINC1, r0x0c
000112 CFE4 F000      02819         MOVFF   PREINC1, r0x0b
000116 CFE4 F000      02820         MOVFF   PREINC1, r0x0a
00011A CFE4 F000      02821         MOVFF   PREINC1, r0x09
00011E CFE4 F000      02822         MOVFF   PREINC1, r0x08
000122 CFE4 F000      02823         MOVFF   PREINC1, r0x07
000126 CFE4 F000      02824         MOVFF   PREINC1, r0x06
00012A CFE4 F000      02825         MOVFF   PREINC1, r0x05
00012E CFE4 F000      02826         MOVFF   PREINC1, r0x04
000132 CFE4 F000      02827         MOVFF   PREINC1, r0x03
000136 CFE4 F000      02828         MOVFF   PREINC1, r0x02
00013A CFE4 F000      02829         MOVFF   PREINC1, r0x01
00013E CFE4 F000      02830         MOVFF   PREINC1, r0x00
000142 CFE4 FFD9      02831         MOVFF   PREINC1, FSR2L
000146 0012           02832         RETURN  
                      02833 
                      02834 ; ; Starting pCode block
                      02835 S_RF24_c__RF24_write    code
000000                02836 _RF24_write:
                      02837         .line   860; ../../../RF24_c/RF24_c.c   uint8_t RF24_write(const void* buf, uint8_t len ){
000000 CFD9 FFE5      02838         MOVFF   FSR2L, POSTDEC1
000004 CFE1 FFD9      02839         MOVFF   FSR1L, FSR2L
000008 C??? F???      02840         MOVFF   r0x00, POSTDEC1
00000C C??? F???      02841         MOVFF   r0x01, POSTDEC1
000010 C??? F???      02842         MOVFF   r0x02, POSTDEC1
000014 C??? F???      02843         MOVFF   r0x03, POSTDEC1
000018 0E02           02844         MOVLW   0x02
00001A CFDB F000      02845         MOVFF   PLUSW2, r0x00
00001E 0E03           02846         MOVLW   0x03
000020 CFDB F000      02847         MOVFF   PLUSW2, r0x01
000024 0E04           02848         MOVLW   0x04
000026 CFDB F000      02849         MOVFF   PLUSW2, r0x02
00002A 0E05           02850         MOVLW   0x05
00002C CFDB F000      02851         MOVFF   PLUSW2, r0x03
                      02852         .line   861; ../../../RF24_c/RF24_c.c   return RF24_write_m(buf,len,0);
000030 0E00           02853         MOVLW   0x00
Message[1301]: Using default destination of 0 (Access Bank).
000032 6EE5           02854         MOVWF   POSTDEC1
000034 50??           02855         MOVF    r0x03, W
Message[1301]: Using default destination of 0 (Access Bank).
000036 6EE5           02856         MOVWF   POSTDEC1
000038 50??           02857         MOVF    r0x02, W
Message[1301]: Using default destination of 0 (Access Bank).
00003A 6EE5           02858         MOVWF   POSTDEC1
00003C 50??           02859         MOVF    r0x01, W
Message[1301]: Using default destination of 0 (Access Bank).
00003E 6EE5           02860         MOVWF   POSTDEC1
000040 50??           02861         MOVF    r0x00, W
Message[1301]: Using default destination of 0 (Access Bank).
gpasm-1.4.0 #1107 (May  9 2015) build/sdcc/pr   12-5-2016  17:29:30         PAGE 63


LOC    OBJECT CODE    LINE  SOURCE TEXT
  VALUE

000042 6EE5           02862         MOVWF   POSTDEC1
000044 EC?? F0??      02863         CALL    _RF24_write_m
Message[1301]: Using default destination of 0 (Access Bank).
000048 6E??           02864         MOVWF   r0x00
00004A 0E05           02865         MOVLW   0x05
00004C 26E1           02866         ADDWF   FSR1L, F
00004E 50??           02867         MOVF    r0x00, W
000050 CFE4 F000      02868         MOVFF   PREINC1, r0x03
000054 CFE4 F000      02869         MOVFF   PREINC1, r0x02
000058 CFE4 F000      02870         MOVFF   PREINC1, r0x01
00005C CFE4 F000      02871         MOVFF   PREINC1, r0x00
000060 CFE4 FFD9      02872         MOVFF   PREINC1, FSR2L
000064 0012           02873         RETURN  
                      02874 
                      02875 ; ; Starting pCode block
                      02876 S_RF24_c__RF24_write_m  code
000000                02877 _RF24_write_m:
                      02878         .line   822; ../../../RF24_c/RF24_c.c   uint8_t RF24_write_m( const void* buf, uint8_t len, cons
                            t uint8_t multicast )
000000 CFD9 FFE5      02879         MOVFF   FSR2L, POSTDEC1
000004 CFE1 FFD9      02880         MOVFF   FSR1L, FSR2L
000008 C??? F???      02881         MOVFF   r0x00, POSTDEC1
00000C C??? F???      02882         MOVFF   r0x01, POSTDEC1
000010 C??? F???      02883         MOVFF   r0x02, POSTDEC1
000014 C??? F???      02884         MOVFF   r0x03, POSTDEC1
000018 C??? F???      02885         MOVFF   r0x04, POSTDEC1
00001C 0E02           02886         MOVLW   0x02
00001E CFDB F000      02887         MOVFF   PLUSW2, r0x00
000022 0E03           02888         MOVLW   0x03
000024 CFDB F000      02889         MOVFF   PLUSW2, r0x01
000028 0E04           02890         MOVLW   0x04
00002A CFDB F000      02891         MOVFF   PLUSW2, r0x02
00002E 0E05           02892         MOVLW   0x05
000030 CFDB F000      02893         MOVFF   PLUSW2, r0x03
000034 0E06           02894         MOVLW   0x06
000036 CFDB F000      02895         MOVFF   PLUSW2, r0x04
                      02896         .line   827; ../../../RF24_c/RF24_c.c   RF24_startFastWrite(buf,len,multicast,1);
00003A 0E01           02897         MOVLW   0x01
Message[1301]: Using default destination of 0 (Access Bank).
00003C 6EE5           02898         MOVWF   POSTDEC1
00003E 50??           02899         MOVF    r0x04, W
Message[1301]: Using default destination of 0 (Access Bank).
000040 6EE5           02900         MOVWF   POSTDEC1
000042 50??           02901         MOVF    r0x03, W
Message[1301]: Using default destination of 0 (Access Bank).
000044 6EE5           02902         MOVWF   POSTDEC1
000046 50??           02903         MOVF    r0x02, W
Message[1301]: Using default destination of 0 (Access Bank).
000048 6EE5           02904         MOVWF   POSTDEC1
00004A 50??           02905         MOVF    r0x01, W
Message[1301]: Using default destination of 0 (Access Bank).
00004C 6EE5           02906         MOVWF   POSTDEC1
00004E 50??           02907         MOVF    r0x00, W
gpasm-1.4.0 #1107 (May  9 2015) build/sdcc/pr   12-5-2016  17:29:30         PAGE 64


LOC    OBJECT CODE    LINE  SOURCE TEXT
  VALUE

Message[1301]: Using default destination of 0 (Access Bank).
000050 6EE5           02908         MOVWF   POSTDEC1
000052 EC?? F0??      02909         CALL    _RF24_startFastWrite
000056 0E06           02910         MOVLW   0x06
000058 26E1           02911         ADDWF   FSR1L, F
00005A                02912 _00400_DS_:
                      02913         .line   834; ../../../RF24_c/RF24_c.c   while( ! ( RF24_get_status()  & ( _BV(TX_DS) | _BV(MAX_R
                            T) ))) { 
00005A EC?? F0??      02914         CALL    _RF24_get_status
Message[1301]: Using default destination of 0 (Access Bank).
00005E 6E??           02915         MOVWF   r0x00
000060 50??           02916         MOVF    r0x00, W
000062 0B30           02917         ANDLW   0x30
000064 E0??           02918         BZ      _00400_DS_
                      02919         .line   847; ../../../RF24_c/RF24_c.c   RF24_ce_d(LOW);
000066 0E00           02920         MOVLW   0x00
Message[1301]: Using default destination of 0 (Access Bank).
000068 6EE5           02921         MOVWF   POSTDEC1
00006A EC?? F0??      02922         CALL    _RF24_ce_d
00006E 52E6           02923         MOVF    POSTINC1, F
                      02924         .line   849; ../../../RF24_c/RF24_c.c   status = RF24_write_register_d(NRF_STATUS,_BV(RX_DR) | _
                            BV(TX_DS) | _BV(MAX_RT) );
000070 0E70           02925         MOVLW   0x70
Message[1301]: Using default destination of 0 (Access Bank).
000072 6EE5           02926         MOVWF   POSTDEC1
000074 0E07           02927         MOVLW   0x07
Message[1301]: Using default destination of 0 (Access Bank).
000076 6EE5           02928         MOVWF   POSTDEC1
000078 EC?? F0??      02929         CALL    _RF24_write_register_d
Message[1301]: Using default destination of 0 (Access Bank).
00007C 6E??           02930         MOVWF   r0x00
00007E 52E6           02931         MOVF    POSTINC1, F
000080 52E6           02932         MOVF    POSTINC1, F
                      02933         .line   852; ../../../RF24_c/RF24_c.c   if( status & _BV(MAX_RT)){
000082 A8??           02934         BTFSS   r0x00, 4
000084 D???           02935         BRA     _00404_DS_
                      02936         .line   853; ../../../RF24_c/RF24_c.c   RF24_flush_tx(); //Only going to be 1 packet int the FIF
                            O at a time using this method, so just flush
000086 EC?? F0??      02937         CALL    _RF24_flush_tx
                      02938         .line   854; ../../../RF24_c/RF24_c.c   return 0;
Message[1301]: Using default destination of 0 (Access Bank).
00008A 6AE8           02939         CLRF    WREG
00008C D???           02940         BRA     _00405_DS_
00008E                02941 _00404_DS_:
                      02942         .line   857; ../../../RF24_c/RF24_c.c   return 1;
00008E 0E01           02943         MOVLW   0x01
000090                02944 _00405_DS_:
000090 CFE4 F000      02945         MOVFF   PREINC1, r0x04
000094 CFE4 F000      02946         MOVFF   PREINC1, r0x03
000098 CFE4 F000      02947         MOVFF   PREINC1, r0x02
00009C CFE4 F000      02948         MOVFF   PREINC1, r0x01
0000A0 CFE4 F000      02949         MOVFF   PREINC1, r0x00
0000A4 CFE4 FFD9      02950         MOVFF   PREINC1, FSR2L
gpasm-1.4.0 #1107 (May  9 2015) build/sdcc/pr   12-5-2016  17:29:30         PAGE 65


LOC    OBJECT CODE    LINE  SOURCE TEXT
  VALUE

0000A8 0012           02951         RETURN  
                      02952 
                      02953 ; ; Starting pCode block
                      02954 S_RF24_c__RF24_powerUp  code
000000                02955 _RF24_powerUp:
                      02956         .line   791; ../../../RF24_c/RF24_c.c   void RF24_powerUp(void)
000000 CFD9 FFE5      02957         MOVFF   FSR2L, POSTDEC1
000004 CFE1 FFD9      02958         MOVFF   FSR1L, FSR2L
000008 C??? F???      02959         MOVFF   r0x00, POSTDEC1
                      02960         .line   793; ../../../RF24_c/RF24_c.c   uint8_t cfg = RF24_read_register_d(NRF_CONFIG);
00000C 0E00           02961         MOVLW   0x00
Message[1301]: Using default destination of 0 (Access Bank).
00000E 6EE5           02962         MOVWF   POSTDEC1
000010 EC?? F0??      02963         CALL    _RF24_read_register_d
Message[1301]: Using default destination of 0 (Access Bank).
000014 6E??           02964         MOVWF   r0x00
000016 52E6           02965         MOVF    POSTINC1, F
                      02966         .line   796; ../../../RF24_c/RF24_c.c   if (!(cfg & _BV(PWR_UP))){
000018 B2??           02967         BTFSC   r0x00, 1
00001A D???           02968         BRA     _00390_DS_
                      02969         .line   797; ../../../RF24_c/RF24_c.c   RF24_write_register_d(NRF_CONFIG, cfg | _BV(PWR_UP));
00001C 82??           02970         BSF     r0x00, 1
00001E 50??           02971         MOVF    r0x00, W
Message[1301]: Using default destination of 0 (Access Bank).
000020 6EE5           02972         MOVWF   POSTDEC1
000022 0E00           02973         MOVLW   0x00
Message[1301]: Using default destination of 0 (Access Bank).
000024 6EE5           02974         MOVWF   POSTDEC1
000026 EC?? F0??      02975         CALL    _RF24_write_register_d
00002A 52E6           02976         MOVF    POSTINC1, F
00002C 52E6           02977         MOVF    POSTINC1, F
                      02978         .line   802; ../../../RF24_c/RF24_c.c   delay(5);
00002E 0E00           02979         MOVLW   0x00
Message[1301]: Using default destination of 0 (Access Bank).
000030 6EE5           02980         MOVWF   POSTDEC1
000032 0E05           02981         MOVLW   0x05
Message[1301]: Using default destination of 0 (Access Bank).
000034 6EE5           02982         MOVWF   POSTDEC1
000036 EC?? F0??      02983         CALL    _delay
00003A 52E6           02984         MOVF    POSTINC1, F
00003C 52E6           02985         MOVF    POSTINC1, F
00003E                02986 _00390_DS_:
00003E CFE4 F000      02987         MOVFF   PREINC1, r0x00
000042 CFE4 FFD9      02988         MOVFF   PREINC1, FSR2L
000046 0012           02989         RETURN  
                      02990 
                      02991 ; ; Starting pCode block
                      02992 S_RF24_c__RF24_powerDown        code
000000                02993 _RF24_powerDown:
                      02994         .line   782; ../../../RF24_c/RF24_c.c   void RF24_powerDown(void)
000000 CFD9 FFE5      02995         MOVFF   FSR2L, POSTDEC1
000004 CFE1 FFD9      02996         MOVFF   FSR1L, FSR2L
000008 C??? F???      02997         MOVFF   r0x00, POSTDEC1
gpasm-1.4.0 #1107 (May  9 2015) build/sdcc/pr   12-5-2016  17:29:30         PAGE 66


LOC    OBJECT CODE    LINE  SOURCE TEXT
  VALUE

                      02998         .line   784; ../../../RF24_c/RF24_c.c   RF24_ce_d(LOW); // Guarantee CE is low on powerDown
00000C 0E00           02999         MOVLW   0x00
Message[1301]: Using default destination of 0 (Access Bank).
00000E 6EE5           03000         MOVWF   POSTDEC1
000010 EC?? F0??      03001         CALL    _RF24_ce_d
000014 52E6           03002         MOVF    POSTINC1, F
                      03003         .line   785; ../../../RF24_c/RF24_c.c   RF24_write_register_d(NRF_CONFIG,RF24_read_register_d(NR
                            F_CONFIG) & ~_BV(PWR_UP));
000016 0E00           03004         MOVLW   0x00
Message[1301]: Using default destination of 0 (Access Bank).
000018 6EE5           03005         MOVWF   POSTDEC1
00001A EC?? F0??      03006         CALL    _RF24_read_register_d
Message[1301]: Using default destination of 0 (Access Bank).
00001E 6E??           03007         MOVWF   r0x00
000020 52E6           03008         MOVF    POSTINC1, F
000022 92??           03009         BCF     r0x00, 1
000024 50??           03010         MOVF    r0x00, W
Message[1301]: Using default destination of 0 (Access Bank).
000026 6EE5           03011         MOVWF   POSTDEC1
000028 0E00           03012         MOVLW   0x00
Message[1301]: Using default destination of 0 (Access Bank).
00002A 6EE5           03013         MOVWF   POSTDEC1
00002C EC?? F0??      03014         CALL    _RF24_write_register_d
000030 52E6           03015         MOVF    POSTINC1, F
000032 52E6           03016         MOVF    POSTINC1, F
000034 CFE4 F000      03017         MOVFF   PREINC1, r0x00
000038 CFE4 FFD9      03018         MOVFF   PREINC1, FSR2L
00003C 0012           03019         RETURN  
                      03020 
                      03021 ; ; Starting pCode block
                      03022 S_RF24_c__RF24_stopListening    code
000000                03023 _RF24_stopListening:
                      03024         .line   754; ../../../RF24_c/RF24_c.c   void RF24_stopListening(void)
000000 CFD9 FFE5      03025         MOVFF   FSR2L, POSTDEC1
000004 CFE1 FFD9      03026         MOVFF   FSR1L, FSR2L
000008 C??? F???      03027         MOVFF   r0x00, POSTDEC1
00000C C??? F???      03028         MOVFF   r0x01, POSTDEC1
000010 C??? F???      03029         MOVFF   r0x02, POSTDEC1
                      03030         .line   756; ../../../RF24_c/RF24_c.c   RF24_ce_d(LOW);
000014 0E00           03031         MOVLW   0x00
Message[1301]: Using default destination of 0 (Access Bank).
000016 6EE5           03032         MOVWF   POSTDEC1
000018 EC?? F0??      03033         CALL    _RF24_ce_d
00001C 52E6           03034         MOVF    POSTINC1, F
00001E ????           03035         BANKSEL (_rf + 13)
                      03036         .line   758; ../../../RF24_c/RF24_c.c   delayMicroseconds(rf.txDelay);
000020 51??           03037         MOVF    (_rf + 13), W, B
Message[1301]: Using default destination of 0 (Access Bank).
000022 6E??           03038         MOVWF   r0x00
000024 50??           03039         MOVF    r0x00, W
Message[1301]: Using default destination of 0 (Access Bank).
000026 6EE5           03040         MOVWF   POSTDEC1
000028 EC?? F0??      03041         CALL    _delayMicroseconds
gpasm-1.4.0 #1107 (May  9 2015) build/sdcc/pr   12-5-2016  17:29:30         PAGE 67


LOC    OBJECT CODE    LINE  SOURCE TEXT
  VALUE

00002C 52E6           03042         MOVF    POSTINC1, F
                      03043         .line   760; ../../../RF24_c/RF24_c.c   if(RF24_read_register_d(FEATURE) & _BV(EN_ACK_PAY)){
00002E 0E1D           03044         MOVLW   0x1d
Message[1301]: Using default destination of 0 (Access Bank).
000030 6EE5           03045         MOVWF   POSTDEC1
000032 EC?? F0??      03046         CALL    _RF24_read_register_d
Message[1301]: Using default destination of 0 (Access Bank).
000036 6E??           03047         MOVWF   r0x00
000038 52E6           03048         MOVF    POSTINC1, F
00003A A2??           03049         BTFSS   r0x00, 1
00003C D???           03050         BRA     _00369_DS_
00003E ????           03051         BANKSEL (_rf + 13)
                      03052         .line   761; ../../../RF24_c/RF24_c.c   delayMicroseconds(rf.txDelay); //200
000040 51??           03053         MOVF    (_rf + 13), W, B
Message[1301]: Using default destination of 0 (Access Bank).
000042 6E??           03054         MOVWF   r0x00
000044 50??           03055         MOVF    r0x00, W
Message[1301]: Using default destination of 0 (Access Bank).
000046 6EE5           03056         MOVWF   POSTDEC1
000048 EC?? F0??      03057         CALL    _delayMicroseconds
00004C 52E6           03058         MOVF    POSTINC1, F
                      03059         .line   762; ../../../RF24_c/RF24_c.c   RF24_flush_tx();
00004E EC?? F0??      03060         CALL    _RF24_flush_tx
000052                03061 _00369_DS_:
                      03062         .line   765; ../../../RF24_c/RF24_c.c   RF24_write_register_d(NRF_CONFIG, ( RF24_read_register_d
                            (NRF_CONFIG) ) & ~_BV(PRIM_RX) );
000052 0E00           03063         MOVLW   0x00
Message[1301]: Using default destination of 0 (Access Bank).
000054 6EE5           03064         MOVWF   POSTDEC1
000056 EC?? F0??      03065         CALL    _RF24_read_register_d
Message[1301]: Using default destination of 0 (Access Bank).
00005A 6E??           03066         MOVWF   r0x00
00005C 52E6           03067         MOVF    POSTINC1, F
00005E 90??           03068         BCF     r0x00, 0
000060 50??           03069         MOVF    r0x00, W
Message[1301]: Using default destination of 0 (Access Bank).
000062 6EE5           03070         MOVWF   POSTDEC1
000064 0E00           03071         MOVLW   0x00
Message[1301]: Using default destination of 0 (Access Bank).
000066 6EE5           03072         MOVWF   POSTDEC1
000068 EC?? F0??      03073         CALL    _RF24_write_register_d
00006C 52E6           03074         MOVF    POSTINC1, F
00006E 52E6           03075         MOVF    POSTINC1, F
                      03076         .line   774; ../../../RF24_c/RF24_c.c   RF24_write_register_d(EN_RXADDR,RF24_read_register_d(EN_
                            RXADDR) | _BV(pgm_read_byte(&child_pipe_enable[0]))); // Enable RX on pipe0
000070 0E02           03077         MOVLW   0x02
Message[1301]: Using default destination of 0 (Access Bank).
000072 6EE5           03078         MOVWF   POSTDEC1
000074 EC?? F0??      03079         CALL    _RF24_read_register_d
Message[1301]: Using default destination of 0 (Access Bank).
000078 6E??           03080         MOVWF   r0x00
00007A 52E6           03081         MOVF    POSTINC1, F
00007C 0E??           03082         MOVLW   LOW(_child_pipe_enable)
gpasm-1.4.0 #1107 (May  9 2015) build/sdcc/pr   12-5-2016  17:29:30         PAGE 68


LOC    OBJECT CODE    LINE  SOURCE TEXT
  VALUE

Message[1301]: Using default destination of 0 (Access Bank).
00007E 6EF6           03083         MOVWF   TBLPTRL
000080 0E??           03084         MOVLW   HIGH(_child_pipe_enable)
Message[1301]: Using default destination of 0 (Access Bank).
000082 6EF7           03085         MOVWF   TBLPTRH
000084 0E??           03086         MOVLW   UPPER(_child_pipe_enable)
Message[1301]: Using default destination of 0 (Access Bank).
000086 6EF8           03087         MOVWF   TBLPTRU
000088 0009           03088         TBLRD*+ 
00008A CFF5 F000      03089         MOVFF   TABLAT, r0x01
00008E 0E01           03090         MOVLW   0x01
Message[1301]: Using default destination of 0 (Access Bank).
000090 6E??           03091         MOVWF   r0x02
000092 50??           03092         MOVF    r0x01, W
000094 E0??           03093         BZ      _00377_DS_
Message[1301]: Using default destination of 0 (Access Bank).
000096 6CE8           03094         NEGF    WREG
000098 90D8           03095         BCF     STATUS, 0
00009A                03096 _00378_DS_:
00009A 36??           03097         RLCF    r0x02, F
00009C 0F01           03098         ADDLW   0x01
00009E E3??           03099         BNC     _00378_DS_
0000A0                03100 _00377_DS_:
0000A0 50??           03101         MOVF    r0x02, W
0000A2 12??           03102         IORWF   r0x00, F
0000A4 50??           03103         MOVF    r0x00, W
Message[1301]: Using default destination of 0 (Access Bank).
0000A6 6EE5           03104         MOVWF   POSTDEC1
0000A8 0E02           03105         MOVLW   0x02
Message[1301]: Using default destination of 0 (Access Bank).
0000AA 6EE5           03106         MOVWF   POSTDEC1
0000AC EC?? F0??      03107         CALL    _RF24_write_register_d
0000B0 52E6           03108         MOVF    POSTINC1, F
0000B2 52E6           03109         MOVF    POSTINC1, F
0000B4 CFE4 F000      03110         MOVFF   PREINC1, r0x02
0000B8 CFE4 F000      03111         MOVFF   PREINC1, r0x01
0000BC CFE4 F000      03112         MOVFF   PREINC1, r0x00
0000C0 CFE4 FFD9      03113         MOVFF   PREINC1, FSR2L
0000C4 0012           03114         RETURN  
                      03115 
                      03116 ; ; Starting pCode block
                      03117 S_RF24_c__RF24_startListening   code
000000                03118 _RF24_startListening:
                      03119         .line   723; ../../../RF24_c/RF24_c.c   void RF24_startListening(void)
000000 CFD9 FFE5      03120         MOVFF   FSR2L, POSTDEC1
000004 CFE1 FFD9      03121         MOVFF   FSR1L, FSR2L
000008 C??? F???      03122         MOVFF   r0x00, POSTDEC1
00000C C??? F???      03123         MOVFF   r0x01, POSTDEC1
000010 C??? F???      03124         MOVFF   r0x02, POSTDEC1
                      03125         .line   726; ../../../RF24_c/RF24_c.c   RF24_powerUp();
000014 EC?? F0??      03126         CALL    _RF24_powerUp
                      03127         .line   728; ../../../RF24_c/RF24_c.c   RF24_write_register_d(NRF_CONFIG, RF24_read_register_d(N
                            RF_CONFIG) | _BV(PRIM_RX));
gpasm-1.4.0 #1107 (May  9 2015) build/sdcc/pr   12-5-2016  17:29:30         PAGE 69


LOC    OBJECT CODE    LINE  SOURCE TEXT
  VALUE

000018 0E00           03128         MOVLW   0x00
Message[1301]: Using default destination of 0 (Access Bank).
00001A 6EE5           03129         MOVWF   POSTDEC1
00001C EC?? F0??      03130         CALL    _RF24_read_register_d
Message[1301]: Using default destination of 0 (Access Bank).
000020 6E??           03131         MOVWF   r0x00
000022 52E6           03132         MOVF    POSTINC1, F
000024 80??           03133         BSF     r0x00, 0
000026 50??           03134         MOVF    r0x00, W
Message[1301]: Using default destination of 0 (Access Bank).
000028 6EE5           03135         MOVWF   POSTDEC1
00002A 0E00           03136         MOVLW   0x00
Message[1301]: Using default destination of 0 (Access Bank).
00002C 6EE5           03137         MOVWF   POSTDEC1
00002E EC?? F0??      03138         CALL    _RF24_write_register_d
000032 52E6           03139         MOVF    POSTINC1, F
000034 52E6           03140         MOVF    POSTINC1, F
                      03141         .line   729; ../../../RF24_c/RF24_c.c   RF24_write_register_d(NRF_STATUS, _BV(RX_DR) | _BV(TX_DS
                            ) | _BV(MAX_RT) );
000036 0E70           03142         MOVLW   0x70
Message[1301]: Using default destination of 0 (Access Bank).
000038 6EE5           03143         MOVWF   POSTDEC1
00003A 0E07           03144         MOVLW   0x07
Message[1301]: Using default destination of 0 (Access Bank).
00003C 6EE5           03145         MOVWF   POSTDEC1
00003E EC?? F0??      03146         CALL    _RF24_write_register_d
000042 52E6           03147         MOVF    POSTINC1, F
000044 52E6           03148         MOVF    POSTINC1, F
                      03149         .line   730; ../../../RF24_c/RF24_c.c   RF24_ce_d(HIGH);
000046 0E01           03150         MOVLW   0x01
Message[1301]: Using default destination of 0 (Access Bank).
000048 6EE5           03151         MOVWF   POSTDEC1
00004A EC?? F0??      03152         CALL    _RF24_ce_d
00004E 52E6           03153         MOVF    POSTINC1, F
000050 ????           03154         BANKSEL (_rf + 7)
                      03155         .line   732; ../../../RF24_c/RF24_c.c   if (rf.pipe0_reading_address[0] > 0){
000052 51??           03156         MOVF    (_rf + 7), W, B
000054 E0??           03157         BZ      _00350_DS_
                      03158         .line   733; ../../../RF24_c/RF24_c.c   RF24_write_register_c_d(RX_ADDR_P0, rf.pipe0_reading_add
                            ress, rf.addr_width);   
000056 0E??           03159         MOVLW   HIGH(_rf + 7)
Message[1301]: Using default destination of 0 (Access Bank).
000058 6E??           03160         MOVWF   r0x01
00005A 0E??           03161         MOVLW   LOW(_rf + 7)
Message[1301]: Using default destination of 0 (Access Bank).
00005C 6E??           03162         MOVWF   r0x00
00005E 0E80           03163         MOVLW   0x80
Message[1301]: Using default destination of 0 (Access Bank).
000060 6E??           03164         MOVWF   r0x02
000062 ????           03165         BANKSEL (_rf + 12)
000064 51??           03166         MOVF    (_rf + 12), W, B
Message[1301]: Using default destination of 0 (Access Bank).
000066 6EE5           03167         MOVWF   POSTDEC1
gpasm-1.4.0 #1107 (May  9 2015) build/sdcc/pr   12-5-2016  17:29:30         PAGE 70


LOC    OBJECT CODE    LINE  SOURCE TEXT
  VALUE

000068 50??           03168         MOVF    r0x02, W
Message[1301]: Using default destination of 0 (Access Bank).
00006A 6EE5           03169         MOVWF   POSTDEC1
00006C 50??           03170         MOVF    r0x01, W
Message[1301]: Using default destination of 0 (Access Bank).
00006E 6EE5           03171         MOVWF   POSTDEC1
000070 50??           03172         MOVF    r0x00, W
Message[1301]: Using default destination of 0 (Access Bank).
000072 6EE5           03173         MOVWF   POSTDEC1
000074 0E0A           03174         MOVLW   0x0a
Message[1301]: Using default destination of 0 (Access Bank).
000076 6EE5           03175         MOVWF   POSTDEC1
000078 EC?? F0??      03176         CALL    _RF24_write_register_c_d
00007C 0E05           03177         MOVLW   0x05
00007E 26E1           03178         ADDWF   FSR1L, F
000080 D???           03179         BRA     _00351_DS_
000082                03180 _00350_DS_:
                      03181         .line   735; ../../../RF24_c/RF24_c.c   RF24_closeReadingPipe(0);
000082 0E00           03182         MOVLW   0x00
Message[1301]: Using default destination of 0 (Access Bank).
000084 6EE5           03183         MOVWF   POSTDEC1
000086 EC?? F0??      03184         CALL    _RF24_closeReadingPipe
00008A 52E6           03185         MOVF    POSTINC1, F
00008C                03186 _00351_DS_:
                      03187         .line   740; ../../../RF24_c/RF24_c.c   if(RF24_read_register_d(FEATURE) & _BV(EN_ACK_PAY)){
00008C 0E1D           03188         MOVLW   0x1d
Message[1301]: Using default destination of 0 (Access Bank).
00008E 6EE5           03189         MOVWF   POSTDEC1
000090 EC?? F0??      03190         CALL    _RF24_read_register_d
Message[1301]: Using default destination of 0 (Access Bank).
000094 6E??           03191         MOVWF   r0x00
000096 52E6           03192         MOVF    POSTINC1, F
000098 A2??           03193         BTFSS   r0x00, 1
00009A D???           03194         BRA     _00354_DS_
                      03195         .line   741; ../../../RF24_c/RF24_c.c   RF24_flush_tx();
00009C EC?? F0??      03196         CALL    _RF24_flush_tx
0000A0                03197 _00354_DS_:
0000A0 CFE4 F000      03198         MOVFF   PREINC1, r0x02
0000A4 CFE4 F000      03199         MOVFF   PREINC1, r0x01
0000A8 CFE4 F000      03200         MOVFF   PREINC1, r0x00
0000AC CFE4 FFD9      03201         MOVFF   PREINC1, FSR2L
0000B0 0012           03202         RETURN  
                      03203 
                      03204 ; ; Starting pCode block
                      03205 S_RF24_c__RF24_begin    code
000000                03206 _RF24_begin:
                      03207         .line   598; ../../../RF24_c/RF24_c.c   uint8_t RF24_begin(void )
000000 CFD9 FFE5      03208         MOVFF   FSR2L, POSTDEC1
000004 CFE1 FFD9      03209         MOVFF   FSR1L, FSR2L
000008 C??? F???      03210         MOVFF   r0x00, POSTDEC1
00000C C??? F???      03211         MOVFF   r0x01, POSTDEC1
000010 ????           03212         BANKSEL _rf
                      03213         .line   640; ../../../RF24_c/RF24_c.c   if (rf.ce_pin != rf.csn_pin) pinMode(rf.ce_pin,OUTPUT); 
gpasm-1.4.0 #1107 (May  9 2015) build/sdcc/pr   12-5-2016  17:29:30         PAGE 71


LOC    OBJECT CODE    LINE  SOURCE TEXT
  VALUE

                             
000012 51??           03214         MOVF    _rf, W, B
000014 ????           03215         BANKSEL (_rf + 1)
000016 19??           03216         XORWF   (_rf + 1), W, B
000018 E0??           03217         BZ      _00316_DS_
00001A 0E00           03218         MOVLW   0x00
Message[1301]: Using default destination of 0 (Access Bank).
00001C 6EE5           03219         MOVWF   POSTDEC1
00001E ????           03220         BANKSEL _rf
000020 51??           03221         MOVF    _rf, W, B
Message[1301]: Using default destination of 0 (Access Bank).
000022 6EE5           03222         MOVWF   POSTDEC1
000024 EC?? F0??      03223         CALL    _pinMode
000028 52E6           03224         MOVF    POSTINC1, F
00002A 52E6           03225         MOVF    POSTINC1, F
00002C                03226 _00316_DS_:
                      03227         .line   643; ../../../RF24_c/RF24_c.c   if (rf.ce_pin != rf.csn_pin)
00002C C??? F???      03228         MOVFF   (_rf + 1), r0x00
000030 ????           03229         BANKSEL _rf
000032 51??           03230         MOVF    _rf, W, B
000034 18??           03231         XORWF   r0x00, W
000036 E0??           03232         BZ      _00318_DS_
                      03233         .line   645; ../../../RF24_c/RF24_c.c   pinMode(rf.csn_pin,OUTPUT);
000038 0E00           03234         MOVLW   0x00
Message[1301]: Using default destination of 0 (Access Bank).
00003A 6EE5           03235         MOVWF   POSTDEC1
00003C 50??           03236         MOVF    r0x00, W
Message[1301]: Using default destination of 0 (Access Bank).
00003E 6EE5           03237         MOVWF   POSTDEC1
000040 EC?? F0??      03238         CALL    _pinMode
000044 52E6           03239         MOVF    POSTINC1, F
000046 52E6           03240         MOVF    POSTINC1, F
000048                03241 _00318_DS_:
                      03242         .line   647; ../../../RF24_c/RF24_c.c   SPI_begin();
000048 EC?? F0??      03243         CALL    _SPI_begin
                      03244         .line   648; ../../../RF24_c/RF24_c.c   RF24_ce_d(LOW);
00004C 0E00           03245         MOVLW   0x00
Message[1301]: Using default destination of 0 (Access Bank).
00004E 6EE5           03246         MOVWF   POSTDEC1
000050 EC?? F0??      03247         CALL    _RF24_ce_d
000054 52E6           03248         MOVF    POSTINC1, F
                      03249         .line   649; ../../../RF24_c/RF24_c.c   RF24_csn_d(HIGH);
000056 0E01           03250         MOVLW   0x01
Message[1301]: Using default destination of 0 (Access Bank).
000058 6EE5           03251         MOVWF   POSTDEC1
00005A EC?? F0??      03252         CALL    _RF24_csn_d
00005E 52E6           03253         MOVF    POSTINC1, F
                      03254         .line   661; ../../../RF24_c/RF24_c.c   delay( 5 ) ;
000060 0E00           03255         MOVLW   0x00
Message[1301]: Using default destination of 0 (Access Bank).
000062 6EE5           03256         MOVWF   POSTDEC1
000064 0E05           03257         MOVLW   0x05
Message[1301]: Using default destination of 0 (Access Bank).
gpasm-1.4.0 #1107 (May  9 2015) build/sdcc/pr   12-5-2016  17:29:30         PAGE 72


LOC    OBJECT CODE    LINE  SOURCE TEXT
  VALUE

000066 6EE5           03258         MOVWF   POSTDEC1
000068 EC?? F0??      03259         CALL    _delay
00006C 52E6           03260         MOVF    POSTINC1, F
00006E 52E6           03261         MOVF    POSTINC1, F
                      03262         .line   664; ../../../RF24_c/RF24_c.c   RF24_write_register_d( NRF_CONFIG, 0b00001100 ) ;
000070 0E0C           03263         MOVLW   0x0c
Message[1301]: Using default destination of 0 (Access Bank).
000072 6EE5           03264         MOVWF   POSTDEC1
000074 0E00           03265         MOVLW   0x00
Message[1301]: Using default destination of 0 (Access Bank).
000076 6EE5           03266         MOVWF   POSTDEC1
000078 EC?? F0??      03267         CALL    _RF24_write_register_d
00007C 52E6           03268         MOVF    POSTINC1, F
00007E 52E6           03269         MOVF    POSTINC1, F
                      03270         .line   669; ../../../RF24_c/RF24_c.c   RF24_setRetries(5,15);
000080 0E0F           03271         MOVLW   0x0f
Message[1301]: Using default destination of 0 (Access Bank).
000082 6EE5           03272         MOVWF   POSTDEC1
000084 0E05           03273         MOVLW   0x05
Message[1301]: Using default destination of 0 (Access Bank).
000086 6EE5           03274         MOVWF   POSTDEC1
000088 EC?? F0??      03275         CALL    _RF24_setRetries
00008C 52E6           03276         MOVF    POSTINC1, F
00008E 52E6           03277         MOVF    POSTINC1, F
                      03278         .line   676; ../../../RF24_c/RF24_c.c   if( RF24_setDataRate( RF24_250KBPS ) )
000090 0E02           03279         MOVLW   0x02
Message[1301]: Using default destination of 0 (Access Bank).
000092 6EE5           03280         MOVWF   POSTDEC1
000094 EC?? F0??      03281         CALL    _RF24_setDataRate
Message[1301]: Using default destination of 0 (Access Bank).
000098 6E??           03282         MOVWF   r0x00
00009A 52E6           03283         MOVF    POSTINC1, F
00009C 50??           03284         MOVF    r0x00, W
00009E E0??           03285         BZ      _00320_DS_
                      03286         .line   678; ../../../RF24_c/RF24_c.c   rf.p_variant = 1 ;
0000A0 0E01           03287         MOVLW   0x01
0000A2 ????           03288         BANKSEL (_rf + 4)
0000A4 6F??           03289         MOVWF   (_rf + 4), B
0000A6                03290 _00320_DS_:
                      03291         .line   680; ../../../RF24_c/RF24_c.c   setup = RF24_read_register_d(RF_SETUP);
0000A6 0E06           03292         MOVLW   0x06
Message[1301]: Using default destination of 0 (Access Bank).
0000A8 6EE5           03293         MOVWF   POSTDEC1
0000AA EC?? F0??      03294         CALL    _RF24_read_register_d
Message[1301]: Using default destination of 0 (Access Bank).
0000AE 6E??           03295         MOVWF   r0x00
0000B0 52E6           03296         MOVF    POSTINC1, F
                      03297         .line   688; ../../../RF24_c/RF24_c.c   RF24_setDataRate( RF24_1MBPS ) ;
0000B2 0E00           03298         MOVLW   0x00
Message[1301]: Using default destination of 0 (Access Bank).
0000B4 6EE5           03299         MOVWF   POSTDEC1
0000B6 EC?? F0??      03300         CALL    _RF24_setDataRate
0000BA 52E6           03301         MOVF    POSTINC1, F
gpasm-1.4.0 #1107 (May  9 2015) build/sdcc/pr   12-5-2016  17:29:30         PAGE 73


LOC    OBJECT CODE    LINE  SOURCE TEXT
  VALUE

                      03302         .line   694; ../../../RF24_c/RF24_c.c   RF24_toggle_features_d();
0000BC EC?? F0??      03303         CALL    _RF24_toggle_features_d
                      03304         .line   695; ../../../RF24_c/RF24_c.c   RF24_write_register_d(FEATURE,0 );
0000C0 0E00           03305         MOVLW   0x00
Message[1301]: Using default destination of 0 (Access Bank).
0000C2 6EE5           03306         MOVWF   POSTDEC1
0000C4 0E1D           03307         MOVLW   0x1d
Message[1301]: Using default destination of 0 (Access Bank).
0000C6 6EE5           03308         MOVWF   POSTDEC1
0000C8 EC?? F0??      03309         CALL    _RF24_write_register_d
0000CC 52E6           03310         MOVF    POSTINC1, F
0000CE 52E6           03311         MOVF    POSTINC1, F
                      03312         .line   696; ../../../RF24_c/RF24_c.c   RF24_write_register_d(DYNPD,0);
0000D0 0E00           03313         MOVLW   0x00
Message[1301]: Using default destination of 0 (Access Bank).
0000D2 6EE5           03314         MOVWF   POSTDEC1
0000D4 0E1C           03315         MOVLW   0x1c
Message[1301]: Using default destination of 0 (Access Bank).
0000D6 6EE5           03316         MOVWF   POSTDEC1
0000D8 EC?? F0??      03317         CALL    _RF24_write_register_d
0000DC 52E6           03318         MOVF    POSTINC1, F
0000DE 52E6           03319         MOVF    POSTINC1, F
                      03320         .line   700; ../../../RF24_c/RF24_c.c   RF24_write_register_d(NRF_STATUS,_BV(RX_DR) | _BV(TX_DS)
                             | _BV(MAX_RT) );
0000E0 0E70           03321         MOVLW   0x70
Message[1301]: Using default destination of 0 (Access Bank).
0000E2 6EE5           03322         MOVWF   POSTDEC1
0000E4 0E07           03323         MOVLW   0x07
Message[1301]: Using default destination of 0 (Access Bank).
0000E6 6EE5           03324         MOVWF   POSTDEC1
0000E8 EC?? F0??      03325         CALL    _RF24_write_register_d
0000EC 52E6           03326         MOVF    POSTINC1, F
0000EE 52E6           03327         MOVF    POSTINC1, F
                      03328         .line   705; ../../../RF24_c/RF24_c.c   RF24_setChannel(76);
0000F0 0E4C           03329         MOVLW   0x4c
Message[1301]: Using default destination of 0 (Access Bank).
0000F2 6EE5           03330         MOVWF   POSTDEC1
0000F4 EC?? F0??      03331         CALL    _RF24_setChannel
0000F8 52E6           03332         MOVF    POSTINC1, F
                      03333         .line   708; ../../../RF24_c/RF24_c.c   RF24_flush_rx();
0000FA EC?? F0??      03334         CALL    _RF24_flush_rx
                      03335         .line   709; ../../../RF24_c/RF24_c.c   RF24_flush_tx();
0000FE EC?? F0??      03336         CALL    _RF24_flush_tx
                      03337         .line   711; ../../../RF24_c/RF24_c.c   RF24_powerUp(); //Power up by default when begin() is ca
                            lled
000102 EC?? F0??      03338         CALL    _RF24_powerUp
                      03339         .line   715; ../../../RF24_c/RF24_c.c   RF24_write_register_d(NRF_CONFIG, ( RF24_read_register_d
                            (NRF_CONFIG) ) & ~_BV(PRIM_RX) );
000106 0E00           03340         MOVLW   0x00
Message[1301]: Using default destination of 0 (Access Bank).
000108 6EE5           03341         MOVWF   POSTDEC1
00010A EC?? F0??      03342         CALL    _RF24_read_register_d
Message[1301]: Using default destination of 0 (Access Bank).
gpasm-1.4.0 #1107 (May  9 2015) build/sdcc/pr   12-5-2016  17:29:30         PAGE 74


LOC    OBJECT CODE    LINE  SOURCE TEXT
  VALUE

00010E 6E??           03343         MOVWF   r0x01
000110 52E6           03344         MOVF    POSTINC1, F
000112 90??           03345         BCF     r0x01, 0
000114 50??           03346         MOVF    r0x01, W
Message[1301]: Using default destination of 0 (Access Bank).
000116 6EE5           03347         MOVWF   POSTDEC1
000118 0E00           03348         MOVLW   0x00
Message[1301]: Using default destination of 0 (Access Bank).
00011A 6EE5           03349         MOVWF   POSTDEC1
00011C EC?? F0??      03350         CALL    _RF24_write_register_d
000120 52E6           03351         MOVF    POSTINC1, F
000122 52E6           03352         MOVF    POSTINC1, F
                      03353         .line   718; ../../../RF24_c/RF24_c.c   return ( setup != 0 && setup != 0xff );
000124 50??           03354         MOVF    r0x00, W
000126 E0??           03355         BZ      _00323_DS_
000128 50??           03356         MOVF    r0x00, W
00012A 0AFF           03357         XORLW   0xff
00012C E1??           03358         BNZ     _00324_DS_
00012E                03359 _00323_DS_:
Message[1301]: Using default destination of 0 (Access Bank).
00012E 6A??           03360         CLRF    r0x00
000130 D???           03361         BRA     _00325_DS_
000132                03362 _00324_DS_:
000132 0E01           03363         MOVLW   0x01
Message[1301]: Using default destination of 0 (Access Bank).
000134 6E??           03364         MOVWF   r0x00
000136                03365 _00325_DS_:
000136 50??           03366         MOVF    r0x00, W
000138 CFE4 F000      03367         MOVFF   PREINC1, r0x01
00013C CFE4 F000      03368         MOVFF   PREINC1, r0x00
000140 CFE4 FFD9      03369         MOVFF   PREINC1, FSR2L
000144 0012           03370         RETURN  
                      03371 
                      03372 ; ; Starting pCode block
                      03373 S_RF24_c__RF24_getPayloadSize   code
000000                03374 _RF24_getPayloadSize:
                      03375         .line   484; ../../../RF24_c/RF24_c.c   uint8_t RF24_getPayloadSize(void)
000000 CFD9 FFE5      03376         MOVFF   FSR2L, POSTDEC1
000004 CFE1 FFD9      03377         MOVFF   FSR1L, FSR2L
000008 ????           03378         BANKSEL (_rf + 5)
                      03379         .line   486; ../../../RF24_c/RF24_c.c   return rf.payload_size;
00000A 51??           03380         MOVF    (_rf + 5), W, B
00000C CFE4 FFD9      03381         MOVFF   PREINC1, FSR2L
000010 0012           03382         RETURN  
                      03383 
                      03384 ; ; Starting pCode block
                      03385 S_RF24_c__RF24_setPayloadSize   code
000000                03386 _RF24_setPayloadSize:
                      03387         .line   477; ../../../RF24_c/RF24_c.c   void RF24_setPayloadSize(uint8_t size)
000000 CFD9 FFE5      03388         MOVFF   FSR2L, POSTDEC1
000004 CFE1 FFD9      03389         MOVFF   FSR1L, FSR2L
000008 C??? F???      03390         MOVFF   r0x00, POSTDEC1
00000C 0E02           03391         MOVLW   0x02
gpasm-1.4.0 #1107 (May  9 2015) build/sdcc/pr   12-5-2016  17:29:30         PAGE 75


LOC    OBJECT CODE    LINE  SOURCE TEXT
  VALUE

00000E CFDB F000      03392         MOVFF   PLUSW2, r0x00
                      03393         .line   479; ../../../RF24_c/RF24_c.c   rf.payload_size = rf24_min(size,32);
000012 0E20           03394         MOVLW   0x20
000014 5C??           03395         SUBWF   r0x00, W
000016 E3??           03396         BNC     _00301_DS_
000018 0E20           03397         MOVLW   0x20
Message[1301]: Using default destination of 0 (Access Bank).
00001A 6E??           03398         MOVWF   r0x00
00001C                03399 _00301_DS_:
00001C 50??           03400         MOVF    r0x00, W
00001E ????           03401         BANKSEL (_rf + 5)
000020 6F??           03402         MOVWF   (_rf + 5), B
000022 CFE4 F000      03403         MOVFF   PREINC1, r0x00
000026 CFE4 FFD9      03404         MOVFF   PREINC1, FSR2L
00002A 0012           03405         RETURN  
                      03406 
                      03407 ; ; Starting pCode block
                      03408 S_RF24_c__RF24_getChannel       code
000000                03409 _RF24_getChannel:
                      03410         .line   470; ../../../RF24_c/RF24_c.c   uint8_t RF24_getChannel(void)
000000 CFD9 FFE5      03411         MOVFF   FSR2L, POSTDEC1
000004 CFE1 FFD9      03412         MOVFF   FSR1L, FSR2L
000008 C??? F???      03413         MOVFF   r0x00, POSTDEC1
                      03414         .line   473; ../../../RF24_c/RF24_c.c   return RF24_read_register_d(RF_CH);
00000C 0E05           03415         MOVLW   0x05
Message[1301]: Using default destination of 0 (Access Bank).
00000E 6EE5           03416         MOVWF   POSTDEC1
000010 EC?? F0??      03417         CALL    _RF24_read_register_d
Message[1301]: Using default destination of 0 (Access Bank).
000014 6E??           03418         MOVWF   r0x00
000016 52E6           03419         MOVF    POSTINC1, F
000018 50??           03420         MOVF    r0x00, W
00001A CFE4 F000      03421         MOVFF   PREINC1, r0x00
00001E CFE4 FFD9      03422         MOVFF   PREINC1, FSR2L
000022 0012           03423         RETURN  
                      03424 
                      03425 ; ; Starting pCode block
                      03426 S_RF24_c__RF24_setChannel       code
000000                03427 _RF24_setChannel:
                      03428         .line   464; ../../../RF24_c/RF24_c.c   void RF24_setChannel( uint8_t channel)
000000 CFD9 FFE5      03429         MOVFF   FSR2L, POSTDEC1
000004 CFE1 FFD9      03430         MOVFF   FSR1L, FSR2L
000008 C??? F???      03431         MOVFF   r0x00, POSTDEC1
00000C 0E02           03432         MOVLW   0x02
00000E CFDB F000      03433         MOVFF   PLUSW2, r0x00
                      03434         .line   467; ../../../RF24_c/RF24_c.c   RF24_write_register_d(RF_CH,rf24_min(channel,max_channel
                            ));
000012 0E7D           03435         MOVLW   0x7d
000014 5C??           03436         SUBWF   r0x00, W
000016 E3??           03437         BNC     _00284_DS_
000018 0E7D           03438         MOVLW   0x7d
Message[1301]: Using default destination of 0 (Access Bank).
00001A 6E??           03439         MOVWF   r0x00
gpasm-1.4.0 #1107 (May  9 2015) build/sdcc/pr   12-5-2016  17:29:30         PAGE 76


LOC    OBJECT CODE    LINE  SOURCE TEXT
  VALUE

00001C                03440 _00284_DS_:
00001C 50??           03441         MOVF    r0x00, W
Message[1301]: Using default destination of 0 (Access Bank).
00001E 6EE5           03442         MOVWF   POSTDEC1
000020 0E05           03443         MOVLW   0x05
Message[1301]: Using default destination of 0 (Access Bank).
000022 6EE5           03444         MOVWF   POSTDEC1
000024 EC?? F0??      03445         CALL    _RF24_write_register_d
000028 52E6           03446         MOVF    POSTINC1, F
00002A 52E6           03447         MOVF    POSTINC1, F
00002C CFE4 F000      03448         MOVFF   PREINC1, r0x00
000030 CFE4 FFD9      03449         MOVFF   PREINC1, FSR2L
000034 0012           03450         RETURN  
                      03451 
                      03452 ; ; Starting pCode block
                      03453 S_RF24_c__RF24_init     code
000000                03454 _RF24_init:
                      03455         .line   433; ../../../RF24_c/RF24_c.c   void RF24_init( uint8_t _cepin, uint8_t _cspin)
000000 CFD9 FFE5      03456         MOVFF   FSR2L, POSTDEC1
000004 CFE1 FFD9      03457         MOVFF   FSR1L, FSR2L
000008 C??? F???      03458         MOVFF   r0x00, POSTDEC1
00000C C??? F???      03459         MOVFF   r0x01, POSTDEC1
000010 0E02           03460         MOVLW   0x02
000012 CFDB F000      03461         MOVFF   PLUSW2, r0x00
000016 0E03           03462         MOVLW   0x03
000018 CFDB F000      03463         MOVFF   PLUSW2, r0x01
                      03464         .line   435; ../../../RF24_c/RF24_c.c   rf.ce_pin=_cepin;
00001C 50??           03465         MOVF    r0x00, W
00001E ????           03466         BANKSEL _rf
000020 6F??           03467         MOVWF   _rf, B
                      03468         .line   436; ../../../RF24_c/RF24_c.c   rf.csn_pin=_cspin;
000022 50??           03469         MOVF    r0x01, W
000024 ????           03470         BANKSEL (_rf + 1)
000026 6F??           03471         MOVWF   (_rf + 1), B
000028 ????           03472         BANKSEL (_rf + 4)
                      03473         .line   437; ../../../RF24_c/RF24_c.c   rf.p_variant=0;
00002A 6B??           03474         CLRF    (_rf + 4), B
                      03475         .line   438; ../../../RF24_c/RF24_c.c   rf.payload_size=32;
00002C 0E20           03476         MOVLW   0x20
00002E ????           03477         BANKSEL (_rf + 5)
000030 6F??           03478         MOVWF   (_rf + 5), B
000032 ????           03479         BANKSEL (_rf + 6)
                      03480         .line   439; ../../../RF24_c/RF24_c.c   rf.dynamic_payloads_enabled=0;
000034 6B??           03481         CLRF    (_rf + 6), B
                      03482         .line   440; ../../../RF24_c/RF24_c.c   rf.addr_width=ADDR_WIDTH;
000036 0E05           03483         MOVLW   0x05
000038 ????           03484         BANKSEL (_rf + 12)
00003A 6F??           03485         MOVWF   (_rf + 12), B
                      03486         .line   441; ../../../RF24_c/RF24_c.c   rf.csDelay=5;
00003C 0E05           03487         MOVLW   0x05
00003E ????           03488         BANKSEL (_rf + 17)
000040 6F??           03489         MOVWF   (_rf + 17), B
000042 ????           03490         BANKSEL (_rf + 18)
gpasm-1.4.0 #1107 (May  9 2015) build/sdcc/pr   12-5-2016  17:29:30         PAGE 77


LOC    OBJECT CODE    LINE  SOURCE TEXT
  VALUE

000044 6B??           03491         CLRF    (_rf + 18), B
000046 ????           03492         BANKSEL (_rf + 19)
000048 6B??           03493         CLRF    (_rf + 19), B
00004A ????           03494         BANKSEL (_rf + 20)
00004C 6B??           03495         CLRF    (_rf + 20), B
00004E ????           03496         BANKSEL (_rf + 7)
                      03497         .line   442; ../../../RF24_c/RF24_c.c   rf.pipe0_reading_address[0]=0;
000050 6B??           03498         CLRF    (_rf + 7), B
000052 CFE4 F000      03499         MOVFF   PREINC1, r0x01
000056 CFE4 F000      03500         MOVFF   PREINC1, r0x00
00005A CFE4 FFD9      03501         MOVFF   PREINC1, FSR2L
00005E 0012           03502         RETURN  
                      03503 
                      03504 ; ; Starting pCode block
                      03505 S_RF24_c__RF24_get_status       code
000000                03506 _RF24_get_status:
                      03507         .line   355; ../../../RF24_c/RF24_c.c   uint8_t RF24_get_status(void )
000000 CFD9 FFE5      03508         MOVFF   FSR2L, POSTDEC1
000004 CFE1 FFD9      03509         MOVFF   FSR1L, FSR2L
000008 C??? F???      03510         MOVFF   r0x00, POSTDEC1
                      03511         .line   357; ../../../RF24_c/RF24_c.c   return RF24_spiTrans( NOP_);
00000C 0EFF           03512         MOVLW   0xff
Message[1301]: Using default destination of 0 (Access Bank).
00000E 6EE5           03513         MOVWF   POSTDEC1
000010 EC?? F0??      03514         CALL    _RF24_spiTrans
Message[1301]: Using default destination of 0 (Access Bank).
000014 6E??           03515         MOVWF   r0x00
000016 52E6           03516         MOVF    POSTINC1, F
000018 50??           03517         MOVF    r0x00, W
00001A CFE4 F000      03518         MOVFF   PREINC1, r0x00
00001E CFE4 FFD9      03519         MOVFF   PREINC1, FSR2L
000022 0012           03520         RETURN  
                      03521 
                      03522 ; ; Starting pCode block
                      03523 S_RF24_c__RF24_flush_tx code
000000                03524 _RF24_flush_tx:
                      03525         .line   348; ../../../RF24_c/RF24_c.c   uint8_t RF24_flush_tx(void )
000000 CFD9 FFE5      03526         MOVFF   FSR2L, POSTDEC1
000004 CFE1 FFD9      03527         MOVFF   FSR1L, FSR2L
000008 C??? F???      03528         MOVFF   r0x00, POSTDEC1
                      03529         .line   350; ../../../RF24_c/RF24_c.c   return RF24_spiTrans( FLUSH_TX );
00000C 0EE1           03530         MOVLW   0xe1
Message[1301]: Using default destination of 0 (Access Bank).
00000E 6EE5           03531         MOVWF   POSTDEC1
000010 EC?? F0??      03532         CALL    _RF24_spiTrans
Message[1301]: Using default destination of 0 (Access Bank).
000014 6E??           03533         MOVWF   r0x00
000016 52E6           03534         MOVF    POSTINC1, F
000018 50??           03535         MOVF    r0x00, W
00001A CFE4 F000      03536         MOVFF   PREINC1, r0x00
00001E CFE4 FFD9      03537         MOVFF   PREINC1, FSR2L
000022 0012           03538         RETURN  
                      03539 
gpasm-1.4.0 #1107 (May  9 2015) build/sdcc/pr   12-5-2016  17:29:30         PAGE 78


LOC    OBJECT CODE    LINE  SOURCE TEXT
  VALUE

                      03540 ; ; Starting pCode block
                      03541 S_RF24_c__RF24_flush_rx code
000000                03542 _RF24_flush_rx:
                      03543         .line   341; ../../../RF24_c/RF24_c.c   uint8_t RF24_flush_rx(void)
000000 CFD9 FFE5      03544         MOVFF   FSR2L, POSTDEC1
000004 CFE1 FFD9      03545         MOVFF   FSR1L, FSR2L
000008 C??? F???      03546         MOVFF   r0x00, POSTDEC1
                      03547         .line   343; ../../../RF24_c/RF24_c.c   return RF24_spiTrans( FLUSH_RX );
00000C 0EE2           03548         MOVLW   0xe2
Message[1301]: Using default destination of 0 (Access Bank).
00000E 6EE5           03549         MOVWF   POSTDEC1
000010 EC?? F0??      03550         CALL    _RF24_spiTrans
Message[1301]: Using default destination of 0 (Access Bank).
000014 6E??           03551         MOVWF   r0x00
000016 52E6           03552         MOVF    POSTINC1, F
000018 50??           03553         MOVF    r0x00, W
00001A CFE4 F000      03554         MOVFF   PREINC1, r0x00
00001E CFE4 FFD9      03555         MOVFF   PREINC1, FSR2L
000022 0012           03556         RETURN  
                      03557 
                      03558 ; ; Starting pCode block
                      03559 S_RF24_c__RF24_spiTrans code
000000                03560 _RF24_spiTrans:
                      03561         .line   327; ../../../RF24_c/RF24_c.c   uint8_t RF24_spiTrans(uint8_t cmd){
000000 CFD9 FFE5      03562         MOVFF   FSR2L, POSTDEC1
000004 CFE1 FFD9      03563         MOVFF   FSR1L, FSR2L
000008 C??? F???      03564         MOVFF   r0x00, POSTDEC1
00000C 0E02           03565         MOVLW   0x02
00000E CFDB F000      03566         MOVFF   PLUSW2, r0x00
                      03567         .line   331; ../../../RF24_c/RF24_c.c   RF24_beginTransaction();
000012 EC?? F0??      03568         CALL    _RF24_beginTransaction
                      03569         .line   332; ../../../RF24_c/RF24_c.c   status = SPI_transfer( cmd );
000016 50??           03570         MOVF    r0x00, W
Message[1301]: Using default destination of 0 (Access Bank).
000018 6EE5           03571         MOVWF   POSTDEC1
00001A EC?? F0??      03572         CALL    _SPI_transfer
Message[1301]: Using default destination of 0 (Access Bank).
00001E 6E??           03573         MOVWF   r0x00
000020 52E6           03574         MOVF    POSTINC1, F
                      03575         .line   333; ../../../RF24_c/RF24_c.c   RF24_endTransaction();
000022 EC?? F0??      03576         CALL    _RF24_endTransaction
                      03577         .line   335; ../../../RF24_c/RF24_c.c   return status;
000026 50??           03578         MOVF    r0x00, W
000028 CFE4 F000      03579         MOVFF   PREINC1, r0x00
00002C CFE4 FFD9      03580         MOVFF   PREINC1, FSR2L
000030 0012           03581         RETURN  
                      03582 
                      03583 ; ; Starting pCode block
                      03584 S_RF24_c__RF24_read_payload     code
000000                03585 _RF24_read_payload:
                      03586         .line   272; ../../../RF24_c/RF24_c.c   uint8_t RF24_read_payload(void* buf, uint8_t data_len)
000000 CFD9 FFE5      03587         MOVFF   FSR2L, POSTDEC1
000004 CFE1 FFD9      03588         MOVFF   FSR1L, FSR2L
gpasm-1.4.0 #1107 (May  9 2015) build/sdcc/pr   12-5-2016  17:29:30         PAGE 79


LOC    OBJECT CODE    LINE  SOURCE TEXT
  VALUE

000008 C??? F???      03589         MOVFF   r0x00, POSTDEC1
00000C C??? F???      03590         MOVFF   r0x01, POSTDEC1
000010 C??? F???      03591         MOVFF   r0x02, POSTDEC1
000014 C??? F???      03592         MOVFF   r0x03, POSTDEC1
000018 C??? F???      03593         MOVFF   r0x04, POSTDEC1
00001C C??? F???      03594         MOVFF   r0x05, POSTDEC1
000020 C??? F???      03595         MOVFF   r0x06, POSTDEC1
000024 0E02           03596         MOVLW   0x02
000026 CFDB F000      03597         MOVFF   PLUSW2, r0x00
00002A 0E03           03598         MOVLW   0x03
00002C CFDB F000      03599         MOVFF   PLUSW2, r0x01
000030 0E04           03600         MOVLW   0x04
000032 CFDB F000      03601         MOVFF   PLUSW2, r0x02
000036 0E05           03602         MOVLW   0x05
000038 CFDB F000      03603         MOVFF   PLUSW2, r0x03
                      03604         .line   275; ../../../RF24_c/RF24_c.c   uint8_t* current = (uint8_t*)(buf);
00003C 50??           03605         MOVF    r0x02, W
Message[1301]: Using default destination of 0 (Access Bank).
00003E 6E??           03606         MOVWF   r0x02
000040 50??           03607         MOVF    r0x01, W
Message[1301]: Using default destination of 0 (Access Bank).
000042 6E??           03608         MOVWF   r0x01
000044 50??           03609         MOVF    r0x00, W
Message[1301]: Using default destination of 0 (Access Bank).
000046 6E??           03610         MOVWF   r0x00
                      03611         .line   278; ../../../RF24_c/RF24_c.c   if(data_len > rf.payload_size) data_len = rf.payload_siz
                            e;
000048 C??? F???      03612         MOVFF   (_rf + 5), r0x04
00004C 50??           03613         MOVF    r0x03, W
00004E 5C??           03614         SUBWF   r0x04, W
000050 E2??           03615         BC      _00219_DS_
000052 C??? F???      03616         MOVFF   r0x04, r0x03
000056                03617 _00219_DS_:
000056 ????           03618         BANKSEL (_rf + 6)
                      03619         .line   279; ../../../RF24_c/RF24_c.c   blank_len = rf.dynamic_payloads_enabled ? 0 : rf.payload
                            _size - data_len;
000058 51??           03620         MOVF    (_rf + 6), W, B
00005A E0??           03621         BZ      _00228_DS_
Message[1301]: Using default destination of 0 (Access Bank).
00005C 6A??           03622         CLRF    r0x05
00005E D???           03623         BRA     _00229_DS_
000060                03624 _00228_DS_:
000060 50??           03625         MOVF    r0x03, W
000062 5C??           03626         SUBWF   r0x04, W
Message[1301]: Using default destination of 0 (Access Bank).
000064 6E??           03627         MOVWF   r0x05
000066                03628 _00229_DS_:
000066 C??? F???      03629         MOVFF   r0x05, r0x04
                      03630         .line   311; ../../../RF24_c/RF24_c.c   RF24_beginTransaction();
00006A EC?? F0??      03631         CALL    _RF24_beginTransaction
                      03632         .line   312; ../../../RF24_c/RF24_c.c   status = SPI_transfer( R_RX_PAYLOAD );
00006E 0E61           03633         MOVLW   0x61
Message[1301]: Using default destination of 0 (Access Bank).
gpasm-1.4.0 #1107 (May  9 2015) build/sdcc/pr   12-5-2016  17:29:30         PAGE 80


LOC    OBJECT CODE    LINE  SOURCE TEXT
  VALUE

000070 6EE5           03634         MOVWF   POSTDEC1
000072 EC?? F0??      03635         CALL    _SPI_transfer
Message[1301]: Using default destination of 0 (Access Bank).
000076 6E??           03636         MOVWF   r0x05
000078 52E6           03637         MOVF    POSTINC1, F
00007A                03638 _00220_DS_:
                      03639         .line   313; ../../../RF24_c/RF24_c.c   while ( data_len-- ) {
00007A C??? F???      03640         MOVFF   r0x03, r0x06
00007E 06??           03641         DECF    r0x03, F
000080 50??           03642         MOVF    r0x06, W
000082 E0??           03643         BZ      _00235_DS_
                      03644         .line   314; ../../../RF24_c/RF24_c.c   *current++ = SPI_transfer(0xFF);
000084 0EFF           03645         MOVLW   0xff
Message[1301]: Using default destination of 0 (Access Bank).
000086 6EE5           03646         MOVWF   POSTDEC1
000088 EC?? F0??      03647         CALL    _SPI_transfer
Message[1301]: Using default destination of 0 (Access Bank).
00008C 6E??           03648         MOVWF   r0x06
00008E 52E6           03649         MOVF    POSTINC1, F
000090 C??? F???      03650         MOVFF   r0x06, POSTDEC1
000094 C??? F???      03651         MOVFF   r0x00, FSR0L
000098 C??? F???      03652         MOVFF   r0x01, PRODL
00009C 50??           03653         MOVF    r0x02, W
00009E EC?? F0??      03654         CALL    __gptrput1
0000A2 2A??           03655         INCF    r0x00, F
0000A4 E3??           03656         BNC     _00220_DS_
0000A6 4A??           03657         INFSNZ  r0x01, F
0000A8 2A??           03658         INCF    r0x02, F
0000AA                03659 _00251_DS_:
0000AA D???           03660         BRA     _00220_DS_
0000AC                03661 _00235_DS_:
                      03662         .line   316; ../../../RF24_c/RF24_c.c   while ( blank_len-- ) {
0000AC C??? F???      03663         MOVFF   r0x04, r0x00
0000B0                03664 _00223_DS_:
0000B0 C??? F???      03665         MOVFF   r0x00, r0x01
0000B4 06??           03666         DECF    r0x00, F
0000B6 50??           03667         MOVF    r0x01, W
0000B8 E0??           03668         BZ      _00225_DS_
                      03669         .line   317; ../../../RF24_c/RF24_c.c   SPI_transfer(0xff);
0000BA 0EFF           03670         MOVLW   0xff
Message[1301]: Using default destination of 0 (Access Bank).
0000BC 6EE5           03671         MOVWF   POSTDEC1
0000BE EC?? F0??      03672         CALL    _SPI_transfer
0000C2 52E6           03673         MOVF    POSTINC1, F
0000C4 D???           03674         BRA     _00223_DS_
0000C6                03675 _00225_DS_:
                      03676         .line   319; ../../../RF24_c/RF24_c.c   RF24_endTransaction();
0000C6 EC?? F0??      03677         CALL    _RF24_endTransaction
                      03678         .line   323; ../../../RF24_c/RF24_c.c   return status;
0000CA 50??           03679         MOVF    r0x05, W
0000CC CFE4 F000      03680         MOVFF   PREINC1, r0x06
0000D0 CFE4 F000      03681         MOVFF   PREINC1, r0x05
0000D4 CFE4 F000      03682         MOVFF   PREINC1, r0x04
gpasm-1.4.0 #1107 (May  9 2015) build/sdcc/pr   12-5-2016  17:29:30         PAGE 81


LOC    OBJECT CODE    LINE  SOURCE TEXT
  VALUE

0000D8 CFE4 F000      03683         MOVFF   PREINC1, r0x03
0000DC CFE4 F000      03684         MOVFF   PREINC1, r0x02
0000E0 CFE4 F000      03685         MOVFF   PREINC1, r0x01
0000E4 CFE4 F000      03686         MOVFF   PREINC1, r0x00
0000E8 CFE4 FFD9      03687         MOVFF   PREINC1, FSR2L
0000EC 0012           03688         RETURN  
                      03689 
                      03690 ; ; Starting pCode block
                      03691 S_RF24_c__RF24_write_payload    code
000000                03692 _RF24_write_payload:
                      03693         .line   224; ../../../RF24_c/RF24_c.c   uint8_t RF24_write_payload(const void* buf, uint8_t data
                            _len, const uint8_t writeType)
000000 CFD9 FFE5      03694         MOVFF   FSR2L, POSTDEC1
000004 CFE1 FFD9      03695         MOVFF   FSR1L, FSR2L
000008 C??? F???      03696         MOVFF   r0x00, POSTDEC1
00000C C??? F???      03697         MOVFF   r0x01, POSTDEC1
000010 C??? F???      03698         MOVFF   r0x02, POSTDEC1
000014 C??? F???      03699         MOVFF   r0x03, POSTDEC1
000018 C??? F???      03700         MOVFF   r0x04, POSTDEC1
00001C C??? F???      03701         MOVFF   r0x05, POSTDEC1
000020 C??? F???      03702         MOVFF   r0x06, POSTDEC1
000024 0E02           03703         MOVLW   0x02
000026 CFDB F000      03704         MOVFF   PLUSW2, r0x00
00002A 0E03           03705         MOVLW   0x03
00002C CFDB F000      03706         MOVFF   PLUSW2, r0x01
000030 0E04           03707         MOVLW   0x04
000032 CFDB F000      03708         MOVFF   PLUSW2, r0x02
000036 0E05           03709         MOVLW   0x05
000038 CFDB F000      03710         MOVFF   PLUSW2, r0x03
00003C 0E06           03711         MOVLW   0x06
00003E CFDB F000      03712         MOVFF   PLUSW2, r0x04
                      03713         .line   227; ../../../RF24_c/RF24_c.c   const uint8_t* current = (const uint8_t*)(buf);
000042 50??           03714         MOVF    r0x02, W
Message[1301]: Using default destination of 0 (Access Bank).
000044 6E??           03715         MOVWF   r0x02
000046 50??           03716         MOVF    r0x01, W
Message[1301]: Using default destination of 0 (Access Bank).
000048 6E??           03717         MOVWF   r0x01
00004A 50??           03718         MOVF    r0x00, W
Message[1301]: Using default destination of 0 (Access Bank).
00004C 6E??           03719         MOVWF   r0x00
                      03720         .line   230; ../../../RF24_c/RF24_c.c   data_len = rf24_min(data_len, rf.payload_size);
00004E C??? F???      03721         MOVFF   (_rf + 5), r0x05
000052 50??           03722         MOVF    r0x05, W
000054 5C??           03723         SUBWF   r0x03, W
000056 E2??           03724         BC      _00188_DS_
000058 C??? F???      03725         MOVFF   r0x03, r0x06
00005C D???           03726         BRA     _00189_DS_
00005E                03727 _00188_DS_:
00005E C??? F???      03728         MOVFF   r0x05, r0x06
000062                03729 _00189_DS_:
000062 C??? F???      03730         MOVFF   r0x06, r0x03
000066 ????           03731         BANKSEL (_rf + 6)
gpasm-1.4.0 #1107 (May  9 2015) build/sdcc/pr   12-5-2016  17:29:30         PAGE 82


LOC    OBJECT CODE    LINE  SOURCE TEXT
  VALUE

                      03732         .line   231; ../../../RF24_c/RF24_c.c   blank_len = rf.dynamic_payloads_enabled ? 0 : rf.payload
                            _size - data_len;
000068 51??           03733         MOVF    (_rf + 6), W, B
00006A E0??           03734         BZ      _00190_DS_
Message[1301]: Using default destination of 0 (Access Bank).
00006C 6A??           03735         CLRF    r0x06
00006E D???           03736         BRA     _00191_DS_
000070                03737 _00190_DS_:
000070 50??           03738         MOVF    r0x03, W
000072 5C??           03739         SUBWF   r0x05, W
Message[1301]: Using default destination of 0 (Access Bank).
000074 6E??           03740         MOVWF   r0x06
000076                03741 _00191_DS_:
000076 C??? F???      03742         MOVFF   r0x06, r0x05
                      03743         .line   255; ../../../RF24_c/RF24_c.c   RF24_beginTransaction();
00007A EC?? F0??      03744         CALL    _RF24_beginTransaction
                      03745         .line   256; ../../../RF24_c/RF24_c.c   status = SPI_transfer( writeType );
00007E 50??           03746         MOVF    r0x04, W
Message[1301]: Using default destination of 0 (Access Bank).
000080 6EE5           03747         MOVWF   POSTDEC1
000082 EC?? F0??      03748         CALL    _SPI_transfer
Message[1301]: Using default destination of 0 (Access Bank).
000086 6E??           03749         MOVWF   r0x04
000088 52E6           03750         MOVF    POSTINC1, F
00008A                03751 _00180_DS_:
                      03752         .line   257; ../../../RF24_c/RF24_c.c   while ( data_len-- ) {
00008A C??? F???      03753         MOVFF   r0x03, r0x06
00008E 06??           03754         DECF    r0x03, F
000090 50??           03755         MOVF    r0x06, W
000092 E0??           03756         BZ      _00197_DS_
                      03757         .line   258; ../../../RF24_c/RF24_c.c   SPI_transfer(*current++);
000094 C??? F???      03758         MOVFF   r0x00, FSR0L
000098 C??? F???      03759         MOVFF   r0x01, PRODL
00009C 50??           03760         MOVF    r0x02, W
00009E EC?? F0??      03761         CALL    __gptrget1
Message[1301]: Using default destination of 0 (Access Bank).
0000A2 6E??           03762         MOVWF   r0x06
0000A4 2A??           03763         INCF    r0x00, F
0000A6 E3??           03764         BNC     _00213_DS_
0000A8 4A??           03765         INFSNZ  r0x01, F
0000AA 2A??           03766         INCF    r0x02, F
0000AC                03767 _00213_DS_:
0000AC 50??           03768         MOVF    r0x06, W
Message[1301]: Using default destination of 0 (Access Bank).
0000AE 6EE5           03769         MOVWF   POSTDEC1
0000B0 EC?? F0??      03770         CALL    _SPI_transfer
0000B4 52E6           03771         MOVF    POSTINC1, F
0000B6 D???           03772         BRA     _00180_DS_
0000B8                03773 _00197_DS_:
                      03774         .line   260; ../../../RF24_c/RF24_c.c   while ( blank_len-- ) {
0000B8 C??? F???      03775         MOVFF   r0x05, r0x00
0000BC                03776 _00183_DS_:
0000BC C??? F???      03777         MOVFF   r0x00, r0x01
gpasm-1.4.0 #1107 (May  9 2015) build/sdcc/pr   12-5-2016  17:29:30         PAGE 83


LOC    OBJECT CODE    LINE  SOURCE TEXT
  VALUE

0000C0 06??           03778         DECF    r0x00, F
0000C2 50??           03779         MOVF    r0x01, W
0000C4 E0??           03780         BZ      _00185_DS_
                      03781         .line   261; ../../../RF24_c/RF24_c.c   SPI_transfer(0);
0000C6 0E00           03782         MOVLW   0x00
Message[1301]: Using default destination of 0 (Access Bank).
0000C8 6EE5           03783         MOVWF   POSTDEC1
0000CA EC?? F0??      03784         CALL    _SPI_transfer
0000CE 52E6           03785         MOVF    POSTINC1, F
0000D0 D???           03786         BRA     _00183_DS_
0000D2                03787 _00185_DS_:
                      03788         .line   263; ../../../RF24_c/RF24_c.c   RF24_endTransaction();
0000D2 EC?? F0??      03789         CALL    _RF24_endTransaction
                      03790         .line   267; ../../../RF24_c/RF24_c.c   return status;
0000D6 50??           03791         MOVF    r0x04, W
0000D8 CFE4 F000      03792         MOVFF   PREINC1, r0x06
0000DC CFE4 F000      03793         MOVFF   PREINC1, r0x05
0000E0 CFE4 F000      03794         MOVFF   PREINC1, r0x04
0000E4 CFE4 F000      03795         MOVFF   PREINC1, r0x03
0000E8 CFE4 F000      03796         MOVFF   PREINC1, r0x02
0000EC CFE4 F000      03797         MOVFF   PREINC1, r0x01
0000F0 CFE4 F000      03798         MOVFF   PREINC1, r0x00
0000F4 CFE4 FFD9      03799         MOVFF   PREINC1, FSR2L
0000F8 0012           03800         RETURN  
                      03801 
                      03802 ; ; Starting pCode block
                      03803 S_RF24_c__RF24_write_register_d code
000000                03804 _RF24_write_register_d:
                      03805         .line   194; ../../../RF24_c/RF24_c.c   uint8_t RF24_write_register_d(uint8_t reg, uint8_t value
                            )
000000 CFD9 FFE5      03806         MOVFF   FSR2L, POSTDEC1
000004 CFE1 FFD9      03807         MOVFF   FSR1L, FSR2L
000008 C??? F???      03808         MOVFF   r0x00, POSTDEC1
00000C C??? F???      03809         MOVFF   r0x01, POSTDEC1
000010 0E02           03810         MOVLW   0x02
000012 CFDB F000      03811         MOVFF   PLUSW2, r0x00
000016 0E03           03812         MOVLW   0x03
000018 CFDB F000      03813         MOVFF   PLUSW2, r0x01
                      03814         .line   212; ../../../RF24_c/RF24_c.c   RF24_beginTransaction();
00001C EC?? F0??      03815         CALL    _RF24_beginTransaction
                      03816         .line   213; ../../../RF24_c/RF24_c.c   status = SPI_transfer( W_REGISTER | ( REGISTER_MASK & re
                            g ) );
000020 0E1F           03817         MOVLW   0x1f
000022 16??           03818         ANDWF   r0x00, F
000024 8A??           03819         BSF     r0x00, 5
000026 50??           03820         MOVF    r0x00, W
Message[1301]: Using default destination of 0 (Access Bank).
000028 6EE5           03821         MOVWF   POSTDEC1
00002A EC?? F0??      03822         CALL    _SPI_transfer
Message[1301]: Using default destination of 0 (Access Bank).
00002E 6E??           03823         MOVWF   r0x00
000030 52E6           03824         MOVF    POSTINC1, F
                      03825         .line   214; ../../../RF24_c/RF24_c.c   SPI_transfer(value);
gpasm-1.4.0 #1107 (May  9 2015) build/sdcc/pr   12-5-2016  17:29:30         PAGE 84


LOC    OBJECT CODE    LINE  SOURCE TEXT
  VALUE

000032 50??           03826         MOVF    r0x01, W
Message[1301]: Using default destination of 0 (Access Bank).
000034 6EE5           03827         MOVWF   POSTDEC1
000036 EC?? F0??      03828         CALL    _SPI_transfer
00003A 52E6           03829         MOVF    POSTINC1, F
                      03830         .line   215; ../../../RF24_c/RF24_c.c   RF24_endTransaction();
00003C EC?? F0??      03831         CALL    _RF24_endTransaction
                      03832         .line   219; ../../../RF24_c/RF24_c.c   return status;
000040 50??           03833         MOVF    r0x00, W
000042 CFE4 F000      03834         MOVFF   PREINC1, r0x01
000046 CFE4 F000      03835         MOVFF   PREINC1, r0x00
00004A CFE4 FFD9      03836         MOVFF   PREINC1, FSR2L
00004E 0012           03837         RETURN  
                      03838 
                      03839 ; ; Starting pCode block
                      03840 S_RF24_c__RF24_write_register_c_d       code
000000                03841 _RF24_write_register_c_d:
                      03842         .line   162; ../../../RF24_c/RF24_c.c   uint8_t RF24_write_register_c_d(uint8_t reg, const uint8
                            _t* buf, uint8_t len)
000000 CFD9 FFE5      03843         MOVFF   FSR2L, POSTDEC1
000004 CFE1 FFD9      03844         MOVFF   FSR1L, FSR2L
000008 C??? F???      03845         MOVFF   r0x00, POSTDEC1
00000C C??? F???      03846         MOVFF   r0x01, POSTDEC1
000010 C??? F???      03847         MOVFF   r0x02, POSTDEC1
000014 C??? F???      03848         MOVFF   r0x03, POSTDEC1
000018 C??? F???      03849         MOVFF   r0x04, POSTDEC1
00001C C??? F???      03850         MOVFF   r0x05, POSTDEC1
000020 0E02           03851         MOVLW   0x02
000022 CFDB F000      03852         MOVFF   PLUSW2, r0x00
000026 0E03           03853         MOVLW   0x03
000028 CFDB F000      03854         MOVFF   PLUSW2, r0x01
00002C 0E04           03855         MOVLW   0x04
00002E CFDB F000      03856         MOVFF   PLUSW2, r0x02
000032 0E05           03857         MOVLW   0x05
000034 CFDB F000      03858         MOVFF   PLUSW2, r0x03
000038 0E06           03859         MOVLW   0x06
00003A CFDB F000      03860         MOVFF   PLUSW2, r0x04
                      03861         .line   181; ../../../RF24_c/RF24_c.c   RF24_beginTransaction();
00003E EC?? F0??      03862         CALL    _RF24_beginTransaction
                      03863         .line   182; ../../../RF24_c/RF24_c.c   status = SPI_transfer( W_REGISTER | ( REGISTER_MASK & re
                            g ) );
000042 0E1F           03864         MOVLW   0x1f
000044 16??           03865         ANDWF   r0x00, F
000046 8A??           03866         BSF     r0x00, 5
000048 50??           03867         MOVF    r0x00, W
Message[1301]: Using default destination of 0 (Access Bank).
00004A 6EE5           03868         MOVWF   POSTDEC1
00004C EC?? F0??      03869         CALL    _SPI_transfer
Message[1301]: Using default destination of 0 (Access Bank).
000050 6E??           03870         MOVWF   r0x00
000052 52E6           03871         MOVF    POSTINC1, F
000054                03872 _00156_DS_:
                      03873         .line   183; ../../../RF24_c/RF24_c.c   while ( len-- )
gpasm-1.4.0 #1107 (May  9 2015) build/sdcc/pr   12-5-2016  17:29:30         PAGE 85


LOC    OBJECT CODE    LINE  SOURCE TEXT
  VALUE

000054 C??? F???      03874         MOVFF   r0x04, r0x05
000058 06??           03875         DECF    r0x04, F
00005A 50??           03876         MOVF    r0x05, W
00005C E0??           03877         BZ      _00158_DS_
                      03878         .line   184; ../../../RF24_c/RF24_c.c   SPI_transfer(*buf++);
00005E C??? F???      03879         MOVFF   r0x01, FSR0L
000062 C??? F???      03880         MOVFF   r0x02, PRODL
000066 50??           03881         MOVF    r0x03, W
000068 EC?? F0??      03882         CALL    __gptrget1
Message[1301]: Using default destination of 0 (Access Bank).
00006C 6E??           03883         MOVWF   r0x05
00006E 2A??           03884         INCF    r0x01, F
000070 E3??           03885         BNC     _00170_DS_
000072 4A??           03886         INFSNZ  r0x02, F
000074 2A??           03887         INCF    r0x03, F
000076                03888 _00170_DS_:
000076 50??           03889         MOVF    r0x05, W
Message[1301]: Using default destination of 0 (Access Bank).
000078 6EE5           03890         MOVWF   POSTDEC1
00007A EC?? F0??      03891         CALL    _SPI_transfer
00007E 52E6           03892         MOVF    POSTINC1, F
000080 D???           03893         BRA     _00156_DS_
000082                03894 _00158_DS_:
                      03895         .line   185; ../../../RF24_c/RF24_c.c   RF24_endTransaction();
000082 EC?? F0??      03896         CALL    _RF24_endTransaction
                      03897         .line   189; ../../../RF24_c/RF24_c.c   return status;
000086 50??           03898         MOVF    r0x00, W
000088 CFE4 F000      03899         MOVFF   PREINC1, r0x05
00008C CFE4 F000      03900         MOVFF   PREINC1, r0x04
000090 CFE4 F000      03901         MOVFF   PREINC1, r0x03
000094 CFE4 F000      03902         MOVFF   PREINC1, r0x02
000098 CFE4 F000      03903         MOVFF   PREINC1, r0x01
00009C CFE4 F000      03904         MOVFF   PREINC1, r0x00
0000A0 CFE4 FFD9      03905         MOVFF   PREINC1, FSR2L
0000A4 0012           03906         RETURN  
                      03907 
                      03908 ; ; Starting pCode block
                      03909 S_RF24_c__RF24_read_register_d  code
000000                03910 _RF24_read_register_d:
                      03911         .line   131; ../../../RF24_c/RF24_c.c   uint8_t RF24_read_register_d(uint8_t reg)
000000 CFD9 FFE5      03912         MOVFF   FSR2L, POSTDEC1
000004 CFE1 FFD9      03913         MOVFF   FSR1L, FSR2L
000008 C??? F???      03914         MOVFF   r0x00, POSTDEC1
00000C 0E02           03915         MOVLW   0x02
00000E CFDB F000      03916         MOVFF   PLUSW2, r0x00
                      03917         .line   150; ../../../RF24_c/RF24_c.c   RF24_beginTransaction();
000012 EC?? F0??      03918         CALL    _RF24_beginTransaction
                      03919         .line   151; ../../../RF24_c/RF24_c.c   SPI_transfer( R_REGISTER | ( REGISTER_MASK & reg ) );
000016 0E1F           03920         MOVLW   0x1f
000018 16??           03921         ANDWF   r0x00, F
00001A 50??           03922         MOVF    r0x00, W
Message[1301]: Using default destination of 0 (Access Bank).
00001C 6EE5           03923         MOVWF   POSTDEC1
gpasm-1.4.0 #1107 (May  9 2015) build/sdcc/pr   12-5-2016  17:29:30         PAGE 86


LOC    OBJECT CODE    LINE  SOURCE TEXT
  VALUE

00001E EC?? F0??      03924         CALL    _SPI_transfer
000022 52E6           03925         MOVF    POSTINC1, F
                      03926         .line   152; ../../../RF24_c/RF24_c.c   result = SPI_transfer(0xff);
000024 0EFF           03927         MOVLW   0xff
Message[1301]: Using default destination of 0 (Access Bank).
000026 6EE5           03928         MOVWF   POSTDEC1
000028 EC?? F0??      03929         CALL    _SPI_transfer
Message[1301]: Using default destination of 0 (Access Bank).
00002C 6E??           03930         MOVWF   r0x00
00002E 52E6           03931         MOVF    POSTINC1, F
                      03932         .line   153; ../../../RF24_c/RF24_c.c   RF24_endTransaction();
000030 EC?? F0??      03933         CALL    _RF24_endTransaction
                      03934         .line   157; ../../../RF24_c/RF24_c.c   return result;
000034 50??           03935         MOVF    r0x00, W
000036 CFE4 F000      03936         MOVFF   PREINC1, r0x00
00003A CFE4 FFD9      03937         MOVFF   PREINC1, FSR2L
00003E 0012           03938         RETURN  
                      03939 
                      03940 ; ; Starting pCode block
                      03941 S_RF24_c__RF24_read_register_m_d        code
000000                03942 _RF24_read_register_m_d:
                      03943         .line   93; ../../../RF24_c/RF24_c.c    uint8_t RF24_read_register_m_d(uint8_t reg, uint8_t* buf
                            , uint8_t len)
000000 CFD9 FFE5      03944         MOVFF   FSR2L, POSTDEC1
000004 CFE1 FFD9      03945         MOVFF   FSR1L, FSR2L
000008 C??? F???      03946         MOVFF   r0x00, POSTDEC1
00000C C??? F???      03947         MOVFF   r0x01, POSTDEC1
000010 C??? F???      03948         MOVFF   r0x02, POSTDEC1
000014 C??? F???      03949         MOVFF   r0x03, POSTDEC1
000018 C??? F???      03950         MOVFF   r0x04, POSTDEC1
00001C C??? F???      03951         MOVFF   r0x05, POSTDEC1
000020 0E02           03952         MOVLW   0x02
000022 CFDB F000      03953         MOVFF   PLUSW2, r0x00
000026 0E03           03954         MOVLW   0x03
000028 CFDB F000      03955         MOVFF   PLUSW2, r0x01
00002C 0E04           03956         MOVLW   0x04
00002E CFDB F000      03957         MOVFF   PLUSW2, r0x02
000032 0E05           03958         MOVLW   0x05
000034 CFDB F000      03959         MOVFF   PLUSW2, r0x03
000038 0E06           03960         MOVLW   0x06
00003A CFDB F000      03961         MOVFF   PLUSW2, r0x04
                      03962         .line   117; ../../../RF24_c/RF24_c.c   RF24_beginTransaction();
00003E EC?? F0??      03963         CALL    _RF24_beginTransaction
                      03964         .line   118; ../../../RF24_c/RF24_c.c   status = SPI_transfer( R_REGISTER | ( REGISTER_MASK & re
                            g ) );
000042 0E1F           03965         MOVLW   0x1f
000044 16??           03966         ANDWF   r0x00, F
000046 50??           03967         MOVF    r0x00, W
Message[1301]: Using default destination of 0 (Access Bank).
000048 6EE5           03968         MOVWF   POSTDEC1
00004A EC?? F0??      03969         CALL    _SPI_transfer
Message[1301]: Using default destination of 0 (Access Bank).
00004E 6E??           03970         MOVWF   r0x00
gpasm-1.4.0 #1107 (May  9 2015) build/sdcc/pr   12-5-2016  17:29:30         PAGE 87


LOC    OBJECT CODE    LINE  SOURCE TEXT
  VALUE

000050 52E6           03971         MOVF    POSTINC1, F
000052                03972 _00133_DS_:
                      03973         .line   119; ../../../RF24_c/RF24_c.c   while ( len-- ){
000052 C??? F???      03974         MOVFF   r0x04, r0x05
000056 06??           03975         DECF    r0x04, F
000058 50??           03976         MOVF    r0x05, W
00005A E0??           03977         BZ      _00135_DS_
                      03978         .line   120; ../../../RF24_c/RF24_c.c   *buf++ = SPI_transfer(0xff);
00005C 0EFF           03979         MOVLW   0xff
Message[1301]: Using default destination of 0 (Access Bank).
00005E 6EE5           03980         MOVWF   POSTDEC1
000060 EC?? F0??      03981         CALL    _SPI_transfer
Message[1301]: Using default destination of 0 (Access Bank).
000064 6E??           03982         MOVWF   r0x05
000066 52E6           03983         MOVF    POSTINC1, F
000068 C??? F???      03984         MOVFF   r0x05, POSTDEC1
00006C C??? F???      03985         MOVFF   r0x01, FSR0L
000070 C??? F???      03986         MOVFF   r0x02, PRODL
000074 50??           03987         MOVF    r0x03, W
000076 EC?? F0??      03988         CALL    __gptrput1
00007A 2A??           03989         INCF    r0x01, F
00007C E3??           03990         BNC     _00133_DS_
00007E 4A??           03991         INFSNZ  r0x02, F
000080 2A??           03992         INCF    r0x03, F
000082                03993 _00146_DS_:
000082 D???           03994         BRA     _00133_DS_
000084                03995 _00135_DS_:
                      03996         .line   122; ../../../RF24_c/RF24_c.c   RF24_endTransaction();
000084 EC?? F0??      03997         CALL    _RF24_endTransaction
                      03998         .line   126; ../../../RF24_c/RF24_c.c   return status;
000088 50??           03999         MOVF    r0x00, W
00008A CFE4 F000      04000         MOVFF   PREINC1, r0x05
00008E CFE4 F000      04001         MOVFF   PREINC1, r0x04
000092 CFE4 F000      04002         MOVFF   PREINC1, r0x03
000096 CFE4 F000      04003         MOVFF   PREINC1, r0x02
00009A CFE4 F000      04004         MOVFF   PREINC1, r0x01
00009E CFE4 F000      04005         MOVFF   PREINC1, r0x00
0000A2 CFE4 FFD9      04006         MOVFF   PREINC1, FSR2L
0000A6 0012           04007         RETURN  
                      04008 
                      04009 ; ; Starting pCode block
                      04010 S_RF24_c__RF24_endTransaction   code
000000                04011 _RF24_endTransaction:
                      04012         .line   84; ../../../RF24_c/RF24_c.c    void RF24_endTransaction(void) {
000000 CFD9 FFE5      04013         MOVFF   FSR2L, POSTDEC1
000004 CFE1 FFD9      04014         MOVFF   FSR1L, FSR2L
                      04015         .line   85; ../../../RF24_c/RF24_c.c    RF24_csn_d(HIGH);
000008 0E01           04016         MOVLW   0x01
Message[1301]: Using default destination of 0 (Access Bank).
00000A 6EE5           04017         MOVWF   POSTDEC1
00000C EC?? F0??      04018         CALL    _RF24_csn_d
000010 52E6           04019         MOVF    POSTINC1, F
000012 CFE4 FFD9      04020         MOVFF   PREINC1, FSR2L
gpasm-1.4.0 #1107 (May  9 2015) build/sdcc/pr   12-5-2016  17:29:30         PAGE 88


LOC    OBJECT CODE    LINE  SOURCE TEXT
  VALUE

000016 0012           04021         RETURN  
                      04022 
                      04023 ; ; Starting pCode block
                      04024 S_RF24_c__RF24_beginTransaction code
000000                04025 _RF24_beginTransaction:
                      04026         .line   75; ../../../RF24_c/RF24_c.c    void RF24_beginTransaction(void ) {
000000 CFD9 FFE5      04027         MOVFF   FSR2L, POSTDEC1
000004 CFE1 FFD9      04028         MOVFF   FSR1L, FSR2L
                      04029         .line   79; ../../../RF24_c/RF24_c.c    RF24_csn_d(LOW);
000008 0E00           04030         MOVLW   0x00
Message[1301]: Using default destination of 0 (Access Bank).
00000A 6EE5           04031         MOVWF   POSTDEC1
00000C EC?? F0??      04032         CALL    _RF24_csn_d
000010 52E6           04033         MOVF    POSTINC1, F
000012 CFE4 FFD9      04034         MOVFF   PREINC1, FSR2L
000016 0012           04035         RETURN  
                      04036 
                      04037 ; ; Starting pCode block
                      04038 S_RF24_c__RF24_ce_d     code
000000                04039 _RF24_ce_d:
                      04040         .line   67; ../../../RF24_c/RF24_c.c    void RF24_ce_d(uint8_t level)
000000 CFD9 FFE5      04041         MOVFF   FSR2L, POSTDEC1
000004 CFE1 FFD9      04042         MOVFF   FSR1L, FSR2L
000008 C??? F???      04043         MOVFF   r0x00, POSTDEC1
00000C 0E02           04044         MOVLW   0x02
00000E CFDB F000      04045         MOVFF   PLUSW2, r0x00
000012 ????           04046         BANKSEL _rf
                      04047         .line   70; ../../../RF24_c/RF24_c.c    if (rf.ce_pin != rf.csn_pin) digitalWrite(rf.ce_pin,leve
                            l);
000014 51??           04048         MOVF    _rf, W, B
000016 ????           04049         BANKSEL (_rf + 1)
000018 19??           04050         XORWF   (_rf + 1), W, B
00001A E0??           04051         BZ      _00112_DS_
00001C 50??           04052         MOVF    r0x00, W
Message[1301]: Using default destination of 0 (Access Bank).
00001E 6EE5           04053         MOVWF   POSTDEC1
000020 ????           04054         BANKSEL _rf
000022 51??           04055         MOVF    _rf, W, B
Message[1301]: Using default destination of 0 (Access Bank).
000024 6EE5           04056         MOVWF   POSTDEC1
000026 EC?? F0??      04057         CALL    _digitalWrite
00002A 52E6           04058         MOVF    POSTINC1, F
00002C 52E6           04059         MOVF    POSTINC1, F
00002E                04060 _00112_DS_:
00002E CFE4 F000      04061         MOVFF   PREINC1, r0x00
000032 CFE4 FFD9      04062         MOVFF   PREINC1, FSR2L
000036 0012           04063         RETURN  
                      04064 
                      04065 ; ; Starting pCode block
                      04066 S_RF24_c__RF24_csn_d    code
000000                04067 _RF24_csn_d:
                      04068         .line   22; ../../../RF24_c/RF24_c.c    void RF24_csn_d( uint8_t mode)
000000 CFD9 FFE5      04069         MOVFF   FSR2L, POSTDEC1
gpasm-1.4.0 #1107 (May  9 2015) build/sdcc/pr   12-5-2016  17:29:30         PAGE 89


LOC    OBJECT CODE    LINE  SOURCE TEXT
  VALUE

000004 CFE1 FFD9      04070         MOVFF   FSR1L, FSR2L
000008 C??? F???      04071         MOVFF   r0x00, POSTDEC1
00000C 0E02           04072         MOVLW   0x02
00000E CFDB F000      04073         MOVFF   PLUSW2, r0x00
                      04074         .line   59; ../../../RF24_c/RF24_c.c    digitalWrite(rf.csn_pin,mode);
000012 50??           04075         MOVF    r0x00, W
Message[1301]: Using default destination of 0 (Access Bank).
000014 6EE5           04076         MOVWF   POSTDEC1
000016 ????           04077         BANKSEL (_rf + 1)
000018 51??           04078         MOVF    (_rf + 1), W, B
Message[1301]: Using default destination of 0 (Access Bank).
00001A 6EE5           04079         MOVWF   POSTDEC1
00001C EC?? F0??      04080         CALL    _digitalWrite
000020 52E6           04081         MOVF    POSTINC1, F
000022 52E6           04082         MOVF    POSTINC1, F
000024 ????           04083         BANKSEL (_rf + 17)
                      04084         .line   60; ../../../RF24_c/RF24_c.c    delayMicroseconds(rf.csDelay);
000026 51??           04085         MOVF    (_rf + 17), W, B
Message[1301]: Using default destination of 0 (Access Bank).
000028 6E??           04086         MOVWF   r0x00
00002A 50??           04087         MOVF    r0x00, W
Message[1301]: Using default destination of 0 (Access Bank).
00002C 6EE5           04088         MOVWF   POSTDEC1
00002E EC?? F0??      04089         CALL    _delayMicroseconds
000032 52E6           04090         MOVF    POSTINC1, F
000034 CFE4 F000      04091         MOVFF   PREINC1, r0x00
000038 CFE4 FFD9      04092         MOVFF   PREINC1, FSR2L
00003C 0012           04093         RETURN  
                      04094 
                      04095 ; ; Starting pCode block for Ival
                      04096         code
000000                04097 _child_pipe_enable:
000000 0100 0302 0504 04098         DB      0x00, 0x01, 0x02, 0x03, 0x04, 0x05
                      04099 ; ; Starting pCode block for Ival
000006                04100 _child_pipe:
000006 0B0A 0D0C 0F0E 04101         DB      0x0a, 0x0b, 0x0c, 0x0d, 0x0e, 0x0f
                      04102 ; ; Starting pCode block for Ival
00000C                04103 _child_payload_size:
00000C 1211 1413 1615 04104         DB      0x11, 0x12, 0x13, 0x14, 0x15, 0x16
                      04105 
                      04106 
                      04107 ; Statistics:
                      04108 ; code size:     8148 (0x1fd4) bytes ( 6.22%)
                      04109 ;                4074 (0x0fea) words
                      04110 ; udata size:      32 (0x0020) bytes ( 0.83%)
                      04111 ; access size:     16 (0x0010) bytes
                      04112 
                      04113 
                      04114         end
gpasm-1.4.0 #1107 (May  9 2015) build/sdcc/pr   12-5-2016  17:29:30         PAGE 90


SYMBOL TABLE
  LABEL                             VALUE

FSR0H                             00000FEA
FSR0L                             00000FE9
FSR1L                             00000FE1
FSR2L                             00000FD9
INDF0                             00000FEF
PLUSW2                            00000FDB
POSTDEC1                          00000FE5
POSTINC1                          00000FE6
PREINC1                           00000FE4
PRODH                             00000FF4
PRODL                             00000FF3
STATUS                            00000FD8
TABLAT                            00000FF5
TBLPTRH                           00000FF7
TBLPTRL                           00000FF6
TBLPTRU                           00000FF8
WREG                              00000FE8
_00112_DS_                        0000002E
_00133_DS_                        00000052
_00135_DS_                        00000084
_00146_DS_                        00000082
_00156_DS_                        00000054
_00158_DS_                        00000082
_00170_DS_                        00000076
_00180_DS_                        0000008A
_00183_DS_                        000000BC
_00185_DS_                        000000D2
_00188_DS_                        0000005E
_00189_DS_                        00000062
_00190_DS_                        00000070
_00191_DS_                        00000076
_00197_DS_                        000000B8
_00213_DS_                        000000AC
_00219_DS_                        00000056
_00220_DS_                        0000007A
_00223_DS_                        000000B0
_00225_DS_                        000000C6
_00228_DS_                        00000060
_00229_DS_                        00000066
_00235_DS_                        000000AC
_00251_DS_                        000000AA
_00284_DS_                        0000001C
_00301_DS_                        0000001C
_00316_DS_                        0000002C
_00318_DS_                        00000048
_00320_DS_                        000000A6
_00323_DS_                        0000012E
_00324_DS_                        00000132
_00325_DS_                        00000136
_00350_DS_                        00000082
_00351_DS_                        0000008C
_00354_DS_                        000000A0
_00369_DS_                        00000052
gpasm-1.4.0 #1107 (May  9 2015) build/sdcc/pr   12-5-2016  17:29:30         PAGE 91


SYMBOL TABLE
  LABEL                             VALUE 

_00377_DS_                        000000A0
_00378_DS_                        0000009A
_00390_DS_                        0000003E
_00400_DS_                        0000005A
_00404_DS_                        0000008E
_00405_DS_                        00000090
_00431_DS_                        0000008A
_00433_DS_                        000000E0
_00434_DS_                        00000102
_00450_DS_                        000000DA
_00462_DS_                        0000003E
_00464_DS_                        00000066
_00465_DS_                        00000088
_00489_DS_                        0000007C
_00491_DS_                        0000004E
_00492_DS_                        00000052
_00499_DS_                        00000044
_00500_DS_                        00000048
_00512_DS_                        0000000C
_00514_DS_                        00000048
_00515_DS_                        00000054
_00533_DS_                        00000068
_00538_DS_                        0000007A
_00540_DS_                        00000106
_00541_DS_                        00000112
_00560_DS_                        000000F0
_00571_DS_                        00000048
_00572_DS_                        0000004A
_00588_DS_                        00000064
_00590_DS_                        00000068
_00591_DS_                        0000006A
_00615_DS_                        00000040
_00638_DS_                        000000E6
_00640_DS_                        00000144
_00641_DS_                        00000190
_00644_DS_                        0000004A
_00646_DS_                        0000021A
_00667_DS_                        00000206
_00668_DS_                        00000200
_00675_DS_                        00000042
_00681_DS_                        0000009A
_00683_DS_                        000000EC
_00684_DS_                        0000012C
_00687_DS_                        000001B6
_00700_DS_                        000001A2
_00701_DS_                        0000019C
_00708_DS_                        0000005E
_00709_DS_                        00000058
_00734_DS_                        00000072
_00736_DS_                        000000A0
_00740_DS_                        00000050
_00754_DS_                        00000094
_00770_DS_                        00000028
gpasm-1.4.0 #1107 (May  9 2015) build/sdcc/pr   12-5-2016  17:29:30         PAGE 92


SYMBOL TABLE
  LABEL                             VALUE 

_00772_DS_                        00000038
_00778_DS_                        0000004E
_00779_DS_                        00000068
_00782_DS_                        00000078
_00791_DS_                        00000048
_00792_DS_                        00000042
_00794_DS_                        00000060
_00795_DS_                        0000005A
_00812_DS_                        0000001C
_00813_DS_                        00000020
_00814_DS_                        00000024
_00819_DS_                        00000014
_00827_DS_                        00000036
_00828_DS_                        00000040
_00848_DS_                        0000005A
_00849_DS_                        00000074
_00851_DS_                        0000009A
_00877_DS_                        00000038
_00880_DS_                        0000002C
_00881_DS_                        0000003A
_00900_DS_                        00000034
_00904_DS_                        00000038
_00921_DS_                        00000044
_00923_DS_                        0000003A
_00924_DS_                        00000048
_ADCON0                           00000000
_ADCON0bits                       00000000
_ADCON1                           00000000
_ADCON1bits                       00000000
_ADCON2                           00000000
_ADCON2bits                       00000000
_ADRES                            00000000
_ADRESH                           00000000
_ADRESL                           00000000
_BAUDCON                          00000000
_BAUDCONbits                      00000000
_BAUDCTL                          00000000
_BAUDCTLbits                      00000000
_BSR                              00000000
_CCP1CON                          00000000
_CCP1CONbits                      00000000
_CCP2CON                          00000000
_CCP2CONbits                      00000000
_CCPR1                            00000000
_CCPR1H                           00000000
_CCPR1L                           00000000
_CCPR2                            00000000
_CCPR2H                           00000000
_CCPR2L                           00000000
_CMCON                            00000000
_CMCONbits                        00000000
_CVRCON                           00000000
_CVRCONbits                       00000000
gpasm-1.4.0 #1107 (May  9 2015) build/sdcc/pr   12-5-2016  17:29:30         PAGE 93


SYMBOL TABLE
  LABEL                             VALUE 

_DDRA                             00000000
_DDRAbits                         00000000
_DDRB                             00000000
_DDRBbits                         00000000
_DDRC                             00000000
_DDRCbits                         00000000
_DDRD                             00000000
_DDRDbits                         00000000
_DDRE                             00000000
_DDREbits                         00000000
_ECCP1AS                          00000000
_ECCP1ASbits                      00000000
_EEADR                            00000000
_EEADRH                           00000000
_EECON1                           00000000
_EECON1bits                       00000000
_EECON2                           00000000
_EEDATA                           00000000
_FSR0H                            00000000
_FSR0L                            00000000
_FSR1H                            00000000
_FSR1L                            00000000
_FSR2H                            00000000
_FSR2L                            00000000
_HLVDCON                          00000000
_HLVDCONbits                      00000000
_INDF0                            00000000
_INDF1                            00000000
_INDF2                            00000000
_INTCON                           00000000
_INTCON2                          00000000
_INTCON2bits                      00000000
_INTCON3                          00000000
_INTCON3bits                      00000000
_INTCONbits                       00000000
_IPR1                             00000000
_IPR1bits                         00000000
_IPR2                             00000000
_IPR2bits                         00000000
_LATA                             00000000
_LATAbits                         00000000
_LATB                             00000000
_LATBbits                         00000000
_LATC                             00000000
_LATCbits                         00000000
_LATD                             00000000
_LATDbits                         00000000
_LATE                             00000000
_LATEbits                         00000000
_LVDCON                           00000000
_LVDCONbits                       00000000
_OSCCON                           00000000
_OSCCONbits                       00000000
gpasm-1.4.0 #1107 (May  9 2015) build/sdcc/pr   12-5-2016  17:29:30         PAGE 94


SYMBOL TABLE
  LABEL                             VALUE 

_OSCTUNE                          00000000
_OSCTUNEbits                      00000000
_PC                               00000000
_PCL                              00000000
_PCLATH                           00000000
_PCLATU                           00000000
_PIE1                             00000000
_PIE1bits                         00000000
_PIE2                             00000000
_PIE2bits                         00000000
_PIR1                             00000000
_PIR1bits                         00000000
_PIR2                             00000000
_PIR2bits                         00000000
_PLUSW0                           00000000
_PLUSW1                           00000000
_PLUSW2                           00000000
_PORTA                            00000000
_PORTAbits                        00000000
_PORTB                            00000000
_PORTBbits                        00000000
_PORTC                            00000000
_PORTCbits                        00000000
_PORTD                            00000000
_PORTDbits                        00000000
_PORTE                            00000000
_PORTEbits                        00000000
_POSTDEC0                         00000000
_POSTDEC1                         00000000
_POSTDEC2                         00000000
_POSTINC0                         00000000
_POSTINC1                         00000000
_POSTINC2                         00000000
_PR2                              00000000
_PREINC0                          00000000
_PREINC1                          00000000
_PREINC2                          00000000
_PROD                             00000000
_PRODH                            00000000
_PRODL                            00000000
_PWM1CON                          00000000
_PWM1CONbits                      00000000
_RCON                             00000000
_RCONbits                         00000000
_RCREG                            00000000
_RCSTA                            00000000
_RCSTAbits                        00000000
_RF24_available                   00000000
_RF24_available_p                 00000000
_RF24_begin                       00000000
_RF24_beginTransaction            00000000
_RF24_ce_d                        00000000
_RF24_closeReadingPipe            00000000
gpasm-1.4.0 #1107 (May  9 2015) build/sdcc/pr   12-5-2016  17:29:30         PAGE 95


SYMBOL TABLE
  LABEL                             VALUE 

_RF24_csn_d                       00000000
_RF24_disableCRC                  00000000
_RF24_enableAckPayload            00000000
_RF24_enableDynamicAck            00000000
_RF24_enableDynamicPayloads       00000000
_RF24_endTransaction              00000000
_RF24_flush_rx                    00000000
_RF24_flush_tx                    00000000
_RF24_getCRCLength                00000000
_RF24_getChannel                  00000000
_RF24_getDataRate                 00000000
_RF24_getDynamicPayloadSize       00000000
_RF24_getPALevel                  00000000
_RF24_getPayloadSize              00000000
_RF24_get_status                  00000000
_RF24_init                        00000000
_RF24_isAckPayloadAvailable       00000000
_RF24_isPVariant                  00000000
_RF24_isValid                     00000000
_RF24_maskIRQ                     00000000
_RF24_openReadingPipe             00000000
_RF24_openReadingPipe_d           00000000
_RF24_openReadingPipe_d_address_1_254  00000000
_RF24_openWritingPipe             00000000
_RF24_openWritingPipe_d           00000000
_RF24_openWritingPipe_d_value_1_249  00000000
_RF24_powerDown                   00000000
_RF24_powerUp                     00000000
_RF24_reUseTX                     00000000
_RF24_read                        00000000
_RF24_read_payload                00000000
_RF24_read_register_d             00000000
_RF24_read_register_m_d           00000000
_RF24_rxFifoFull                  00000000
_RF24_setAddressWidth             00000000
_RF24_setAutoAck                  00000000
_RF24_setAutoAck_p                00000000
_RF24_setCRCLength                00000000
_RF24_setChannel                  00000000
_RF24_setDataRate                 00000000
_RF24_setPALevel                  00000000
_RF24_setPayloadSize              00000000
_RF24_setRetries                  00000000
_RF24_spiTrans                    00000000
_RF24_startFastWrite              00000000
_RF24_startListening              00000000
_RF24_startWrite                  00000000
_RF24_stopListening               00000000
_RF24_testCarrier                 00000000
_RF24_testRPD                     00000000
_RF24_toggle_features_d           00000000
_RF24_txStandBy                   00000000
_RF24_txStandBy_t                 00000000
gpasm-1.4.0 #1107 (May  9 2015) build/sdcc/pr   12-5-2016  17:29:30         PAGE 96


SYMBOL TABLE
  LABEL                             VALUE 

_RF24_whatHappened                00000000
_RF24_write                       00000000
_RF24_writeAckPayload             00000000
_RF24_writeBlocking               00000000
_RF24_writeFast                   00000000
_RF24_writeFast_m                 00000000
_RF24_write_m                     00000000
_RF24_write_payload               00000000
_RF24_write_register_c_d          00000000
_RF24_write_register_d            00000000
_SPBRG                            00000000
_SPBRGH                           00000000
_SPI_begin                        00000000
_SPI_transfer                     00000000
_SSPADD                           00000000
_SSPBUF                           00000000
_SSPCON1                          00000000
_SSPCON1bits                      00000000
_SSPCON2                          00000000
_SSPCON2bits                      00000000
_SSPSTAT                          00000000
_SSPSTATbits                      00000000
_STATUS                           00000000
_STATUSbits                       00000000
_STKPTR                           00000000
_STKPTRbits                       00000000
_T0CON                            00000000
_T0CONbits                        00000000
_T1CON                            00000000
_T1CONbits                        00000000
_T2CON                            00000000
_T2CONbits                        00000000
_T3CON                            00000000
_T3CONbits                        00000000
_TABLAT                           00000000
_TBLPTR                           00000000
_TBLPTRH                          00000000
_TBLPTRL                          00000000
_TBLPTRU                          00000000
_TMR0                             00000000
_TMR0H                            00000000
_TMR0L                            00000000
_TMR1                             00000000
_TMR1H                            00000000
_TMR1L                            00000000
_TMR2                             00000000
_TMR3                             00000000
_TMR3H                            00000000
_TMR3L                            00000000
_TOS                              00000000
_TOSH                             00000000
_TOSL                             00000000
_TOSU                             00000000
gpasm-1.4.0 #1107 (May  9 2015) build/sdcc/pr   12-5-2016  17:29:30         PAGE 97


SYMBOL TABLE
  LABEL                             VALUE 

_TRISA                            00000000
_TRISAbits                        00000000
_TRISB                            00000000
_TRISBbits                        00000000
_TRISC                            00000000
_TRISCbits                        00000000
_TRISD                            00000000
_TRISDbits                        00000000
_TRISE                            00000000
_TRISEbits                        00000000
_TXREG                            00000000
_TXSTA                            00000000
_TXSTAbits                        00000000
_WDTCON                           00000000
_WDTCONbits                       00000000
_WREG                             00000000
__18F4620                         00000001
__ACC_RAM_LOW_END                 0000007F
__CODE_END                        0000FFFF
__CODE_START                      00000000
__EEPROM_END                      00F003FF
__EEPROM_START                    00F00000
__VECTOR_INT_HIGH                 00000008
__VECTOR_INT_LOW                  00000018
__VECTOR_RESET                    00000000
__gptrget1                        00000000
__gptrput1                        00000000
_child_payload_size               0000000C
_child_pipe                       00000006
_child_pipe_enable                00000000
_delay                            00000000
_delayMicroseconds                00000000
_digitalWrite                     00000000
_memcpy                           00000000
_millis                           00000000
_mtime                            00000000
_pinMode                          00000000
_rf                               00000000
_stdin                            00000000
_stdout                           00000000
r0x00                             00000000
r0x01                             00000001
r0x02                             00000002
r0x03                             00000003
r0x04                             00000004
r0x05                             00000005
r0x06                             00000006
r0x07                             00000007
r0x08                             00000008
r0x09                             00000009
r0x0a                             0000000A
r0x0b                             0000000B
r0x0c                             0000000C
gpasm-1.4.0 #1107 (May  9 2015) build/sdcc/pr   12-5-2016  17:29:30         PAGE 98


SYMBOL TABLE
  LABEL                             VALUE 

r0x0d                             0000000D
r0x0e                             0000000E
r0x0f                             0000000F

Errors   :     0
Warnings :     0 reported,     0 suppressed
Messages :   509 reported,     0 suppressed

