gpasm-1.4.0 #1107 (May  9 2015) build/sdcc/pr   12-5-2016  17:29:30         PAGE  1


LOC    OBJECT CODE    LINE  SOURCE TEXT
  VALUE

                      00001 ;--------------------------------------------------------
                      00002 ; File Created by SDCC : free open source ANSI-C Compiler
                      00003 ; Version 3.6.0 #9615 (Linux)
                      00004 ;--------------------------------------------------------
                      00005 ; PIC16 port for the Microchip 16-bit core micros
                      00006 ;--------------------------------------------------------
                      00007 
                      00008         .ident "SDCC version 3.6.0 #9615 [pic16 port]"
                      00009         .file   "../../RF24Network_c.c"
                      00010         list    p=18f4620
                      00011         radix   dec
                      00012 
                      00013 
                      00014 ;--------------------------------------------------------
                      00015 ; public variables in this module
                      00016 ;--------------------------------------------------------
  0000                00017         global  _RF24NH_init
  0000                00018         global  _RF24N_init
  0000                00019         global  _RF24N_begin_d
  0000                00020         global  _RF24N_update
  0000                00021         global  _RF24N_enqueue
  0000                00022         global  _RF24N_available
  0000                00023         global  _RF24N_parent
  0000                00024         global  _RF24N_peek
  0000                00025         global  _RF24N_read
  0000                00026         global  _RF24N_multicast
  0000                00027         global  _RF24N_write_m
  0000                00028         global  _RF24N_write_
  0000                00029         global  _RF24N__write
  0000                00030         global  _RF24N_write
  0000                00031         global  _RF24N_logicalToPhysicalAddress
  0000                00032         global  _RF24N_write_to_pipe
  0000                00033         global  _RF24N_is_direct_child
  0000                00034         global  _RF24N_is_descendant
  0000                00035         global  _RF24N_setup_address
  0000                00036         global  _RF24N_addressOfPipe
  0000                00037         global  _RF24N_direct_child_route_to
  0000                00038         global  _RF24N_is_valid_address
  0000                00039         global  _RF24N_multicastLevel
  0000                00040         global  _RF24N_levelToAddress
  0000                00041         global  _RF24N_pipe_address
  0000                00042         global  _RF24N_begin
  0000                00043         global  _RF24N_getFrame_buffer
  0000                00044         global  _RF24N_setReturnSysMsgs
  0000                00045         global  _RF24N_getNetworkFlags
  0000                00046         global  _RF24N_setNetworkFlags
  0000                00047         global  _RF24N_getRouteTimeout
  0000                00048         global  _RF24N_getFrag_ptr
  0000                00049         global  _RF24N_setMulticastRelay
                      00050 
                      00051 ;--------------------------------------------------------
                      00052 ; extern variables in this module
                      00053 ;--------------------------------------------------------
gpasm-1.4.0 #1107 (May  9 2015) build/sdcc/pr   12-5-2016  17:29:30         PAGE  2


LOC    OBJECT CODE    LINE  SOURCE TEXT
  VALUE

  0000                00054         extern  __gptrput2
  0000                00055         extern  __gptrput1
  0000                00056         extern  __gptrget2
  0000                00057         extern  __gptrget1
  0000                00058         extern  _PORTAbits
  0000                00059         extern  _PORTBbits
  0000                00060         extern  _PORTCbits
  0000                00061         extern  _PORTDbits
  0000                00062         extern  _PORTEbits
  0000                00063         extern  _LATAbits
  0000                00064         extern  _LATBbits
  0000                00065         extern  _LATCbits
  0000                00066         extern  _LATDbits
  0000                00067         extern  _LATEbits
  0000                00068         extern  _DDRAbits
  0000                00069         extern  _TRISAbits
  0000                00070         extern  _DDRBbits
  0000                00071         extern  _TRISBbits
  0000                00072         extern  _DDRCbits
  0000                00073         extern  _TRISCbits
  0000                00074         extern  _DDRDbits
  0000                00075         extern  _TRISDbits
  0000                00076         extern  _DDREbits
  0000                00077         extern  _TRISEbits
  0000                00078         extern  _OSCTUNEbits
  0000                00079         extern  _PIE1bits
  0000                00080         extern  _PIR1bits
  0000                00081         extern  _IPR1bits
  0000                00082         extern  _PIE2bits
  0000                00083         extern  _PIR2bits
  0000                00084         extern  _IPR2bits
  0000                00085         extern  _EECON1bits
  0000                00086         extern  _RCSTAbits
  0000                00087         extern  _TXSTAbits
  0000                00088         extern  _T3CONbits
  0000                00089         extern  _CMCONbits
  0000                00090         extern  _CVRCONbits
  0000                00091         extern  _ECCP1ASbits
  0000                00092         extern  _PWM1CONbits
  0000                00093         extern  _BAUDCONbits
  0000                00094         extern  _BAUDCTLbits
  0000                00095         extern  _CCP2CONbits
  0000                00096         extern  _CCP1CONbits
  0000                00097         extern  _ADCON2bits
  0000                00098         extern  _ADCON1bits
  0000                00099         extern  _ADCON0bits
  0000                00100         extern  _SSPCON2bits
  0000                00101         extern  _SSPCON1bits
  0000                00102         extern  _SSPSTATbits
  0000                00103         extern  _T2CONbits
  0000                00104         extern  _T1CONbits
  0000                00105         extern  _RCONbits
  0000                00106         extern  _WDTCONbits
gpasm-1.4.0 #1107 (May  9 2015) build/sdcc/pr   12-5-2016  17:29:30         PAGE  3


LOC    OBJECT CODE    LINE  SOURCE TEXT
  VALUE

  0000                00107         extern  _HLVDCONbits
  0000                00108         extern  _LVDCONbits
  0000                00109         extern  _OSCCONbits
  0000                00110         extern  _T0CONbits
  0000                00111         extern  _STATUSbits
  0000                00112         extern  _INTCON3bits
  0000                00113         extern  _INTCON2bits
  0000                00114         extern  _INTCONbits
  0000                00115         extern  _STKPTRbits
  0000                00116         extern  _stdin
  0000                00117         extern  _stdout
  0000                00118         extern  _mtime
  0000                00119         extern  _PORTA
  0000                00120         extern  _PORTB
  0000                00121         extern  _PORTC
  0000                00122         extern  _PORTD
  0000                00123         extern  _PORTE
  0000                00124         extern  _LATA
  0000                00125         extern  _LATB
  0000                00126         extern  _LATC
  0000                00127         extern  _LATD
  0000                00128         extern  _LATE
  0000                00129         extern  _DDRA
  0000                00130         extern  _TRISA
  0000                00131         extern  _DDRB
  0000                00132         extern  _TRISB
  0000                00133         extern  _DDRC
  0000                00134         extern  _TRISC
  0000                00135         extern  _DDRD
  0000                00136         extern  _TRISD
  0000                00137         extern  _DDRE
  0000                00138         extern  _TRISE
  0000                00139         extern  _OSCTUNE
  0000                00140         extern  _PIE1
  0000                00141         extern  _PIR1
  0000                00142         extern  _IPR1
  0000                00143         extern  _PIE2
  0000                00144         extern  _PIR2
  0000                00145         extern  _IPR2
  0000                00146         extern  _EECON1
  0000                00147         extern  _EECON2
  0000                00148         extern  _EEDATA
  0000                00149         extern  _EEADR
  0000                00150         extern  _EEADRH
  0000                00151         extern  _RCSTA
  0000                00152         extern  _TXSTA
  0000                00153         extern  _TXREG
  0000                00154         extern  _RCREG
  0000                00155         extern  _SPBRG
  0000                00156         extern  _SPBRGH
  0000                00157         extern  _T3CON
  0000                00158         extern  _TMR3
  0000                00159         extern  _TMR3L
gpasm-1.4.0 #1107 (May  9 2015) build/sdcc/pr   12-5-2016  17:29:30         PAGE  4


LOC    OBJECT CODE    LINE  SOURCE TEXT
  VALUE

  0000                00160         extern  _TMR3H
  0000                00161         extern  _CMCON
  0000                00162         extern  _CVRCON
  0000                00163         extern  _ECCP1AS
  0000                00164         extern  _PWM1CON
  0000                00165         extern  _BAUDCON
  0000                00166         extern  _BAUDCTL
  0000                00167         extern  _CCP2CON
  0000                00168         extern  _CCPR2
  0000                00169         extern  _CCPR2L
  0000                00170         extern  _CCPR2H
  0000                00171         extern  _CCP1CON
  0000                00172         extern  _CCPR1
  0000                00173         extern  _CCPR1L
  0000                00174         extern  _CCPR1H
  0000                00175         extern  _ADCON2
  0000                00176         extern  _ADCON1
  0000                00177         extern  _ADCON0
  0000                00178         extern  _ADRES
  0000                00179         extern  _ADRESL
  0000                00180         extern  _ADRESH
  0000                00181         extern  _SSPCON2
  0000                00182         extern  _SSPCON1
  0000                00183         extern  _SSPSTAT
  0000                00184         extern  _SSPADD
  0000                00185         extern  _SSPBUF
  0000                00186         extern  _T2CON
  0000                00187         extern  _PR2
  0000                00188         extern  _TMR2
  0000                00189         extern  _T1CON
  0000                00190         extern  _TMR1
  0000                00191         extern  _TMR1L
  0000                00192         extern  _TMR1H
  0000                00193         extern  _RCON
  0000                00194         extern  _WDTCON
  0000                00195         extern  _HLVDCON
  0000                00196         extern  _LVDCON
  0000                00197         extern  _OSCCON
  0000                00198         extern  _T0CON
  0000                00199         extern  _TMR0
  0000                00200         extern  _TMR0L
  0000                00201         extern  _TMR0H
  0000                00202         extern  _STATUS
  0000                00203         extern  _FSR2L
  0000                00204         extern  _FSR2H
  0000                00205         extern  _PLUSW2
  0000                00206         extern  _PREINC2
  0000                00207         extern  _POSTDEC2
  0000                00208         extern  _POSTINC2
  0000                00209         extern  _INDF2
  0000                00210         extern  _BSR
  0000                00211         extern  _FSR1L
  0000                00212         extern  _FSR1H
gpasm-1.4.0 #1107 (May  9 2015) build/sdcc/pr   12-5-2016  17:29:30         PAGE  5


LOC    OBJECT CODE    LINE  SOURCE TEXT
  VALUE

  0000                00213         extern  _PLUSW1
  0000                00214         extern  _PREINC1
  0000                00215         extern  _POSTDEC1
  0000                00216         extern  _POSTINC1
  0000                00217         extern  _INDF1
  0000                00218         extern  _WREG
  0000                00219         extern  _FSR0L
  0000                00220         extern  _FSR0H
  0000                00221         extern  _PLUSW0
  0000                00222         extern  _PREINC0
  0000                00223         extern  _POSTDEC0
  0000                00224         extern  _POSTINC0
  0000                00225         extern  _INDF0
  0000                00226         extern  _INTCON3
  0000                00227         extern  _INTCON2
  0000                00228         extern  _INTCON
  0000                00229         extern  _PROD
  0000                00230         extern  _PRODL
  0000                00231         extern  _PRODH
  0000                00232         extern  _TABLAT
  0000                00233         extern  _TBLPTR
  0000                00234         extern  _TBLPTRL
  0000                00235         extern  _TBLPTRH
  0000                00236         extern  _TBLPTRU
  0000                00237         extern  _PC
  0000                00238         extern  _PCL
  0000                00239         extern  _PCLATH
  0000                00240         extern  _PCLATU
  0000                00241         extern  _STKPTR
  0000                00242         extern  _TOS
  0000                00243         extern  _TOSL
  0000                00244         extern  _TOSH
  0000                00245         extern  _TOSU
  0000                00246         extern  _memcpy
  0000                00247         extern  _memmove
  0000                00248         extern  _millis
  0000                00249         extern  _delay
  0000                00250         extern  _delayMicroseconds
  0000                00251         extern  _RF24_startListening
  0000                00252         extern  _RF24_stopListening
  0000                00253         extern  _RF24_read
  0000                00254         extern  _RF24_available_p
  0000                00255         extern  _RF24_writeFast_m
  0000                00256         extern  _RF24_txStandBy_t
  0000                00257         extern  _RF24_isValid
  0000                00258         extern  _RF24_setRetries
  0000                00259         extern  _RF24_setChannel
  0000                00260         extern  _RF24_getDynamicPayloadSize
  0000                00261         extern  _RF24_enableDynamicPayloads
  0000                00262         extern  _RF24_setAutoAck_p
  0000                00263         extern  _RF24_openReadingPipe_d
  0000                00264         extern  _RF24_openWritingPipe_d
  0000                00265         extern  __moduint
gpasm-1.4.0 #1107 (May  9 2015) build/sdcc/pr   12-5-2016  17:29:30         PAGE  6


LOC    OBJECT CODE    LINE  SOURCE TEXT
  VALUE

  0000                00266         extern  __mullong
  0000                00267         extern  __divuint
  0000                00268         extern  __mulint
                      00269 
                      00270 ;--------------------------------------------------------
                      00271 ;       Equates to used internal registers
                      00272 ;--------------------------------------------------------
  00000FD8            00273 STATUS  equ     0xfd8
  00000FE8            00274 WREG    equ     0xfe8
  00000FE9            00275 FSR0L   equ     0xfe9
  00000FEA            00276 FSR0H   equ     0xfea
  00000FE1            00277 FSR1L   equ     0xfe1
  00000FD9            00278 FSR2L   equ     0xfd9
  00000FEF            00279 INDF0   equ     0xfef
  00000FE6            00280 POSTINC1        equ     0xfe6
  00000FE5            00281 POSTDEC1        equ     0xfe5
  00000FE4            00282 PREINC1 equ     0xfe4
  00000FDB            00283 PLUSW2  equ     0xfdb
  00000FF3            00284 PRODL   equ     0xff3
  00000FF4            00285 PRODH   equ     0xff4
                      00286 
                      00287 
                      00288         idata
000000 01 00          00289 _next_id        db      0x01, 0x00
000002 C3 3C 33 CE 3E 00290 _RF24N_pipe_address_address_translation_1_315   db      0xc3, 0x3c, 0x33, 0xce, 0x3e, 0xe3, 0xec
       E3 EC          
                      00291 
                      00292 
                      00293 ; Internal registers
                      00294 .registers      udata_ovr       0x0000
000000                00295 r0x00   res     1
000001                00296 r0x01   res     1
000002                00297 r0x02   res     1
000003                00298 r0x03   res     1
000004                00299 r0x04   res     1
000005                00300 r0x05   res     1
000006                00301 r0x06   res     1
000007                00302 r0x07   res     1
000008                00303 r0x08   res     1
000009                00304 r0x09   res     1
00000A                00305 r0x0a   res     1
00000B                00306 r0x0b   res     1
00000C                00307 r0x0c   res     1
00000D                00308 r0x0d   res     1
00000E                00309 r0x0e   res     1
00000F                00310 r0x0f   res     1
000010                00311 r0x10   res     1
000011                00312 r0x11   res     1
000012                00313 r0x12   res     1
000013                00314 r0x13   res     1
000014                00315 r0x14   res     1
000015                00316 r0x15   res     1
000016                00317 r0x16   res     1
gpasm-1.4.0 #1107 (May  9 2015) build/sdcc/pr   12-5-2016  17:29:30         PAGE  7


LOC    OBJECT CODE    LINE  SOURCE TEXT
  VALUE

000017                00318 r0x17   res     1
000018                00319 r0x18   res     1
000019                00320 r0x19   res     1
00001A                00321 r0x1a   res     1
                      00322 
                      00323 udata_RF24Network_c_0   udata
000000                00324 _rn     res     373
                      00325 
                      00326 udata_RF24Network_c_1   udata
000000                00327 _RF24N_begin_d_addr_2_185       res     5
                      00328 
                      00329 udata_RF24Network_c_2   udata
000000                00330 _RF24N_update_pipe_num_1_186    res     1
                      00331 
                      00332 udata_RF24Network_c_3   udata
000000                00333 _RF24N_enqueue_message_size_1_210       res     2
                      00334 
                      00335 udata_RF24Network_c_4   udata
000000                00336 _RF24N_peek_msg_size_2_234      res     2
                      00337 
                      00338 udata_RF24Network_c_5   udata
000000                00339 _RF24N_read_bufsize_1_236       res     2
                      00340 
                      00341 udata_RF24Network_c_6   udata
000000                00342 _RF24N_write_conversion_1_270   res     4
                      00343 
                      00344 udata_RF24Network_c_7   udata
000000                00345 _RF24N_write_to_pipe_out_pipe_1_285     res     5
                      00346 
                      00347 udata_RF24Network_c_8   udata
000000                00348 _RF24N_multicastLevel_addr_1_309        res     5
                      00349 
                      00350 udata_RF24Network_c_9   udata
000000                00351 _RF24N_pipe_address_result_1_315        res     5
                      00352 
                      00353 ;--------------------------------------------------------
                      00354 ; global & static initialisations
                      00355 ;--------------------------------------------------------
                      00356 ; I code from now on!
                      00357 ; ; Starting pCode block
                      00358 S_RF24Network_c__RF24N_setMulticastRelay        code
000000                00359 _RF24N_setMulticastRelay:
                      00360         .line   1446; ../../RF24Network_c.c     void  RF24N_setMulticastRelay(void)
000000 CFD9 FFE5      00361         MOVFF   FSR2L, POSTDEC1
000004 CFE1 FFD9      00362         MOVFF   FSR1L, FSR2L
                      00363         .line   1448; ../../RF24Network_c.c     rn.multicastRelay=1;
000008 0E01           00364         MOVLW   0x01
00000A ????           00365         BANKSEL _rn
00000C 6F??           00366         MOVWF   _rn, B
00000E CFE4 FFD9      00367         MOVFF   PREINC1, FSR2L
000012 0012           00368         RETURN  
                      00369 
                      00370 ; ; Starting pCode block
gpasm-1.4.0 #1107 (May  9 2015) build/sdcc/pr   12-5-2016  17:29:30         PAGE  8


LOC    OBJECT CODE    LINE  SOURCE TEXT
  VALUE

                      00371 S_RF24Network_c__RF24N_getFrag_ptr      code
000000                00372 _RF24N_getFrag_ptr:
                      00373         .line   1439; ../../RF24Network_c.c     RF24NetworkFrame* RF24N_getFrag_ptr(void){
000000 CFD9 FFE5      00374         MOVFF   FSR2L, POSTDEC1
000004 CFE1 FFD9      00375         MOVFF   FSR1L, FSR2L
                      00376         .line   1440; ../../RF24Network_c.c     return rn.frag_ptr;
000008 C??? F???      00377         MOVFF   (_rn + 41), PRODH
00000C C??? F???      00378         MOVFF   (_rn + 40), PRODL
000010 ????           00379         BANKSEL (_rn + 39)
000012 51??           00380         MOVF    (_rn + 39), W, B
000014 CFE4 FFD9      00381         MOVFF   PREINC1, FSR2L
000018 0012           00382         RETURN  
                      00383 
                      00384 ; ; Starting pCode block
                      00385 S_RF24Network_c__RF24N_getRouteTimeout  code
000000                00386 _RF24N_getRouteTimeout:
                      00387         .line   1433; ../../RF24Network_c.c     uint16_t RF24N_getRouteTimeout(void){
000000 CFD9 FFE5      00388         MOVFF   FSR2L, POSTDEC1
000004 CFE1 FFD9      00389         MOVFF   FSR1L, FSR2L
                      00390         .line   1434; ../../RF24Network_c.c     return rn.routeTimeout; 
000008 C??? F???      00391         MOVFF   (_rn + 6), PRODL
00000C ????           00392         BANKSEL (_rn + 5)
00000E 51??           00393         MOVF    (_rn + 5), W, B
000010 CFE4 FFD9      00394         MOVFF   PREINC1, FSR2L
000014 0012           00395         RETURN  
                      00396 
                      00397 ; ; Starting pCode block
                      00398 S_RF24Network_c__RF24N_setNetworkFlags  code
000000                00399 _RF24N_setNetworkFlags:
                      00400         .line   1428; ../../RF24Network_c.c     void RF24N_setNetworkFlags(uint8_t nf){
000000 CFD9 FFE5      00401         MOVFF   FSR2L, POSTDEC1
000004 CFE1 FFD9      00402         MOVFF   FSR1L, FSR2L
000008 C??? F???      00403         MOVFF   r0x00, POSTDEC1
00000C 0E02           00404         MOVLW   0x02
00000E CFDB F000      00405         MOVFF   PLUSW2, r0x00
                      00406         .line   1429; ../../RF24Network_c.c     rn.networkFlags=nf; 
000012 50??           00407         MOVF    r0x00, W
000014 ????           00408         BANKSEL (_rn + 43)
000016 6F??           00409         MOVWF   (_rn + 43), B
000018 CFE4 F000      00410         MOVFF   PREINC1, r0x00
00001C CFE4 FFD9      00411         MOVFF   PREINC1, FSR2L
000020 0012           00412         RETURN  
                      00413 
                      00414 ; ; Starting pCode block
                      00415 S_RF24Network_c__RF24N_getNetworkFlags  code
000000                00416 _RF24N_getNetworkFlags:
                      00417         .line   1424; ../../RF24Network_c.c     uint8_t RF24N_getNetworkFlags(void){
000000 CFD9 FFE5      00418         MOVFF   FSR2L, POSTDEC1
000004 CFE1 FFD9      00419         MOVFF   FSR1L, FSR2L
000008 ????           00420         BANKSEL (_rn + 43)
                      00421         .line   1425; ../../RF24Network_c.c     return rn.networkFlags; 
00000A 51??           00422         MOVF    (_rn + 43), W, B
00000C CFE4 FFD9      00423         MOVFF   PREINC1, FSR2L
gpasm-1.4.0 #1107 (May  9 2015) build/sdcc/pr   12-5-2016  17:29:30         PAGE  9


LOC    OBJECT CODE    LINE  SOURCE TEXT
  VALUE

000010 0012           00424         RETURN  
                      00425 
                      00426 ; ; Starting pCode block
                      00427 S_RF24Network_c__RF24N_setReturnSysMsgs code
000000                00428 _RF24N_setReturnSysMsgs:
                      00429         .line   1419; ../../RF24Network_c.c     void    RF24N_setReturnSysMsgs(void){
000000 CFD9 FFE5      00430         MOVFF   FSR2L, POSTDEC1
000004 CFE1 FFD9      00431         MOVFF   FSR1L, FSR2L
                      00432         .line   1420; ../../RF24Network_c.c     rn.returnSysMsgs=1;
000008 0E01           00433         MOVLW   0x01
00000A ????           00434         BANKSEL (_rn + 42)
00000C 6F??           00435         MOVWF   (_rn + 42), B
00000E CFE4 FFD9      00436         MOVFF   PREINC1, FSR2L
000012 0012           00437         RETURN  
                      00438 
                      00439 ; ; Starting pCode block
                      00440 S_RF24Network_c__RF24N_getFrame_buffer  code
000000                00441 _RF24N_getFrame_buffer:
                      00442         .line   1413; ../../RF24Network_c.c     uint8_t * RF24N_getFrame_buffer(void){
000000 CFD9 FFE5      00443         MOVFF   FSR2L, POSTDEC1
000004 CFE1 FFD9      00444         MOVFF   FSR1L, FSR2L
000008 C??? F???      00445         MOVFF   r0x00, POSTDEC1
00000C C??? F???      00446         MOVFF   r0x01, POSTDEC1
000010 C??? F???      00447         MOVFF   r0x02, POSTDEC1
                      00448         .line   1414; ../../RF24Network_c.c     return rn.frame_buffer;
000014 0E??           00449         MOVLW   HIGH(_rn + 7)
Message[1301]: Using default destination of 0 (Access Bank).
000016 6E??           00450         MOVWF   r0x01
000018 0E??           00451         MOVLW   LOW(_rn + 7)
Message[1301]: Using default destination of 0 (Access Bank).
00001A 6E??           00452         MOVWF   r0x00
00001C 0E80           00453         MOVLW   0x80
Message[1301]: Using default destination of 0 (Access Bank).
00001E 6E??           00454         MOVWF   r0x02
000020 C??? F???      00455         MOVFF   r0x02, PRODH
000024 C??? F???      00456         MOVFF   r0x01, PRODL
000028 50??           00457         MOVF    r0x00, W
00002A CFE4 F000      00458         MOVFF   PREINC1, r0x02
00002E CFE4 F000      00459         MOVFF   PREINC1, r0x01
000032 CFE4 F000      00460         MOVFF   PREINC1, r0x00
000036 CFE4 FFD9      00461         MOVFF   PREINC1, FSR2L
00003A 0012           00462         RETURN  
                      00463 
                      00464 ; ; Starting pCode block
                      00465 S_RF24Network_c__RF24N_begin    code
000000                00466 _RF24N_begin:
                      00467         .line   1407; ../../RF24Network_c.c     void RF24N_begin(uint16_t _node_address){
000000 CFD9 FFE5      00468         MOVFF   FSR2L, POSTDEC1
000004 CFE1 FFD9      00469         MOVFF   FSR1L, FSR2L
000008 C??? F???      00470         MOVFF   r0x00, POSTDEC1
00000C C??? F???      00471         MOVFF   r0x01, POSTDEC1
000010 0E02           00472         MOVLW   0x02
000012 CFDB F000      00473         MOVFF   PLUSW2, r0x00
gpasm-1.4.0 #1107 (May  9 2015) build/sdcc/pr   12-5-2016  17:29:30         PAGE 10


LOC    OBJECT CODE    LINE  SOURCE TEXT
  VALUE

000016 0E03           00474         MOVLW   0x03
000018 CFDB F000      00475         MOVFF   PLUSW2, r0x01
                      00476         .line   1408; ../../RF24Network_c.c     RF24N_begin_d(USE_CURRENT_CHANNEL,_node_address);
00001C 50??           00477         MOVF    r0x01, W
Message[1301]: Using default destination of 0 (Access Bank).
00001E 6EE5           00478         MOVWF   POSTDEC1
000020 50??           00479         MOVF    r0x00, W
Message[1301]: Using default destination of 0 (Access Bank).
000022 6EE5           00480         MOVWF   POSTDEC1
000024 0EFF           00481         MOVLW   0xff
Message[1301]: Using default destination of 0 (Access Bank).
000026 6EE5           00482         MOVWF   POSTDEC1
000028 EC?? F0??      00483         CALL    _RF24N_begin_d
00002C 0E03           00484         MOVLW   0x03
00002E 26E1           00485         ADDWF   FSR1L, F
000030 CFE4 F000      00486         MOVFF   PREINC1, r0x01
000034 CFE4 F000      00487         MOVFF   PREINC1, r0x00
000038 CFE4 FFD9      00488         MOVFF   PREINC1, FSR2L
00003C 0012           00489         RETURN  
                      00490 
                      00491 ; ; Starting pCode block
                      00492 S_RF24Network_c__RF24N_pipe_address     code
000000                00493 _RF24N_pipe_address:
                      00494         .line   1359; ../../RF24Network_c.c     void RF24N_pipe_address( uint16_t node, uint8_t pipe ,ra
                            ddr_t * address)
000000 CFD9 FFE5      00495         MOVFF   FSR2L, POSTDEC1
000004 CFE1 FFD9      00496         MOVFF   FSR1L, FSR2L
000008 C??? F???      00497         MOVFF   r0x00, POSTDEC1
00000C C??? F???      00498         MOVFF   r0x01, POSTDEC1
000010 C??? F???      00499         MOVFF   r0x02, POSTDEC1
000014 C??? F???      00500         MOVFF   r0x03, POSTDEC1
000018 C??? F???      00501         MOVFF   r0x04, POSTDEC1
00001C C??? F???      00502         MOVFF   r0x05, POSTDEC1
000020 C??? F???      00503         MOVFF   r0x06, POSTDEC1
000024 C??? F???      00504         MOVFF   r0x07, POSTDEC1
000028 C??? F???      00505         MOVFF   r0x08, POSTDEC1
00002C C??? F???      00506         MOVFF   r0x09, POSTDEC1
000030 C??? F???      00507         MOVFF   r0x0a, POSTDEC1
000034 C??? F???      00508         MOVFF   r0x0b, POSTDEC1
000038 C??? F???      00509         MOVFF   r0x0c, POSTDEC1
00003C C??? F???      00510         MOVFF   r0x0d, POSTDEC1
000040 C??? F???      00511         MOVFF   r0x0e, POSTDEC1
000044 C??? F???      00512         MOVFF   r0x0f, POSTDEC1
000048 C??? F???      00513         MOVFF   r0x10, POSTDEC1
00004C 0E02           00514         MOVLW   0x02
00004E CFDB F000      00515         MOVFF   PLUSW2, r0x00
000052 0E03           00516         MOVLW   0x03
000054 CFDB F000      00517         MOVFF   PLUSW2, r0x01
000058 0E04           00518         MOVLW   0x04
00005A CFDB F000      00519         MOVFF   PLUSW2, r0x02
00005E 0E05           00520         MOVLW   0x05
000060 CFDB F000      00521         MOVFF   PLUSW2, r0x03
000064 0E06           00522         MOVLW   0x06
gpasm-1.4.0 #1107 (May  9 2015) build/sdcc/pr   12-5-2016  17:29:30         PAGE 11


LOC    OBJECT CODE    LINE  SOURCE TEXT
  VALUE

000066 CFDB F000      00523         MOVFF   PLUSW2, r0x04
00006A 0E07           00524         MOVLW   0x07
00006C CFDB F000      00525         MOVFF   PLUSW2, r0x05
                      00526         .line   1363; ../../RF24Network_c.c     raddr_t result[5] = {0xCC,0xCC,0xCC,0xCC,0xCC};
000070 0ECC           00527         MOVLW   0xcc
000072 ????           00528         BANKSEL _RF24N_pipe_address_result_1_315
000074 6F??           00529         MOVWF   _RF24N_pipe_address_result_1_315, B
000076 0ECC           00530         MOVLW   0xcc
000078 ????           00531         BANKSEL (_RF24N_pipe_address_result_1_315 + 1)
00007A 6F??           00532         MOVWF   (_RF24N_pipe_address_result_1_315 + 1), B
00007C 0ECC           00533         MOVLW   0xcc
00007E ????           00534         BANKSEL (_RF24N_pipe_address_result_1_315 + 2)
000080 6F??           00535         MOVWF   (_RF24N_pipe_address_result_1_315 + 2), B
000082 0ECC           00536         MOVLW   0xcc
000084 ????           00537         BANKSEL (_RF24N_pipe_address_result_1_315 + 3)
000086 6F??           00538         MOVWF   (_RF24N_pipe_address_result_1_315 + 3), B
000088 0ECC           00539         MOVLW   0xcc
00008A ????           00540         BANKSEL (_RF24N_pipe_address_result_1_315 + 4)
00008C 6F??           00541         MOVWF   (_RF24N_pipe_address_result_1_315 + 4), B
                      00542         .line   1364; ../../RF24Network_c.c     uint8_t* out = (uint8_t*)(result);
00008E 0E??           00543         MOVLW   HIGH(_RF24N_pipe_address_result_1_315)
Message[1301]: Using default destination of 0 (Access Bank).
000090 6E??           00544         MOVWF   r0x07
000092 0E??           00545         MOVLW   LOW(_RF24N_pipe_address_result_1_315)
Message[1301]: Using default destination of 0 (Access Bank).
000094 6E??           00546         MOVWF   r0x06
000096 0E80           00547         MOVLW   0x80
Message[1301]: Using default destination of 0 (Access Bank).
000098 6E??           00548         MOVWF   r0x08
                      00549         .line   1369; ../../RF24Network_c.c     uint8_t count = 1; uint16_t dec = node;
00009A C??? F???      00550         MOVFF   r0x00, r0x09
00009E C??? F???      00551         MOVFF   r0x01, r0x0a
                      00552         .line   1371; ../../RF24Network_c.c     while(dec){
0000A2 0E01           00553         MOVLW   0x01
Message[1301]: Using default destination of 0 (Access Bank).
0000A4 6E??           00554         MOVWF   r0x0b
0000A6                00555 _00931_DS_:
0000A6 50??           00556         MOVF    r0x09, W
0000A8 10??           00557         IORWF   r0x0a, W
0000AA E0??           00558         BZ      _00933_DS_
                      00559         .line   1373; ../../RF24Network_c.c     if(pipe != 0 || !node)
0000AC 50??           00560         MOVF    r0x02, W
0000AE E1??           00561         BNZ     _00928_DS_
0000B0 50??           00562         MOVF    r0x00, W
0000B2 10??           00563         IORWF   r0x01, W
0000B4 E1??           00564         BNZ     _00929_DS_
0000B6                00565 _00928_DS_:
                      00566         .line   1375; ../../RF24Network_c.c     out[count]=address_translation[(dec % 8)];              
                            // Convert our decimal values to octal, translate them to address bytes, and set our address
0000B6 50??           00567         MOVF    r0x0b, W
0000B8 24??           00568         ADDWF   r0x06, W
Message[1301]: Using default destination of 0 (Access Bank).
0000BA 6E??           00569         MOVWF   r0x0c
gpasm-1.4.0 #1107 (May  9 2015) build/sdcc/pr   12-5-2016  17:29:30         PAGE 12


LOC    OBJECT CODE    LINE  SOURCE TEXT
  VALUE

Message[1301]: Using default destination of 0 (Access Bank).
0000BC 6AE8           00570         CLRF    WREG
0000BE 20??           00571         ADDWFC  r0x07, W
Message[1301]: Using default destination of 0 (Access Bank).
0000C0 6E??           00572         MOVWF   r0x0d
Message[1301]: Using default destination of 0 (Access Bank).
0000C2 6AE8           00573         CLRF    WREG
0000C4 20??           00574         ADDWFC  r0x08, W
Message[1301]: Using default destination of 0 (Access Bank).
0000C6 6E??           00575         MOVWF   r0x0e
0000C8 0E07           00576         MOVLW   0x07
0000CA 14??           00577         ANDWF   r0x09, W
Message[1301]: Using default destination of 0 (Access Bank).
0000CC 6E??           00578         MOVWF   r0x0f
Message[1301]: Using default destination of 0 (Access Bank).
0000CE 6A??           00579         CLRF    r0x10
0000D0 0E??           00580         MOVLW   LOW(_RF24N_pipe_address_address_translation_1_315)
0000D2 26??           00581         ADDWF   r0x0f, F
0000D4 0E??           00582         MOVLW   HIGH(_RF24N_pipe_address_address_translation_1_315)
0000D6 22??           00583         ADDWFC  r0x10, F
0000D8 C??? F???      00584         MOVFF   r0x0f, FSR0L
0000DC C??? F???      00585         MOVFF   r0x10, FSR0H
0000E0 CFEF F000      00586         MOVFF   INDF0, r0x0f
0000E4 C??? F???      00587         MOVFF   r0x0f, POSTDEC1
0000E8 C??? F???      00588         MOVFF   r0x0c, FSR0L
0000EC C??? F???      00589         MOVFF   r0x0d, PRODL
0000F0 50??           00590         MOVF    r0x0e, W
0000F2 EC?? F0??      00591         CALL    __gptrput1
0000F6                00592 _00929_DS_:
                      00593         .line   1377; ../../RF24Network_c.c     dec /= 8;       
0000F6 90D8           00594         BCF     STATUS, 0
0000F8 32??           00595         RRCF    r0x0a, F
0000FA 32??           00596         RRCF    r0x09, F
0000FC 90D8           00597         BCF     STATUS, 0
0000FE 32??           00598         RRCF    r0x0a, F
000100 32??           00599         RRCF    r0x09, F
000102 90D8           00600         BCF     STATUS, 0
000104 32??           00601         RRCF    r0x0a, F
000106 32??           00602         RRCF    r0x09, F
                      00603         .line   1378; ../../RF24Network_c.c     count++;
000108 2A??           00604         INCF    r0x0b, F
00010A D???           00605         BRA     _00931_DS_
00010C                00606 _00933_DS_:
                      00607         .line   1382; ../../RF24Network_c.c     if(pipe != 0 || !node)
00010C 50??           00608         MOVF    r0x02, W
00010E E1??           00609         BNZ     _00934_DS_
000110 50??           00610         MOVF    r0x00, W
000112 10??           00611         IORWF   r0x01, W
000114 E1??           00612         BNZ     _00935_DS_
000116                00613 _00934_DS_:
                      00614         .line   1384; ../../RF24Network_c.c     out[0] = address_translation[pipe];
Message[1301]: Using default destination of 0 (Access Bank).
000116 6A??           00615         CLRF    r0x00
gpasm-1.4.0 #1107 (May  9 2015) build/sdcc/pr   12-5-2016  17:29:30         PAGE 13


LOC    OBJECT CODE    LINE  SOURCE TEXT
  VALUE

000118 0E??           00616         MOVLW   LOW(_RF24N_pipe_address_address_translation_1_315)
00011A 26??           00617         ADDWF   r0x02, F
00011C 0E??           00618         MOVLW   HIGH(_RF24N_pipe_address_address_translation_1_315)
00011E 22??           00619         ADDWFC  r0x00, F
000120 C??? F???      00620         MOVFF   r0x02, FSR0L
000124 C??? F???      00621         MOVFF   r0x00, FSR0H
000128 CFEF F000      00622         MOVFF   INDF0, r0x02
00012C C??? F???      00623         MOVFF   r0x02, POSTDEC1
000130 C??? F???      00624         MOVFF   r0x06, FSR0L
000134 C??? F???      00625         MOVFF   r0x07, PRODL
000138 50??           00626         MOVF    r0x08, W
00013A EC?? F0??      00627         CALL    __gptrput1
00013E D???           00628         BRA     _00947_DS_
000140                00629 _00935_DS_:
                      00630         .line   1387; ../../RF24Network_c.c     out[1] = address_translation[count-1];
000140 2A??           00631         INCF    r0x06, F
000142 E3??           00632         BNC     _00961_DS_
000144 4A??           00633         INFSNZ  r0x07, F
000146 2A??           00634         INCF    r0x08, F
000148                00635 _00961_DS_:
000148 06??           00636         DECF    r0x0b, F
Message[1301]: Using default destination of 0 (Access Bank).
00014A 6A??           00637         CLRF    r0x00
00014C 0E??           00638         MOVLW   LOW(_RF24N_pipe_address_address_translation_1_315)
00014E 26??           00639         ADDWF   r0x0b, F
000150 0E??           00640         MOVLW   HIGH(_RF24N_pipe_address_address_translation_1_315)
000152 22??           00641         ADDWFC  r0x00, F
000154 C??? F???      00642         MOVFF   r0x0b, FSR0L
000158 C??? F???      00643         MOVFF   r0x00, FSR0H
00015C CFEF F000      00644         MOVFF   INDF0, r0x0b
000160 C??? F???      00645         MOVFF   r0x0b, POSTDEC1
000164 C??? F???      00646         MOVFF   r0x06, FSR0L
000168 C??? F???      00647         MOVFF   r0x07, PRODL
00016C 50??           00648         MOVF    r0x08, W
00016E EC?? F0??      00649         CALL    __gptrput1
000172                00650 _00947_DS_:
                      00651         .line   1399; ../../RF24Network_c.c     for(i=0;i<5;i++)
Message[1301]: Using default destination of 0 (Access Bank).
000172 6A??           00652         CLRF    r0x00
000174                00653 _00939_DS_:
                      00654         .line   1401; ../../RF24Network_c.c     address[i]=result[4-i];
000174 50??           00655         MOVF    r0x00, W
000176 24??           00656         ADDWF   r0x03, W
Message[1301]: Using default destination of 0 (Access Bank).
000178 6E??           00657         MOVWF   r0x01
Message[1301]: Using default destination of 0 (Access Bank).
00017A 6AE8           00658         CLRF    WREG
00017C 20??           00659         ADDWFC  r0x04, W
Message[1301]: Using default destination of 0 (Access Bank).
00017E 6E??           00660         MOVWF   r0x02
Message[1301]: Using default destination of 0 (Access Bank).
000180 6AE8           00661         CLRF    WREG
000182 20??           00662         ADDWFC  r0x05, W
gpasm-1.4.0 #1107 (May  9 2015) build/sdcc/pr   12-5-2016  17:29:30         PAGE 14


LOC    OBJECT CODE    LINE  SOURCE TEXT
  VALUE

Message[1301]: Using default destination of 0 (Access Bank).
000184 6E??           00663         MOVWF   r0x06
000186 50??           00664         MOVF    r0x00, W
000188 0804           00665         SUBLW   0x04
Message[1301]: Using default destination of 0 (Access Bank).
00018A 6E??           00666         MOVWF   r0x07
Message[1301]: Using default destination of 0 (Access Bank).
00018C 6A??           00667         CLRF    r0x08
00018E 0E??           00668         MOVLW   LOW(_RF24N_pipe_address_result_1_315)
000190 26??           00669         ADDWF   r0x07, F
000192 0E??           00670         MOVLW   HIGH(_RF24N_pipe_address_result_1_315)
000194 22??           00671         ADDWFC  r0x08, F
000196 C??? F???      00672         MOVFF   r0x07, FSR0L
00019A C??? F???      00673         MOVFF   r0x08, FSR0H
00019E CFEF F000      00674         MOVFF   INDF0, r0x07
0001A2 C??? F???      00675         MOVFF   r0x07, POSTDEC1
0001A6 C??? F???      00676         MOVFF   r0x01, FSR0L
0001AA C??? F???      00677         MOVFF   r0x02, PRODL
0001AE 50??           00678         MOVF    r0x06, W
0001B0 EC?? F0??      00679         CALL    __gptrput1
                      00680         .line   1399; ../../RF24Network_c.c     for(i=0;i<5;i++)
0001B4 2A??           00681         INCF    r0x00, F
0001B6 0E05           00682         MOVLW   0x05
0001B8 5C??           00683         SUBWF   r0x00, W
0001BA E3??           00684         BNC     _00939_DS_
0001BC CFE4 F000      00685         MOVFF   PREINC1, r0x10
0001C0 CFE4 F000      00686         MOVFF   PREINC1, r0x0f
0001C4 CFE4 F000      00687         MOVFF   PREINC1, r0x0e
0001C8 CFE4 F000      00688         MOVFF   PREINC1, r0x0d
0001CC CFE4 F000      00689         MOVFF   PREINC1, r0x0c
0001D0 CFE4 F000      00690         MOVFF   PREINC1, r0x0b
0001D4 CFE4 F000      00691         MOVFF   PREINC1, r0x0a
0001D8 CFE4 F000      00692         MOVFF   PREINC1, r0x09
0001DC CFE4 F000      00693         MOVFF   PREINC1, r0x08
0001E0 CFE4 F000      00694         MOVFF   PREINC1, r0x07
0001E4 CFE4 F000      00695         MOVFF   PREINC1, r0x06
0001E8 CFE4 F000      00696         MOVFF   PREINC1, r0x05
0001EC CFE4 F000      00697         MOVFF   PREINC1, r0x04
0001F0 CFE4 F000      00698         MOVFF   PREINC1, r0x03
0001F4 CFE4 F000      00699         MOVFF   PREINC1, r0x02
0001F8 CFE4 F000      00700         MOVFF   PREINC1, r0x01
0001FC CFE4 F000      00701         MOVFF   PREINC1, r0x00
000200 CFE4 FFD9      00702         MOVFF   PREINC1, FSR2L
000204 0012           00703         RETURN  
                      00704 
                      00705 ; ; Starting pCode block
                      00706 S_RF24Network_c__RF24N_levelToAddress   code
000000                00707 _RF24N_levelToAddress:
                      00708         .line   1346; ../../RF24Network_c.c     uint16_t RF24N_levelToAddress(uint8_t level){
000000 CFD9 FFE5      00709         MOVFF   FSR2L, POSTDEC1
000004 CFE1 FFD9      00710         MOVFF   FSR1L, FSR2L
000008 C??? F???      00711         MOVFF   r0x00, POSTDEC1
00000C C??? F???      00712         MOVFF   r0x01, POSTDEC1
gpasm-1.4.0 #1107 (May  9 2015) build/sdcc/pr   12-5-2016  17:29:30         PAGE 15


LOC    OBJECT CODE    LINE  SOURCE TEXT
  VALUE

000010 C??? F???      00713         MOVFF   r0x02, POSTDEC1
000014 C??? F???      00714         MOVFF   r0x03, POSTDEC1
000018 0E02           00715         MOVLW   0x02
00001A CFDB F000      00716         MOVFF   PLUSW2, r0x00
                      00717         .line   1349; ../../RF24Network_c.c     if(level){
00001E 50??           00718         MOVF    r0x00, W
000020 E0??           00719         BZ      _00913_DS_
                      00720         .line   1350; ../../RF24Network_c.c     levelAddr = levelAddr << ((level-1) * 3);
Message[1301]: Using default destination of 0 (Access Bank).
000022 6A??           00721         CLRF    r0x01
000024 0EFF           00722         MOVLW   0xff
000026 26??           00723         ADDWF   r0x00, F
000028 22??           00724         ADDWFC  r0x01, F
00002A 50??           00725         MOVF    r0x01, W
Message[1301]: Using default destination of 0 (Access Bank).
00002C 6EE5           00726         MOVWF   POSTDEC1
00002E 50??           00727         MOVF    r0x00, W
Message[1301]: Using default destination of 0 (Access Bank).
000030 6EE5           00728         MOVWF   POSTDEC1
000032 0E00           00729         MOVLW   0x00
Message[1301]: Using default destination of 0 (Access Bank).
000034 6EE5           00730         MOVWF   POSTDEC1
000036 0E03           00731         MOVLW   0x03
Message[1301]: Using default destination of 0 (Access Bank).
000038 6EE5           00732         MOVWF   POSTDEC1
00003A EC?? F0??      00733         CALL    __mulint
Message[1301]: Using default destination of 0 (Access Bank).
00003E 6E??           00734         MOVWF   r0x00
000040 CFF3 F000      00735         MOVFF   PRODL, r0x01
000044 0E04           00736         MOVLW   0x04
000046 26E1           00737         ADDWF   FSR1L, F
000048 0E01           00738         MOVLW   0x01
Message[1301]: Using default destination of 0 (Access Bank).
00004A 6E??           00739         MOVWF   r0x02
00004C 0E00           00740         MOVLW   0x00
Message[1301]: Using default destination of 0 (Access Bank).
00004E 6E??           00741         MOVWF   r0x03
000050 50??           00742         MOVF    r0x00, W
000052 E0??           00743         BZ      _00914_DS_
000054 E6??           00744         BN      _00923_DS_
Message[1301]: Using default destination of 0 (Access Bank).
000056 6CE8           00745         NEGF    WREG
000058 90D8           00746         BCF     STATUS, 0
00005A                00747 _00921_DS_:
00005A 36??           00748         RLCF    r0x02, F
00005C 36??           00749         RLCF    r0x03, F
00005E 0F01           00750         ADDLW   0x01
000060 E3??           00751         BNC     _00921_DS_
000062 D???           00752         BRA     _00914_DS_
000064                00753 _00923_DS_:
000064 90D8           00754         BCF     STATUS, 0
000066                00755 _00922_DS_:
000066 32??           00756         RRCF    r0x03, F
gpasm-1.4.0 #1107 (May  9 2015) build/sdcc/pr   12-5-2016  17:29:30         PAGE 16


LOC    OBJECT CODE    LINE  SOURCE TEXT
  VALUE

000068 32??           00757         RRCF    r0x02, F
00006A 0F01           00758         ADDLW   0x01
00006C E3??           00759         BNC     _00922_DS_
00006E                00760 _00920_DS_:
00006E D???           00761         BRA     _00914_DS_
000070                00762 _00913_DS_:
                      00763         .line   1352; ../../RF24Network_c.c     return 0;               
Message[1301]: Using default destination of 0 (Access Bank).
000070 6AF3           00764         CLRF    PRODL
Message[1301]: Using default destination of 0 (Access Bank).
000072 6AE8           00765         CLRF    WREG
000074 D???           00766         BRA     _00915_DS_
000076                00767 _00914_DS_:
                      00768         .line   1354; ../../RF24Network_c.c     return levelAddr;
000076 C??? F???      00769         MOVFF   r0x03, PRODL
00007A 50??           00770         MOVF    r0x02, W
00007C                00771 _00915_DS_:
00007C CFE4 F000      00772         MOVFF   PREINC1, r0x03
000080 CFE4 F000      00773         MOVFF   PREINC1, r0x02
000084 CFE4 F000      00774         MOVFF   PREINC1, r0x01
000088 CFE4 F000      00775         MOVFF   PREINC1, r0x00
00008C CFE4 FFD9      00776         MOVFF   PREINC1, FSR2L
000090 0012           00777         RETURN  
                      00778 
                      00779 ; ; Starting pCode block
                      00780 S_RF24Network_c__RF24N_multicastLevel   code
000000                00781 _RF24N_multicastLevel:
                      00782         .line   1337; ../../RF24Network_c.c     void RF24N_multicastLevel(uint8_t level){
000000 CFD9 FFE5      00783         MOVFF   FSR2L, POSTDEC1
000004 CFE1 FFD9      00784         MOVFF   FSR1L, FSR2L
000008 C??? F???      00785         MOVFF   r0x00, POSTDEC1
00000C C??? F???      00786         MOVFF   r0x01, POSTDEC1
000010 C??? F???      00787         MOVFF   r0x02, POSTDEC1
000014 C??? F???      00788         MOVFF   r0x03, POSTDEC1
000018 C??? F???      00789         MOVFF   r0x04, POSTDEC1
00001C 0E02           00790         MOVLW   0x02
00001E CFDB F000      00791         MOVFF   PLUSW2, r0x00
                      00792         .line   1339; ../../RF24Network_c.c     rn.multicast_level = level;
000022 50??           00793         MOVF    r0x00, W
000024 ????           00794         BANKSEL (_rn + 48)
000026 6F??           00795         MOVWF   (_rn + 48), B
                      00796         .line   1341; ../../RF24Network_c.c     RF24N_pipe_address(RF24N_levelToAddress(level),0,addr);
000028 50??           00797         MOVF    r0x00, W
Message[1301]: Using default destination of 0 (Access Bank).
00002A 6EE5           00798         MOVWF   POSTDEC1
00002C EC?? F0??      00799         CALL    _RF24N_levelToAddress
Message[1301]: Using default destination of 0 (Access Bank).
000030 6E??           00800         MOVWF   r0x00
000032 CFF3 F000      00801         MOVFF   PRODL, r0x01
000036 52E6           00802         MOVF    POSTINC1, F
000038 0E??           00803         MOVLW   HIGH(_RF24N_multicastLevel_addr_1_309)
Message[1301]: Using default destination of 0 (Access Bank).
00003A 6E??           00804         MOVWF   r0x03
gpasm-1.4.0 #1107 (May  9 2015) build/sdcc/pr   12-5-2016  17:29:30         PAGE 17


LOC    OBJECT CODE    LINE  SOURCE TEXT
  VALUE

00003C 0E??           00805         MOVLW   LOW(_RF24N_multicastLevel_addr_1_309)
Message[1301]: Using default destination of 0 (Access Bank).
00003E 6E??           00806         MOVWF   r0x02
000040 0E80           00807         MOVLW   0x80
Message[1301]: Using default destination of 0 (Access Bank).
000042 6E??           00808         MOVWF   r0x04
000044 50??           00809         MOVF    r0x04, W
Message[1301]: Using default destination of 0 (Access Bank).
000046 6EE5           00810         MOVWF   POSTDEC1
000048 50??           00811         MOVF    r0x03, W
Message[1301]: Using default destination of 0 (Access Bank).
00004A 6EE5           00812         MOVWF   POSTDEC1
00004C 50??           00813         MOVF    r0x02, W
Message[1301]: Using default destination of 0 (Access Bank).
00004E 6EE5           00814         MOVWF   POSTDEC1
000050 0E00           00815         MOVLW   0x00
Message[1301]: Using default destination of 0 (Access Bank).
000052 6EE5           00816         MOVWF   POSTDEC1
000054 50??           00817         MOVF    r0x01, W
Message[1301]: Using default destination of 0 (Access Bank).
000056 6EE5           00818         MOVWF   POSTDEC1
000058 50??           00819         MOVF    r0x00, W
Message[1301]: Using default destination of 0 (Access Bank).
00005A 6EE5           00820         MOVWF   POSTDEC1
00005C EC?? F0??      00821         CALL    _RF24N_pipe_address
000060 0E06           00822         MOVLW   0x06
000062 26E1           00823         ADDWF   FSR1L, F
                      00824         .line   1342; ../../RF24Network_c.c     RF24_openReadingPipe_d(0,addr);
000064 0E??           00825         MOVLW   HIGH(_RF24N_multicastLevel_addr_1_309)
Message[1301]: Using default destination of 0 (Access Bank).
000066 6E??           00826         MOVWF   r0x01
000068 0E??           00827         MOVLW   LOW(_RF24N_multicastLevel_addr_1_309)
Message[1301]: Using default destination of 0 (Access Bank).
00006A 6E??           00828         MOVWF   r0x00
00006C 0E80           00829         MOVLW   0x80
Message[1301]: Using default destination of 0 (Access Bank).
00006E 6E??           00830         MOVWF   r0x02
000070 50??           00831         MOVF    r0x02, W
Message[1301]: Using default destination of 0 (Access Bank).
000072 6EE5           00832         MOVWF   POSTDEC1
000074 50??           00833         MOVF    r0x01, W
Message[1301]: Using default destination of 0 (Access Bank).
000076 6EE5           00834         MOVWF   POSTDEC1
000078 50??           00835         MOVF    r0x00, W
Message[1301]: Using default destination of 0 (Access Bank).
00007A 6EE5           00836         MOVWF   POSTDEC1
00007C 0E00           00837         MOVLW   0x00
Message[1301]: Using default destination of 0 (Access Bank).
00007E 6EE5           00838         MOVWF   POSTDEC1
000080 EC?? F0??      00839         CALL    _RF24_openReadingPipe_d
000084 0E04           00840         MOVLW   0x04
000086 26E1           00841         ADDWF   FSR1L, F
000088 CFE4 F000      00842         MOVFF   PREINC1, r0x04
gpasm-1.4.0 #1107 (May  9 2015) build/sdcc/pr   12-5-2016  17:29:30         PAGE 18


LOC    OBJECT CODE    LINE  SOURCE TEXT
  VALUE

00008C CFE4 F000      00843         MOVFF   PREINC1, r0x03
000090 CFE4 F000      00844         MOVFF   PREINC1, r0x02
000094 CFE4 F000      00845         MOVFF   PREINC1, r0x01
000098 CFE4 F000      00846         MOVFF   PREINC1, r0x00
00009C CFE4 FFD9      00847         MOVFF   PREINC1, FSR2L
0000A0 0012           00848         RETURN  
                      00849 
                      00850 ; ; Starting pCode block
                      00851 S_RF24Network_c__RF24N_is_valid_address code
000000                00852 _RF24N_is_valid_address:
                      00853         .line   1312; ../../RF24Network_c.c     uint8_t RF24N_is_valid_address( uint16_t node )
000000 CFD9 FFE5      00854         MOVFF   FSR2L, POSTDEC1
000004 CFE1 FFD9      00855         MOVFF   FSR1L, FSR2L
000008 C??? F???      00856         MOVFF   r0x00, POSTDEC1
00000C C??? F???      00857         MOVFF   r0x01, POSTDEC1
000010 C??? F???      00858         MOVFF   r0x02, POSTDEC1
000014 C??? F???      00859         MOVFF   r0x03, POSTDEC1
000018 C??? F???      00860         MOVFF   r0x04, POSTDEC1
00001C 0E02           00861         MOVLW   0x02
00001E CFDB F000      00862         MOVFF   PLUSW2, r0x00
000022 0E03           00863         MOVLW   0x03
000024 CFDB F000      00864         MOVFF   PLUSW2, r0x01
                      00865         .line   1314; ../../RF24Network_c.c     uint8_t result = 1;
000028 0E01           00866         MOVLW   0x01
Message[1301]: Using default destination of 0 (Access Bank).
00002A 6E??           00867         MOVWF   r0x02
00002C                00868 _00887_DS_:
                      00869         .line   1316; ../../RF24Network_c.c     while(node)
00002C 50??           00870         MOVF    r0x00, W
00002E 10??           00871         IORWF   r0x01, W
000030 E0??           00872         BZ      _00889_DS_
                      00873         .line   1318; ../../RF24Network_c.c     uint8_t digit = node & 0x07;
000032 0E07           00874         MOVLW   0x07
000034 14??           00875         ANDWF   r0x00, W
Message[1301]: Using default destination of 0 (Access Bank).
000036 6E??           00876         MOVWF   r0x03
Message[1301]: Using default destination of 0 (Access Bank).
000038 6A??           00877         CLRF    r0x04
                      00878         .line   1322; ../../RF24Network_c.c     if (/*(digit < 0) ||*/ (digit > 5))     //Allow our out 
                            of range multicast address
00003A 0E06           00879         MOVLW   0x06
00003C 5C??           00880         SUBWF   r0x03, W
00003E E3??           00881         BNC     _00886_DS_
                      00882         .line   1325; ../../RF24Network_c.c     result = 0;
Message[1301]: Using default destination of 0 (Access Bank).
000040 6A??           00883         CLRF    r0x02
                      00884         .line   1327; ../../RF24Network_c.c     break;
000042 D???           00885         BRA     _00889_DS_
000044                00886 _00886_DS_:
                      00887         .line   1329; ../../RF24Network_c.c     node >>= 3;
000044 90D8           00888         BCF     STATUS, 0
000046 32??           00889         RRCF    r0x01, F
000048 32??           00890         RRCF    r0x00, F
gpasm-1.4.0 #1107 (May  9 2015) build/sdcc/pr   12-5-2016  17:29:30         PAGE 19


LOC    OBJECT CODE    LINE  SOURCE TEXT
  VALUE

00004A 90D8           00891         BCF     STATUS, 0
00004C 32??           00892         RRCF    r0x01, F
00004E 32??           00893         RRCF    r0x00, F
000050 90D8           00894         BCF     STATUS, 0
000052 32??           00895         RRCF    r0x01, F
000054 32??           00896         RRCF    r0x00, F
000056 D???           00897         BRA     _00887_DS_
000058                00898 _00889_DS_:
                      00899         .line   1332; ../../RF24Network_c.c     return result;
000058 50??           00900         MOVF    r0x02, W
00005A CFE4 F000      00901         MOVFF   PREINC1, r0x04
00005E CFE4 F000      00902         MOVFF   PREINC1, r0x03
000062 CFE4 F000      00903         MOVFF   PREINC1, r0x02
000066 CFE4 F000      00904         MOVFF   PREINC1, r0x01
00006A CFE4 F000      00905         MOVFF   PREINC1, r0x00
00006E CFE4 FFD9      00906         MOVFF   PREINC1, FSR2L
000072 0012           00907         RETURN  
                      00908 
                      00909 ; ; Starting pCode block
                      00910 S_RF24Network_c__RF24N_direct_child_route_to    code
000000                00911 _RF24N_direct_child_route_to:
                      00912         .line   1286; ../../RF24Network_c.c     uint16_t RF24N_direct_child_route_to( uint16_t node )
000000 CFD9 FFE5      00913         MOVFF   FSR2L, POSTDEC1
000004 CFE1 FFD9      00914         MOVFF   FSR1L, FSR2L
000008 C??? F???      00915         MOVFF   r0x00, POSTDEC1
00000C C??? F???      00916         MOVFF   r0x01, POSTDEC1
000010 C??? F???      00917         MOVFF   r0x02, POSTDEC1
000014 C??? F???      00918         MOVFF   r0x03, POSTDEC1
000018 0E02           00919         MOVLW   0x02
00001A CFDB F000      00920         MOVFF   PLUSW2, r0x00
00001E 0E03           00921         MOVLW   0x03
000020 CFDB F000      00922         MOVFF   PLUSW2, r0x01
000024 ????           00923         BANKSEL (_rn + 57)
                      00924         .line   1289; ../../RF24Network_c.c     uint16_t child_mask = ( rn.node_mask << 3 ) | 0x07;
000026 51??           00925         MOVF    (_rn + 57), W, B
Message[1301]: Using default destination of 0 (Access Bank).
000028 6E??           00926         MOVWF   r0x02
00002A 26??           00927         ADDWF   r0x02, F
00002C ????           00928         BANKSEL (_rn + 58)
00002E 35??           00929         RLCF    (_rn + 58), W, B
Message[1301]: Using default destination of 0 (Access Bank).
000030 6E??           00930         MOVWF   r0x03
000032 90D8           00931         BCF     STATUS, 0
000034 36??           00932         RLCF    r0x02, F
000036 36??           00933         RLCF    r0x03, F
000038 90D8           00934         BCF     STATUS, 0
00003A 36??           00935         RLCF    r0x02, F
00003C 36??           00936         RLCF    r0x03, F
00003E 0E07           00937         MOVLW   0x07
000040 12??           00938         IORWF   r0x02, F
                      00939         .line   1290; ../../RF24Network_c.c     return node & child_mask;
000042 50??           00940         MOVF    r0x02, W
000044 16??           00941         ANDWF   r0x00, F
gpasm-1.4.0 #1107 (May  9 2015) build/sdcc/pr   12-5-2016  17:29:30         PAGE 20


LOC    OBJECT CODE    LINE  SOURCE TEXT
  VALUE

000046 50??           00942         MOVF    r0x03, W
000048 16??           00943         ANDWF   r0x01, F
00004A C??? F???      00944         MOVFF   r0x01, PRODL
00004E 50??           00945         MOVF    r0x00, W
000050 CFE4 F000      00946         MOVFF   PREINC1, r0x03
000054 CFE4 F000      00947         MOVFF   PREINC1, r0x02
000058 CFE4 F000      00948         MOVFF   PREINC1, r0x01
00005C CFE4 F000      00949         MOVFF   PREINC1, r0x00
000060 CFE4 FFD9      00950         MOVFF   PREINC1, FSR2L
000064 0012           00951         RETURN  
                      00952 
                      00953 ; ; Starting pCode block
                      00954 S_RF24Network_c__RF24N_addressOfPipe    code
000000                00955 _RF24N_addressOfPipe:
                      00956         .line   1269; ../../RF24Network_c.c     uint16_t RF24N_addressOfPipe( uint16_t node, uint8_t pip
                            eNo )
000000 CFD9 FFE5      00957         MOVFF   FSR2L, POSTDEC1
000004 CFE1 FFD9      00958         MOVFF   FSR1L, FSR2L
000008 C??? F???      00959         MOVFF   r0x00, POSTDEC1
00000C C??? F???      00960         MOVFF   r0x01, POSTDEC1
000010 C??? F???      00961         MOVFF   r0x02, POSTDEC1
000014 C??? F???      00962         MOVFF   r0x03, POSTDEC1
000018 C??? F???      00963         MOVFF   r0x04, POSTDEC1
00001C C??? F???      00964         MOVFF   r0x05, POSTDEC1
000020 C??? F???      00965         MOVFF   r0x06, POSTDEC1
000024 C??? F???      00966         MOVFF   r0x07, POSTDEC1
000028 0E02           00967         MOVLW   0x02
00002A CFDB F000      00968         MOVFF   PLUSW2, r0x00
00002E 0E03           00969         MOVLW   0x03
000030 CFDB F000      00970         MOVFF   PLUSW2, r0x01
000034 0E04           00971         MOVLW   0x04
000036 CFDB F000      00972         MOVFF   PLUSW2, r0x02
                      00973         .line   1274; ../../RF24Network_c.c     uint16_t m = rn.node_mask >> 3;
00003A 90D8           00974         BCF     STATUS, 0
00003C ????           00975         BANKSEL (_rn + 58)
00003E 31??           00976         RRCF    (_rn + 58), W, B
Message[1301]: Using default destination of 0 (Access Bank).
000040 6E??           00977         MOVWF   r0x04
000042 ????           00978         BANKSEL (_rn + 57)
000044 31??           00979         RRCF    (_rn + 57), W, B
Message[1301]: Using default destination of 0 (Access Bank).
000046 6E??           00980         MOVWF   r0x03
000048 90D8           00981         BCF     STATUS, 0
00004A 32??           00982         RRCF    r0x04, F
00004C 32??           00983         RRCF    r0x03, F
00004E 90D8           00984         BCF     STATUS, 0
000050 32??           00985         RRCF    r0x04, F
000052 32??           00986         RRCF    r0x03, F
                      00987         .line   1277; ../../RF24Network_c.c     while (m){         //While there are bits left in the no
                            de mask
Message[1301]: Using default destination of 0 (Access Bank).
000054 6A??           00988         CLRF    r0x05
000056                00989 _00862_DS_:
gpasm-1.4.0 #1107 (May  9 2015) build/sdcc/pr   12-5-2016  17:29:30         PAGE 21


LOC    OBJECT CODE    LINE  SOURCE TEXT
  VALUE

000056 50??           00990         MOVF    r0x03, W
000058 10??           00991         IORWF   r0x04, W
00005A E0??           00992         BZ      _00864_DS_
                      00993         .line   1278; ../../RF24Network_c.c     m>>=1;     //Shift to the right
00005C 90D8           00994         BCF     STATUS, 0
00005E 32??           00995         RRCF    r0x04, F
000060 32??           00996         RRCF    r0x03, F
                      00997         .line   1279; ../../RF24Network_c.c     i++;       //Count the # of increments
000062 2A??           00998         INCF    r0x05, F
000064 D???           00999         BRA     _00862_DS_
000066                01000 _00864_DS_:
                      01001         .line   1281; ../../RF24Network_c.c     return node | (pipeNo << i);    
Message[1301]: Using default destination of 0 (Access Bank).
000066 6A??           01002         CLRF    r0x03
000068 C??? F???      01003         MOVFF   r0x02, r0x04
00006C C??? F???      01004         MOVFF   r0x03, r0x06
000070 50??           01005         MOVF    r0x05, W
000072 E0??           01006         BZ      _00874_DS_
Message[1301]: Using default destination of 0 (Access Bank).
000074 6CE8           01007         NEGF    WREG
000076 90D8           01008         BCF     STATUS, 0
000078                01009 _00875_DS_:
000078 36??           01010         RLCF    r0x04, F
00007A 36??           01011         RLCF    r0x06, F
00007C 0F01           01012         ADDLW   0x01
00007E E3??           01013         BNC     _00875_DS_
000080                01014 _00874_DS_:
000080 50??           01015         MOVF    r0x04, W
Message[1301]: Using default destination of 0 (Access Bank).
000082 6E??           01016         MOVWF   r0x05
000084 50??           01017         MOVF    r0x06, W
Message[1301]: Using default destination of 0 (Access Bank).
000086 6E??           01018         MOVWF   r0x07
000088 50??           01019         MOVF    r0x05, W
00008A 12??           01020         IORWF   r0x00, F
00008C 50??           01021         MOVF    r0x07, W
00008E 12??           01022         IORWF   r0x01, F
000090 C??? F???      01023         MOVFF   r0x01, PRODL
000094 50??           01024         MOVF    r0x00, W
000096 CFE4 F000      01025         MOVFF   PREINC1, r0x07
00009A CFE4 F000      01026         MOVFF   PREINC1, r0x06
00009E CFE4 F000      01027         MOVFF   PREINC1, r0x05
0000A2 CFE4 F000      01028         MOVFF   PREINC1, r0x04
0000A6 CFE4 F000      01029         MOVFF   PREINC1, r0x03
0000AA CFE4 F000      01030         MOVFF   PREINC1, r0x02
0000AE CFE4 F000      01031         MOVFF   PREINC1, r0x01
0000B2 CFE4 F000      01032         MOVFF   PREINC1, r0x00
0000B6 CFE4 FFD9      01033         MOVFF   PREINC1, FSR2L
0000BA 0012           01034         RETURN  
                      01035 
                      01036 ; ; Starting pCode block
                      01037 S_RF24Network_c__RF24N_setup_address    code
000000                01038 _RF24N_setup_address:
gpasm-1.4.0 #1107 (May  9 2015) build/sdcc/pr   12-5-2016  17:29:30         PAGE 22


LOC    OBJECT CODE    LINE  SOURCE TEXT
  VALUE

                      01039         .line   1225; ../../RF24Network_c.c     void RF24N_setup_address(void)
000000 CFD9 FFE5      01040         MOVFF   FSR2L, POSTDEC1
000004 CFE1 FFD9      01041         MOVFF   FSR1L, FSR2L
000008 C??? F???      01042         MOVFF   r0x00, POSTDEC1
00000C C??? F???      01043         MOVFF   r0x01, POSTDEC1
000010 C??? F???      01044         MOVFF   r0x02, POSTDEC1
000014 C??? F???      01045         MOVFF   r0x03, POSTDEC1
000018 C??? F???      01046         MOVFF   r0x04, POSTDEC1
                      01047         .line   1228; ../../RF24Network_c.c     uint16_t node_mask_check = 0xFFFF;  
00001C 0EFF           01048         MOVLW   0xff
Message[1301]: Using default destination of 0 (Access Bank).
00001E 6E??           01049         MOVWF   r0x00
Message[1301]: Using default destination of 0 (Access Bank).
000020 6E??           01050         MOVWF   r0x01
                      01051         .line   1236; ../../RF24Network_c.c     while ( rn.node_address & node_mask_check ){
Message[1301]: Using default destination of 0 (Access Bank).
000022 6A??           01052         CLRF    r0x02
000024                01053 _00851_DS_:
000024 50??           01054         MOVF    r0x00, W
000026 ????           01055         BANKSEL (_rn + 49)
000028 15??           01056         ANDWF   (_rn + 49), W, B
Message[1301]: Using default destination of 0 (Access Bank).
00002A 6E??           01057         MOVWF   r0x03
00002C 50??           01058         MOVF    r0x01, W
00002E ????           01059         BANKSEL (_rn + 50)
000030 15??           01060         ANDWF   (_rn + 50), W, B
Message[1301]: Using default destination of 0 (Access Bank).
000032 6E??           01061         MOVWF   r0x04
000034 50??           01062         MOVF    r0x03, W
000036 10??           01063         IORWF   r0x04, W
000038 E0??           01064         BZ      _00853_DS_
                      01065         .line   1237; ../../RF24Network_c.c     node_mask_check <<= 3;
00003A 50??           01066         MOVF    r0x00, W
00003C 26??           01067         ADDWF   r0x00, F
00003E 36??           01068         RLCF    r0x01, F
000040 90D8           01069         BCF     STATUS, 0
000042 36??           01070         RLCF    r0x00, F
000044 36??           01071         RLCF    r0x01, F
000046 90D8           01072         BCF     STATUS, 0
000048 36??           01073         RLCF    r0x00, F
00004A 36??           01074         RLCF    r0x01, F
                      01075         .line   1239; ../../RF24Network_c.c     count++;
00004C 2A??           01076         INCF    r0x02, F
00004E D???           01077         BRA     _00851_DS_
000050                01078 _00853_DS_:
                      01079         .line   1241; ../../RF24Network_c.c     rn.multicast_level = count;
000050 50??           01080         MOVF    r0x02, W
000052 ????           01081         BANKSEL (_rn + 48)
000054 6F??           01082         MOVWF   (_rn + 48), B
                      01083         .line   1246; ../../RF24Network_c.c     rn.node_mask = ~ node_mask_check;
000056 1E??           01084         COMF    r0x00, F
000058 1E??           01085         COMF    r0x01, F
00005A 50??           01086         MOVF    r0x00, W
gpasm-1.4.0 #1107 (May  9 2015) build/sdcc/pr   12-5-2016  17:29:30         PAGE 23


LOC    OBJECT CODE    LINE  SOURCE TEXT
  VALUE

00005C ????           01087         BANKSEL (_rn + 57)
00005E 6F??           01088         MOVWF   (_rn + 57), B
000060 50??           01089         MOVF    r0x01, W
000062 ????           01090         BANKSEL (_rn + 58)
000064 6F??           01091         MOVWF   (_rn + 58), B
                      01092         .line   1249; ../../RF24Network_c.c     parent_mask = rn.node_mask >> 3;
000066 90D8           01093         BCF     STATUS, 0
000068 32??           01094         RRCF    r0x01, F
00006A 32??           01095         RRCF    r0x00, F
00006C 90D8           01096         BCF     STATUS, 0
00006E 32??           01097         RRCF    r0x01, F
000070 32??           01098         RRCF    r0x00, F
000072 90D8           01099         BCF     STATUS, 0
000074 32??           01100         RRCF    r0x01, F
000076 32??           01101         RRCF    r0x00, F
                      01102         .line   1252; ../../RF24Network_c.c     rn.parent_node = rn.node_address & parent_mask;
000078 50??           01103         MOVF    r0x00, W
00007A ????           01104         BANKSEL (_rn + 49)
00007C 15??           01105         ANDWF   (_rn + 49), W, B
Message[1301]: Using default destination of 0 (Access Bank).
00007E 6E??           01106         MOVWF   r0x02
000080 50??           01107         MOVF    r0x01, W
000082 ????           01108         BANKSEL (_rn + 50)
000084 15??           01109         ANDWF   (_rn + 50), W, B
Message[1301]: Using default destination of 0 (Access Bank).
000086 6E??           01110         MOVWF   r0x03
000088 50??           01111         MOVF    r0x02, W
00008A ????           01112         BANKSEL (_rn + 54)
00008C 6F??           01113         MOVWF   (_rn + 54), B
00008E 50??           01114         MOVF    r0x03, W
000090 ????           01115         BANKSEL (_rn + 55)
000092 6F??           01116         MOVWF   (_rn + 55), B
                      01117         .line   1255; ../../RF24Network_c.c     i = rn.node_address;
000094 C??? F???      01118         MOVFF   (_rn + 49), r0x02
000098 C??? F???      01119         MOVFF   (_rn + 50), r0x03
00009C                01120 _00854_DS_:
                      01121         .line   1257; ../../RF24Network_c.c     while (m)
00009C 50??           01122         MOVF    r0x00, W
00009E 10??           01123         IORWF   r0x01, W
0000A0 E0??           01124         BZ      _00856_DS_
                      01125         .line   1259; ../../RF24Network_c.c     i >>= 3;
0000A2 90D8           01126         BCF     STATUS, 0
0000A4 32??           01127         RRCF    r0x03, F
0000A6 32??           01128         RRCF    r0x02, F
0000A8 90D8           01129         BCF     STATUS, 0
0000AA 32??           01130         RRCF    r0x03, F
0000AC 32??           01131         RRCF    r0x02, F
0000AE 90D8           01132         BCF     STATUS, 0
0000B0 32??           01133         RRCF    r0x03, F
0000B2 32??           01134         RRCF    r0x02, F
                      01135         .line   1260; ../../RF24Network_c.c     m >>= 3;
0000B4 90D8           01136         BCF     STATUS, 0
0000B6 32??           01137         RRCF    r0x01, F
gpasm-1.4.0 #1107 (May  9 2015) build/sdcc/pr   12-5-2016  17:29:30         PAGE 24


LOC    OBJECT CODE    LINE  SOURCE TEXT
  VALUE

0000B8 32??           01138         RRCF    r0x00, F
0000BA 90D8           01139         BCF     STATUS, 0
0000BC 32??           01140         RRCF    r0x01, F
0000BE 32??           01141         RRCF    r0x00, F
0000C0 90D8           01142         BCF     STATUS, 0
0000C2 32??           01143         RRCF    r0x01, F
0000C4 32??           01144         RRCF    r0x00, F
0000C6 D???           01145         BRA     _00854_DS_
0000C8                01146 _00856_DS_:
                      01147         .line   1262; ../../RF24Network_c.c     rn.parent_pipe = i;
0000C8 50??           01148         MOVF    r0x02, W
0000CA ????           01149         BANKSEL (_rn + 56)
0000CC 6F??           01150         MOVWF   (_rn + 56), B
0000CE CFE4 F000      01151         MOVFF   PREINC1, r0x04
0000D2 CFE4 F000      01152         MOVFF   PREINC1, r0x03
0000D6 CFE4 F000      01153         MOVFF   PREINC1, r0x02
0000DA CFE4 F000      01154         MOVFF   PREINC1, r0x01
0000DE CFE4 F000      01155         MOVFF   PREINC1, r0x00
0000E2 CFE4 FFD9      01156         MOVFF   PREINC1, FSR2L
0000E6 0012           01157         RETURN  
                      01158 
                      01159 ; ; Starting pCode block
                      01160 S_RF24Network_c__RF24N_is_descendant    code
000000                01161 _RF24N_is_descendant:
                      01162         .line   1218; ../../RF24Network_c.c     uint8_t RF24N_is_descendant( uint16_t node )
000000 CFD9 FFE5      01163         MOVFF   FSR2L, POSTDEC1
000004 CFE1 FFD9      01164         MOVFF   FSR1L, FSR2L
000008 C??? F???      01165         MOVFF   r0x00, POSTDEC1
00000C C??? F???      01166         MOVFF   r0x01, POSTDEC1
000010 0E02           01167         MOVLW   0x02
000012 CFDB F000      01168         MOVFF   PLUSW2, r0x00
000016 0E03           01169         MOVLW   0x03
000018 CFDB F000      01170         MOVFF   PLUSW2, r0x01
00001C ????           01171         BANKSEL (_rn + 57)
                      01172         .line   1220; ../../RF24Network_c.c     return ( node & rn.node_mask ) == rn.node_address;
00001E 51??           01173         MOVF    (_rn + 57), W, B
000020 16??           01174         ANDWF   r0x00, F
000022 ????           01175         BANKSEL (_rn + 58)
000024 51??           01176         MOVF    (_rn + 58), W, B
000026 16??           01177         ANDWF   r0x01, F
000028 50??           01178         MOVF    r0x00, W
00002A ????           01179         BANKSEL (_rn + 49)
00002C 19??           01180         XORWF   (_rn + 49), W, B
00002E E1??           01181         BNZ     _00845_DS_
000030 50??           01182         MOVF    r0x01, W
000032 ????           01183         BANKSEL (_rn + 50)
000034 19??           01184         XORWF   (_rn + 50), W, B
000036 E1??           01185         BNZ     _00845_DS_
Message[1301]: Using default destination of 0 (Access Bank).
000038 6A??           01186         CLRF    r0x00
00003A 2A??           01187         INCF    r0x00, F
00003C D???           01188         BRA     _00846_DS_
00003E                01189 _00845_DS_:
gpasm-1.4.0 #1107 (May  9 2015) build/sdcc/pr   12-5-2016  17:29:30         PAGE 25


LOC    OBJECT CODE    LINE  SOURCE TEXT
  VALUE

Message[1301]: Using default destination of 0 (Access Bank).
00003E 6A??           01190         CLRF    r0x00
000040                01191 _00846_DS_:
000040 50??           01192         MOVF    r0x00, W
000042 CFE4 F000      01193         MOVFF   PREINC1, r0x01
000046 CFE4 F000      01194         MOVFF   PREINC1, r0x00
00004A CFE4 FFD9      01195         MOVFF   PREINC1, FSR2L
00004E 0012           01196         RETURN  
                      01197 
                      01198 ; ; Starting pCode block
                      01199 S_RF24Network_c__RF24N_is_direct_child  code
000000                01200 _RF24N_is_direct_child:
                      01201         .line   1196; ../../RF24Network_c.c     uint8_t RF24N_is_direct_child( uint16_t node )
000000 CFD9 FFE5      01202         MOVFF   FSR2L, POSTDEC1
000004 CFE1 FFD9      01203         MOVFF   FSR1L, FSR2L
000008 C??? F???      01204         MOVFF   r0x00, POSTDEC1
00000C C??? F???      01205         MOVFF   r0x01, POSTDEC1
000010 C??? F???      01206         MOVFF   r0x02, POSTDEC1
000014 C??? F???      01207         MOVFF   r0x03, POSTDEC1
000018 C??? F???      01208         MOVFF   r0x04, POSTDEC1
00001C C??? F???      01209         MOVFF   r0x05, POSTDEC1
000020 C??? F???      01210         MOVFF   r0x06, POSTDEC1
000024 0E02           01211         MOVLW   0x02
000026 CFDB F000      01212         MOVFF   PLUSW2, r0x00
00002A 0E03           01213         MOVLW   0x03
00002C CFDB F000      01214         MOVFF   PLUSW2, r0x01
                      01215         .line   1198; ../../RF24Network_c.c     uint8_t result = 0;
Message[1301]: Using default destination of 0 (Access Bank).
000030 6A??           01216         CLRF    r0x02
                      01217         .line   1207; ../../RF24Network_c.c     if ( RF24N_is_descendant(node) )
000032 50??           01218         MOVF    r0x01, W
Message[1301]: Using default destination of 0 (Access Bank).
000034 6EE5           01219         MOVWF   POSTDEC1
000036 50??           01220         MOVF    r0x00, W
Message[1301]: Using default destination of 0 (Access Bank).
000038 6EE5           01221         MOVWF   POSTDEC1
00003A EC?? F0??      01222         CALL    _RF24N_is_descendant
Message[1301]: Using default destination of 0 (Access Bank).
00003E 6E??           01223         MOVWF   r0x03
000040 52E6           01224         MOVF    POSTINC1, F
000042 52E6           01225         MOVF    POSTINC1, F
000044 50??           01226         MOVF    r0x03, W
000046 E0??           01227         BZ      _00829_DS_
000048 ????           01228         BANKSEL (_rn + 57)
                      01229         .line   1210; ../../RF24Network_c.c     uint16_t child_node_mask = ( ~ rn.node_mask ) << 3;
00004A 1D??           01230         COMF    (_rn + 57), W, B
Message[1301]: Using default destination of 0 (Access Bank).
00004C 6E??           01231         MOVWF   r0x03
00004E ????           01232         BANKSEL (_rn + 58)
000050 1D??           01233         COMF    (_rn + 58), W, B
Message[1301]: Using default destination of 0 (Access Bank).
000052 6E??           01234         MOVWF   r0x04
000054 50??           01235         MOVF    r0x03, W
gpasm-1.4.0 #1107 (May  9 2015) build/sdcc/pr   12-5-2016  17:29:30         PAGE 26


LOC    OBJECT CODE    LINE  SOURCE TEXT
  VALUE

Message[1301]: Using default destination of 0 (Access Bank).
000056 6E??           01236         MOVWF   r0x05
000058 26??           01237         ADDWF   r0x05, F
00005A 34??           01238         RLCF    r0x04, W
Message[1301]: Using default destination of 0 (Access Bank).
00005C 6E??           01239         MOVWF   r0x06
00005E 90D8           01240         BCF     STATUS, 0
000060 36??           01241         RLCF    r0x05, F
000062 36??           01242         RLCF    r0x06, F
000064 90D8           01243         BCF     STATUS, 0
000066 36??           01244         RLCF    r0x05, F
000068 36??           01245         RLCF    r0x06, F
                      01246         .line   1211; ../../RF24Network_c.c     result = ( node & child_node_mask ) == 0 ;
00006A 50??           01247         MOVF    r0x05, W
00006C 16??           01248         ANDWF   r0x00, F
00006E 50??           01249         MOVF    r0x06, W
000070 16??           01250         ANDWF   r0x01, F
Message[1301]: Using default destination of 0 (Access Bank).
000072 6A??           01251         CLRF    r0x02
000074 50??           01252         MOVF    r0x00, W
000076 E1??           01253         BNZ     _00829_DS_
000078 50??           01254         MOVF    r0x01, W
00007A E1??           01255         BNZ     _00829_DS_
00007C 2A??           01256         INCF    r0x02, F
00007E                01257 _00829_DS_:
                      01258         .line   1213; ../../RF24Network_c.c     return result;
00007E 50??           01259         MOVF    r0x02, W
000080 CFE4 F000      01260         MOVFF   PREINC1, r0x06
000084 CFE4 F000      01261         MOVFF   PREINC1, r0x05
000088 CFE4 F000      01262         MOVFF   PREINC1, r0x04
00008C CFE4 F000      01263         MOVFF   PREINC1, r0x03
000090 CFE4 F000      01264         MOVFF   PREINC1, r0x02
000094 CFE4 F000      01265         MOVFF   PREINC1, r0x01
000098 CFE4 F000      01266         MOVFF   PREINC1, r0x00
00009C CFE4 FFD9      01267         MOVFF   PREINC1, FSR2L
0000A0 0012           01268         RETURN  
                      01269 
                      01270 ; ; Starting pCode block
                      01271 S_RF24Network_c__RF24N_write_to_pipe    code
000000                01272 _RF24N_write_to_pipe:
                      01273         .line   1143; ../../RF24Network_c.c     uint8_t RF24N_write_to_pipe( uint16_t node, uint8_t pipe
                            , uint8_t multicast )
000000 CFD9 FFE5      01274         MOVFF   FSR2L, POSTDEC1
000004 CFE1 FFD9      01275         MOVFF   FSR1L, FSR2L
000008 C??? F???      01276         MOVFF   r0x00, POSTDEC1
00000C C??? F???      01277         MOVFF   r0x01, POSTDEC1
000010 C??? F???      01278         MOVFF   r0x02, POSTDEC1
000014 C??? F???      01279         MOVFF   r0x03, POSTDEC1
000018 C??? F???      01280         MOVFF   r0x04, POSTDEC1
00001C C??? F???      01281         MOVFF   r0x05, POSTDEC1
000020 C??? F???      01282         MOVFF   r0x06, POSTDEC1
000024 0E02           01283         MOVLW   0x02
000026 CFDB F000      01284         MOVFF   PLUSW2, r0x00
gpasm-1.4.0 #1107 (May  9 2015) build/sdcc/pr   12-5-2016  17:29:30         PAGE 27


LOC    OBJECT CODE    LINE  SOURCE TEXT
  VALUE

00002A 0E03           01285         MOVLW   0x03
00002C CFDB F000      01286         MOVFF   PLUSW2, r0x01
000030 0E04           01287         MOVLW   0x04
000032 CFDB F000      01288         MOVFF   PLUSW2, r0x02
000036 0E05           01289         MOVLW   0x05
000038 CFDB F000      01290         MOVFF   PLUSW2, r0x03
                      01291         .line   1147; ../../RF24Network_c.c     RF24N_pipe_address( node, pipe, out_pipe);
00003C 0E??           01292         MOVLW   HIGH(_RF24N_write_to_pipe_out_pipe_1_285)
Message[1301]: Using default destination of 0 (Access Bank).
00003E 6E??           01293         MOVWF   r0x05
000040 0E??           01294         MOVLW   LOW(_RF24N_write_to_pipe_out_pipe_1_285)
Message[1301]: Using default destination of 0 (Access Bank).
000042 6E??           01295         MOVWF   r0x04
000044 0E80           01296         MOVLW   0x80
Message[1301]: Using default destination of 0 (Access Bank).
000046 6E??           01297         MOVWF   r0x06
000048 50??           01298         MOVF    r0x06, W
Message[1301]: Using default destination of 0 (Access Bank).
00004A 6EE5           01299         MOVWF   POSTDEC1
00004C 50??           01300         MOVF    r0x05, W
Message[1301]: Using default destination of 0 (Access Bank).
00004E 6EE5           01301         MOVWF   POSTDEC1
000050 50??           01302         MOVF    r0x04, W
Message[1301]: Using default destination of 0 (Access Bank).
000052 6EE5           01303         MOVWF   POSTDEC1
000054 50??           01304         MOVF    r0x02, W
Message[1301]: Using default destination of 0 (Access Bank).
000056 6EE5           01305         MOVWF   POSTDEC1
000058 50??           01306         MOVF    r0x01, W
Message[1301]: Using default destination of 0 (Access Bank).
00005A 6EE5           01307         MOVWF   POSTDEC1
00005C 50??           01308         MOVF    r0x00, W
Message[1301]: Using default destination of 0 (Access Bank).
00005E 6EE5           01309         MOVWF   POSTDEC1
000060 EC?? F0??      01310         CALL    _RF24N_pipe_address
000064 0E06           01311         MOVLW   0x06
000066 26E1           01312         ADDWF   FSR1L, F
000068 ????           01313         BANKSEL (_rn + 43)
                      01314         .line   1153; ../../RF24Network_c.c     if(!(rn.networkFlags & FLAG_FAST_FRAG)){
00006A B4??           01315         BTFSC   (_rn + 43), 2
00006C D???           01316         BRA     _00805_DS_
                      01317         .line   1154; ../../RF24Network_c.c     RF24_stopListening();
00006E EC?? F0??      01318         CALL    _RF24_stopListening
000072                01319 _00805_DS_:
                      01320         .line   1157; ../../RF24Network_c.c     if(multicast){ RF24_setAutoAck_p(0,0);}else{RF24_setAuto
                            Ack_p(0,1);}
000072 50??           01321         MOVF    r0x03, W
000074 E0??           01322         BZ      _00807_DS_
000076 0E00           01323         MOVLW   0x00
Message[1301]: Using default destination of 0 (Access Bank).
000078 6EE5           01324         MOVWF   POSTDEC1
00007A 0E00           01325         MOVLW   0x00
Message[1301]: Using default destination of 0 (Access Bank).
gpasm-1.4.0 #1107 (May  9 2015) build/sdcc/pr   12-5-2016  17:29:30         PAGE 28


LOC    OBJECT CODE    LINE  SOURCE TEXT
  VALUE

00007C 6EE5           01326         MOVWF   POSTDEC1
00007E EC?? F0??      01327         CALL    _RF24_setAutoAck_p
000082 52E6           01328         MOVF    POSTINC1, F
000084 52E6           01329         MOVF    POSTINC1, F
000086 D???           01330         BRA     _00808_DS_
000088                01331 _00807_DS_:
000088 0E01           01332         MOVLW   0x01
Message[1301]: Using default destination of 0 (Access Bank).
00008A 6EE5           01333         MOVWF   POSTDEC1
00008C 0E00           01334         MOVLW   0x00
Message[1301]: Using default destination of 0 (Access Bank).
00008E 6EE5           01335         MOVWF   POSTDEC1
000090 EC?? F0??      01336         CALL    _RF24_setAutoAck_p
000094 52E6           01337         MOVF    POSTINC1, F
000096 52E6           01338         MOVF    POSTINC1, F
000098                01339 _00808_DS_:
                      01340         .line   1159; ../../RF24Network_c.c     RF24_openWritingPipe_d(out_pipe);
000098 0E??           01341         MOVLW   HIGH(_RF24N_write_to_pipe_out_pipe_1_285)
Message[1301]: Using default destination of 0 (Access Bank).
00009A 6E??           01342         MOVWF   r0x01
00009C 0E??           01343         MOVLW   LOW(_RF24N_write_to_pipe_out_pipe_1_285)
Message[1301]: Using default destination of 0 (Access Bank).
00009E 6E??           01344         MOVWF   r0x00
0000A0 0E80           01345         MOVLW   0x80
Message[1301]: Using default destination of 0 (Access Bank).
0000A2 6E??           01346         MOVWF   r0x02
0000A4 50??           01347         MOVF    r0x02, W
Message[1301]: Using default destination of 0 (Access Bank).
0000A6 6EE5           01348         MOVWF   POSTDEC1
0000A8 50??           01349         MOVF    r0x01, W
Message[1301]: Using default destination of 0 (Access Bank).
0000AA 6EE5           01350         MOVWF   POSTDEC1
0000AC 50??           01351         MOVF    r0x00, W
Message[1301]: Using default destination of 0 (Access Bank).
0000AE 6EE5           01352         MOVWF   POSTDEC1
0000B0 EC?? F0??      01353         CALL    _RF24_openWritingPipe_d
0000B4 0E03           01354         MOVLW   0x03
0000B6 26E1           01355         ADDWF   FSR1L, F
                      01356         .line   1161; ../../RF24Network_c.c     ok = RF24_writeFast_m(rn.frame_buffer, rn.frame_size,0);
0000B8 0E??           01357         MOVLW   HIGH(_rn + 7)
Message[1301]: Using default destination of 0 (Access Bank).
0000BA 6E??           01358         MOVWF   r0x01
0000BC 0E??           01359         MOVLW   LOW(_rn + 7)
Message[1301]: Using default destination of 0 (Access Bank).
0000BE 6E??           01360         MOVWF   r0x00
0000C0 0E80           01361         MOVLW   0x80
Message[1301]: Using default destination of 0 (Access Bank).
0000C2 6E??           01362         MOVWF   r0x02
0000C4 0E00           01363         MOVLW   0x00
Message[1301]: Using default destination of 0 (Access Bank).
0000C6 6EE5           01364         MOVWF   POSTDEC1
0000C8 ????           01365         BANKSEL (_rn + 51)
0000CA 51??           01366         MOVF    (_rn + 51), W, B
gpasm-1.4.0 #1107 (May  9 2015) build/sdcc/pr   12-5-2016  17:29:30         PAGE 29


LOC    OBJECT CODE    LINE  SOURCE TEXT
  VALUE

Message[1301]: Using default destination of 0 (Access Bank).
0000CC 6EE5           01367         MOVWF   POSTDEC1
0000CE 50??           01368         MOVF    r0x02, W
Message[1301]: Using default destination of 0 (Access Bank).
0000D0 6EE5           01369         MOVWF   POSTDEC1
0000D2 50??           01370         MOVF    r0x01, W
Message[1301]: Using default destination of 0 (Access Bank).
0000D4 6EE5           01371         MOVWF   POSTDEC1
0000D6 50??           01372         MOVF    r0x00, W
Message[1301]: Using default destination of 0 (Access Bank).
0000D8 6EE5           01373         MOVWF   POSTDEC1
0000DA EC?? F0??      01374         CALL    _RF24_writeFast_m
Message[1301]: Using default destination of 0 (Access Bank).
0000DE 6E??           01375         MOVWF   r0x00
0000E0 0E05           01376         MOVLW   0x05
0000E2 26E1           01377         ADDWF   FSR1L, F
0000E4 ????           01378         BANKSEL (_rn + 43)
                      01379         .line   1163; ../../RF24Network_c.c     if(!(rn.networkFlags & FLAG_FAST_FRAG)){
0000E6 B4??           01380         BTFSC   (_rn + 43), 2
0000E8 D???           01381         BRA     _00810_DS_
                      01382         .line   1164; ../../RF24Network_c.c     ok = RF24_txStandBy_t(rn.txTimeout,0);
0000EA 0E00           01383         MOVLW   0x00
Message[1301]: Using default destination of 0 (Access Bank).
0000EC 6EE5           01384         MOVWF   POSTDEC1
0000EE ????           01385         BANKSEL (_rn + 4)
0000F0 51??           01386         MOVF    (_rn + 4), W, B
Message[1301]: Using default destination of 0 (Access Bank).
0000F2 6EE5           01387         MOVWF   POSTDEC1
0000F4 ????           01388         BANKSEL (_rn + 3)
0000F6 51??           01389         MOVF    (_rn + 3), W, B
Message[1301]: Using default destination of 0 (Access Bank).
0000F8 6EE5           01390         MOVWF   POSTDEC1
0000FA ????           01391         BANKSEL (_rn + 2)
0000FC 51??           01392         MOVF    (_rn + 2), W, B
Message[1301]: Using default destination of 0 (Access Bank).
0000FE 6EE5           01393         MOVWF   POSTDEC1
000100 ????           01394         BANKSEL (_rn + 1)
000102 51??           01395         MOVF    (_rn + 1), W, B
Message[1301]: Using default destination of 0 (Access Bank).
000104 6EE5           01396         MOVWF   POSTDEC1
000106 EC?? F0??      01397         CALL    _RF24_txStandBy_t
Message[1301]: Using default destination of 0 (Access Bank).
00010A 6E??           01398         MOVWF   r0x00
00010C 0E05           01399         MOVLW   0x05
00010E 26E1           01400         ADDWF   FSR1L, F
                      01401         .line   1165; ../../RF24Network_c.c     RF24_setAutoAck_p(0,0);
000110 0E00           01402         MOVLW   0x00
Message[1301]: Using default destination of 0 (Access Bank).
000112 6EE5           01403         MOVWF   POSTDEC1
000114 0E00           01404         MOVLW   0x00
Message[1301]: Using default destination of 0 (Access Bank).
000116 6EE5           01405         MOVWF   POSTDEC1
000118 EC?? F0??      01406         CALL    _RF24_setAutoAck_p
gpasm-1.4.0 #1107 (May  9 2015) build/sdcc/pr   12-5-2016  17:29:30         PAGE 30


LOC    OBJECT CODE    LINE  SOURCE TEXT
  VALUE

00011C 52E6           01407         MOVF    POSTINC1, F
00011E 52E6           01408         MOVF    POSTINC1, F
000120                01409 _00810_DS_:
                      01410         .line   1181; ../../RF24Network_c.c     return ok;
000120 50??           01411         MOVF    r0x00, W
000122 CFE4 F000      01412         MOVFF   PREINC1, r0x06
000126 CFE4 F000      01413         MOVFF   PREINC1, r0x05
00012A CFE4 F000      01414         MOVFF   PREINC1, r0x04
00012E CFE4 F000      01415         MOVFF   PREINC1, r0x03
000132 CFE4 F000      01416         MOVFF   PREINC1, r0x02
000136 CFE4 F000      01417         MOVFF   PREINC1, r0x01
00013A CFE4 F000      01418         MOVFF   PREINC1, r0x00
00013E CFE4 FFD9      01419         MOVFF   PREINC1, FSR2L
000142 0012           01420         RETURN  
                      01421 
                      01422 ; ; Starting pCode block
                      01423 S_RF24Network_c__RF24N_logicalToPhysicalAddress code
000000                01424 _RF24N_logicalToPhysicalAddress:
                      01425         .line   1093; ../../RF24Network_c.c     uint8_t RF24N_logicalToPhysicalAddress( logicalToPhysica
                            lStruct *conversionInfo){
000000 CFD9 FFE5      01426         MOVFF   FSR2L, POSTDEC1
000004 CFE1 FFD9      01427         MOVFF   FSR1L, FSR2L
000008 C??? F???      01428         MOVFF   r0x00, POSTDEC1
00000C C??? F???      01429         MOVFF   r0x01, POSTDEC1
000010 C??? F???      01430         MOVFF   r0x02, POSTDEC1
000014 C??? F???      01431         MOVFF   r0x03, POSTDEC1
000018 C??? F???      01432         MOVFF   r0x04, POSTDEC1
00001C C??? F???      01433         MOVFF   r0x05, POSTDEC1
000020 C??? F???      01434         MOVFF   r0x06, POSTDEC1
000024 C??? F???      01435         MOVFF   r0x07, POSTDEC1
000028 C??? F???      01436         MOVFF   r0x08, POSTDEC1
00002C C??? F???      01437         MOVFF   r0x09, POSTDEC1
000030 C??? F???      01438         MOVFF   r0x0a, POSTDEC1
000034 C??? F???      01439         MOVFF   r0x0b, POSTDEC1
000038 C??? F???      01440         MOVFF   r0x0c, POSTDEC1
00003C C??? F???      01441         MOVFF   r0x0d, POSTDEC1
000040 C??? F???      01442         MOVFF   r0x0e, POSTDEC1
000044 C??? F???      01443         MOVFF   r0x0f, POSTDEC1
000048 0E02           01444         MOVLW   0x02
00004A CFDB F000      01445         MOVFF   PLUSW2, r0x00
00004E 0E03           01446         MOVLW   0x03
000050 CFDB F000      01447         MOVFF   PLUSW2, r0x01
000054 0E04           01448         MOVLW   0x04
000056 CFDB F000      01449         MOVFF   PLUSW2, r0x02
                      01450         .line   1098; ../../RF24Network_c.c     uint16_t *to_node = &conversionInfo->send_node;
00005A C??? F???      01451         MOVFF   r0x00, r0x03
00005E C??? F???      01452         MOVFF   r0x01, r0x04
000062 C??? F???      01453         MOVFF   r0x02, r0x05
                      01454         .line   1099; ../../RF24Network_c.c     uint8_t *directTo = &conversionInfo->send_pipe;
000066 50??           01455         MOVF    r0x00, W
000068 0F02           01456         ADDLW   0x02
Message[1301]: Using default destination of 0 (Access Bank).
00006A 6E??           01457         MOVWF   r0x06
gpasm-1.4.0 #1107 (May  9 2015) build/sdcc/pr   12-5-2016  17:29:30         PAGE 31


LOC    OBJECT CODE    LINE  SOURCE TEXT
  VALUE

00006C 0E00           01458         MOVLW   0x00
00006E 20??           01459         ADDWFC  r0x01, W
Message[1301]: Using default destination of 0 (Access Bank).
000070 6E??           01460         MOVWF   r0x07
000072 0E00           01461         MOVLW   0x00
000074 20??           01462         ADDWFC  r0x02, W
Message[1301]: Using default destination of 0 (Access Bank).
000076 6E??           01463         MOVWF   r0x08
                      01464         .line   1100; ../../RF24Network_c.c     uint8_t *multicast = &conversionInfo->multicast;    
000078 50??           01465         MOVF    r0x00, W
00007A 0F03           01466         ADDLW   0x03
Message[1301]: Using default destination of 0 (Access Bank).
00007C 6E??           01467         MOVWF   r0x09
00007E 0E00           01468         MOVLW   0x00
000080 20??           01469         ADDWFC  r0x01, W
Message[1301]: Using default destination of 0 (Access Bank).
000082 6E??           01470         MOVWF   r0x0a
000084 0E00           01471         MOVLW   0x00
000086 20??           01472         ADDWFC  r0x02, W
Message[1301]: Using default destination of 0 (Access Bank).
000088 6E??           01473         MOVWF   r0x0b
                      01474         .line   1103; ../../RF24Network_c.c     uint16_t pre_conversion_send_node = rn.parent_node; 
00008A C??? F???      01475         MOVFF   (_rn + 54), r0x0c
00008E C??? F???      01476         MOVFF   (_rn + 55), r0x0d
                      01477         .line   1106; ../../RF24Network_c.c     uint8_t pre_conversion_send_pipe = rn.parent_pipe;
000092 C??? F???      01478         MOVFF   (_rn + 56), r0x0e
                      01479         .line   1108; ../../RF24Network_c.c     if(*directTo > TX_ROUTED ){    
000096 C??? F???      01480         MOVFF   r0x06, FSR0L
00009A C??? F???      01481         MOVFF   r0x07, PRODL
00009E 50??           01482         MOVF    r0x08, W
0000A0 EC?? F0??      01483         CALL    __gptrget1
Message[1301]: Using default destination of 0 (Access Bank).
0000A4 6E??           01484         MOVWF   r0x0f
0000A6 0E02           01485         MOVLW   0x02
0000A8 5C??           01486         SUBWF   r0x0f, W
0000AA E3??           01487         BNC     _00786_DS_
                      01488         .line   1109; ../../RF24Network_c.c     pre_conversion_send_node = *to_node;
0000AC C??? F???      01489         MOVFF   r0x00, FSR0L
0000B0 C??? F???      01490         MOVFF   r0x01, PRODL
0000B4 50??           01491         MOVF    r0x02, W
0000B6 EC?? F0??      01492         CALL    __gptrget2
Message[1301]: Using default destination of 0 (Access Bank).
0000BA 6E??           01493         MOVWF   r0x0c
0000BC CFF3 F000      01494         MOVFF   PRODL, r0x0d
                      01495         .line   1110; ../../RF24Network_c.c     *multicast = 1;
0000C0 0E01           01496         MOVLW   0x01
Message[1301]: Using default destination of 0 (Access Bank).
0000C2 6EE5           01497         MOVWF   POSTDEC1
0000C4 C??? F???      01498         MOVFF   r0x09, FSR0L
0000C8 C??? F???      01499         MOVFF   r0x0a, PRODL
0000CC 50??           01500         MOVF    r0x0b, W
0000CE EC?? F0??      01501         CALL    __gptrput1
                      01502         .line   1112; ../../RF24Network_c.c     pre_conversion_send_pipe=0;
gpasm-1.4.0 #1107 (May  9 2015) build/sdcc/pr   12-5-2016  17:29:30         PAGE 32


LOC    OBJECT CODE    LINE  SOURCE TEXT
  VALUE

Message[1301]: Using default destination of 0 (Access Bank).
0000D2 6A??           01503         CLRF    r0x0e
0000D4 D???           01504         BRA     _00787_DS_
0000D6                01505 _00786_DS_:
                      01506         .line   1117; ../../RF24Network_c.c     if ( RF24N_is_direct_child(*to_node) )
0000D6 C??? F???      01507         MOVFF   r0x00, FSR0L
0000DA C??? F???      01508         MOVFF   r0x01, PRODL
0000DE 50??           01509         MOVF    r0x02, W
0000E0 EC?? F0??      01510         CALL    __gptrget2
Message[1301]: Using default destination of 0 (Access Bank).
0000E4 6E??           01511         MOVWF   r0x09
0000E6 CFF3 F000      01512         MOVFF   PRODL, r0x0a
0000EA 50??           01513         MOVF    r0x0a, W
Message[1301]: Using default destination of 0 (Access Bank).
0000EC 6EE5           01514         MOVWF   POSTDEC1
0000EE 50??           01515         MOVF    r0x09, W
Message[1301]: Using default destination of 0 (Access Bank).
0000F0 6EE5           01516         MOVWF   POSTDEC1
0000F2 EC?? F0??      01517         CALL    _RF24N_is_direct_child
Message[1301]: Using default destination of 0 (Access Bank).
0000F6 6E??           01518         MOVWF   r0x09
0000F8 52E6           01519         MOVF    POSTINC1, F
0000FA 52E6           01520         MOVF    POSTINC1, F
0000FC 50??           01521         MOVF    r0x09, W
0000FE E0??           01522         BZ      _00783_DS_
                      01523         .line   1120; ../../RF24Network_c.c     pre_conversion_send_node = *to_node;
000100 C??? F???      01524         MOVFF   r0x00, FSR0L
000104 C??? F???      01525         MOVFF   r0x01, PRODL
000108 50??           01526         MOVF    r0x02, W
00010A EC?? F0??      01527         CALL    __gptrget2
Message[1301]: Using default destination of 0 (Access Bank).
00010E 6E??           01528         MOVWF   r0x0c
000110 CFF3 F000      01529         MOVFF   PRODL, r0x0d
                      01530         .line   1122; ../../RF24Network_c.c     pre_conversion_send_pipe = 5;
000114 0E05           01531         MOVLW   0x05
Message[1301]: Using default destination of 0 (Access Bank).
000116 6E??           01532         MOVWF   r0x0e
000118 D???           01533         BRA     _00787_DS_
00011A                01534 _00783_DS_:
                      01535         .line   1127; ../../RF24Network_c.c     else if ( RF24N_is_descendant(*to_node) )
00011A C??? F???      01536         MOVFF   r0x00, FSR0L
00011E C??? F???      01537         MOVFF   r0x01, PRODL
000122 50??           01538         MOVF    r0x02, W
000124 EC?? F0??      01539         CALL    __gptrget2
Message[1301]: Using default destination of 0 (Access Bank).
000128 6E??           01540         MOVWF   r0x09
00012A CFF3 F000      01541         MOVFF   PRODL, r0x0a
00012E 50??           01542         MOVF    r0x0a, W
Message[1301]: Using default destination of 0 (Access Bank).
000130 6EE5           01543         MOVWF   POSTDEC1
000132 50??           01544         MOVF    r0x09, W
Message[1301]: Using default destination of 0 (Access Bank).
000134 6EE5           01545         MOVWF   POSTDEC1
gpasm-1.4.0 #1107 (May  9 2015) build/sdcc/pr   12-5-2016  17:29:30         PAGE 33


LOC    OBJECT CODE    LINE  SOURCE TEXT
  VALUE

000136 EC?? F0??      01546         CALL    _RF24N_is_descendant
Message[1301]: Using default destination of 0 (Access Bank).
00013A 6E??           01547         MOVWF   r0x09
00013C 52E6           01548         MOVF    POSTINC1, F
00013E 52E6           01549         MOVF    POSTINC1, F
000140 50??           01550         MOVF    r0x09, W
000142 E0??           01551         BZ      _00787_DS_
                      01552         .line   1129; ../../RF24Network_c.c     pre_conversion_send_node = RF24N_direct_child_route_to(*
                            to_node);
000144 C??? F???      01553         MOVFF   r0x00, FSR0L
000148 C??? F???      01554         MOVFF   r0x01, PRODL
00014C 50??           01555         MOVF    r0x02, W
00014E EC?? F0??      01556         CALL    __gptrget2
Message[1301]: Using default destination of 0 (Access Bank).
000152 6E??           01557         MOVWF   r0x00
000154 CFF3 F000      01558         MOVFF   PRODL, r0x01
000158 50??           01559         MOVF    r0x01, W
Message[1301]: Using default destination of 0 (Access Bank).
00015A 6EE5           01560         MOVWF   POSTDEC1
00015C 50??           01561         MOVF    r0x00, W
Message[1301]: Using default destination of 0 (Access Bank).
00015E 6EE5           01562         MOVWF   POSTDEC1
000160 EC?? F0??      01563         CALL    _RF24N_direct_child_route_to
Message[1301]: Using default destination of 0 (Access Bank).
000164 6E??           01564         MOVWF   r0x0c
000166 CFF3 F000      01565         MOVFF   PRODL, r0x0d
00016A 52E6           01566         MOVF    POSTINC1, F
00016C 52E6           01567         MOVF    POSTINC1, F
                      01568         .line   1130; ../../RF24Network_c.c     pre_conversion_send_pipe = 5;
00016E 0E05           01569         MOVLW   0x05
Message[1301]: Using default destination of 0 (Access Bank).
000170 6E??           01570         MOVWF   r0x0e
000172                01571 _00787_DS_:
                      01572         .line   1133; ../../RF24Network_c.c     *to_node = pre_conversion_send_node;
000172 C??? F???      01573         MOVFF   r0x0c, POSTDEC1
000176 C??? F???      01574         MOVFF   r0x0d, PRODH
00017A C??? F???      01575         MOVFF   r0x03, FSR0L
00017E C??? F???      01576         MOVFF   r0x04, PRODL
000182 50??           01577         MOVF    r0x05, W
000184 EC?? F0??      01578         CALL    __gptrput2
                      01579         .line   1134; ../../RF24Network_c.c     *directTo = pre_conversion_send_pipe;
000188 C??? F???      01580         MOVFF   r0x0e, POSTDEC1
00018C C??? F???      01581         MOVFF   r0x06, FSR0L
000190 C??? F???      01582         MOVFF   r0x07, PRODL
000194 50??           01583         MOVF    r0x08, W
000196 EC?? F0??      01584         CALL    __gptrput1
                      01585         .line   1136; ../../RF24Network_c.c     return 1;
00019A 0E01           01586         MOVLW   0x01
00019C CFE4 F000      01587         MOVFF   PREINC1, r0x0f
0001A0 CFE4 F000      01588         MOVFF   PREINC1, r0x0e
0001A4 CFE4 F000      01589         MOVFF   PREINC1, r0x0d
0001A8 CFE4 F000      01590         MOVFF   PREINC1, r0x0c
0001AC CFE4 F000      01591         MOVFF   PREINC1, r0x0b
gpasm-1.4.0 #1107 (May  9 2015) build/sdcc/pr   12-5-2016  17:29:30         PAGE 34


LOC    OBJECT CODE    LINE  SOURCE TEXT
  VALUE

0001B0 CFE4 F000      01592         MOVFF   PREINC1, r0x0a
0001B4 CFE4 F000      01593         MOVFF   PREINC1, r0x09
0001B8 CFE4 F000      01594         MOVFF   PREINC1, r0x08
0001BC CFE4 F000      01595         MOVFF   PREINC1, r0x07
0001C0 CFE4 F000      01596         MOVFF   PREINC1, r0x06
0001C4 CFE4 F000      01597         MOVFF   PREINC1, r0x05
0001C8 CFE4 F000      01598         MOVFF   PREINC1, r0x04
0001CC CFE4 F000      01599         MOVFF   PREINC1, r0x03
0001D0 CFE4 F000      01600         MOVFF   PREINC1, r0x02
0001D4 CFE4 F000      01601         MOVFF   PREINC1, r0x01
0001D8 CFE4 F000      01602         MOVFF   PREINC1, r0x00
0001DC CFE4 FFD9      01603         MOVFF   PREINC1, FSR2L
0001E0 0012           01604         RETURN  
                      01605 
                      01606 ; ; Starting pCode block
                      01607 S_RF24Network_c__RF24N_write    code
000000                01608 _RF24N_write:
                      01609         .line   981; ../../RF24Network_c.c      uint8_t RF24N_write( uint16_t to_node, uint8_t directTo)
                              // Direct To: 0 = First Payload, standard routing, 1=routed payload, 2=directRoute to host, 3=directRo
                            ute to Route
000000 CFD9 FFE5      01610         MOVFF   FSR2L, POSTDEC1
000004 CFE1 FFD9      01611         MOVFF   FSR1L, FSR2L
000008 C??? F???      01612         MOVFF   r0x00, POSTDEC1
00000C C??? F???      01613         MOVFF   r0x01, POSTDEC1
000010 C??? F???      01614         MOVFF   r0x02, POSTDEC1
000014 C??? F???      01615         MOVFF   r0x03, POSTDEC1
000018 C??? F???      01616         MOVFF   r0x04, POSTDEC1
00001C C??? F???      01617         MOVFF   r0x05, POSTDEC1
000020 C??? F???      01618         MOVFF   r0x06, POSTDEC1
000024 C??? F???      01619         MOVFF   r0x07, POSTDEC1
000028 C??? F???      01620         MOVFF   r0x08, POSTDEC1
00002C C??? F???      01621         MOVFF   r0x09, POSTDEC1
000030 C??? F???      01622         MOVFF   r0x0a, POSTDEC1
000034 C??? F???      01623         MOVFF   r0x0b, POSTDEC1
000038 C??? F???      01624         MOVFF   r0x0c, POSTDEC1
00003C 0E02           01625         MOVLW   0x02
00003E CFDB F000      01626         MOVFF   PLUSW2, r0x00
000042 0E03           01627         MOVLW   0x03
000044 CFDB F000      01628         MOVFF   PLUSW2, r0x01
000048 0E04           01629         MOVLW   0x04
00004A CFDB F000      01630         MOVFF   PLUSW2, r0x02
                      01631         .line   984; ../../RF24Network_c.c      uint8_t isAckType = 0;
Message[1301]: Using default destination of 0 (Access Bank).
00004E 6A??           01632         CLRF    r0x03
                      01633         .line   988; ../../RF24Network_c.c      if(rn.frame_buffer[6] > 64 && rn.frame_buffer[6] < 192 )
                            { isAckType=1; }
000050 C??? F???      01634         MOVFF   (_rn + 13), r0x04
000054 0E41           01635         MOVLW   0x41
000056 5C??           01636         SUBWF   r0x04, W
000058 E3??           01637         BNC     _00686_DS_
00005A 0EC0           01638         MOVLW   0xc0
00005C 5C??           01639         SUBWF   r0x04, W
00005E E2??           01640         BC      _00686_DS_
gpasm-1.4.0 #1107 (May  9 2015) build/sdcc/pr   12-5-2016  17:29:30         PAGE 35


LOC    OBJECT CODE    LINE  SOURCE TEXT
  VALUE

000060 0E01           01641         MOVLW   0x01
Message[1301]: Using default destination of 0 (Access Bank).
000062 6E??           01642         MOVWF   r0x03
000064                01643 _00686_DS_:
                      01644         .line   995; ../../RF24Network_c.c      if ( !RF24N_is_valid_address(to_node) )
000064 50??           01645         MOVF    r0x01, W
Message[1301]: Using default destination of 0 (Access Bank).
000066 6EE5           01646         MOVWF   POSTDEC1
000068 50??           01647         MOVF    r0x00, W
Message[1301]: Using default destination of 0 (Access Bank).
00006A 6EE5           01648         MOVWF   POSTDEC1
00006C EC?? F0??      01649         CALL    _RF24N_is_valid_address
Message[1301]: Using default destination of 0 (Access Bank).
000070 6E??           01650         MOVWF   r0x04
000072 52E6           01651         MOVF    POSTINC1, F
000074 52E6           01652         MOVF    POSTINC1, F
000076 50??           01653         MOVF    r0x04, W
000078 E1??           01654         BNZ     _00689_DS_
                      01655         .line   996; ../../RF24Network_c.c      return 0;  
Message[1301]: Using default destination of 0 (Access Bank).
00007A 6AE8           01656         CLRF    WREG
00007C D???           01657         BRA     _00710_DS_
00007E                01658 _00689_DS_:
                      01659         .line   999; ../../RF24Network_c.c      conversion.send_node= to_node;
00007E 50??           01660         MOVF    r0x00, W
000080 ????           01661         BANKSEL _RF24N_write_conversion_1_270
000082 6F??           01662         MOVWF   _RF24N_write_conversion_1_270, B
000084 50??           01663         MOVF    r0x01, W
000086 ????           01664         BANKSEL (_RF24N_write_conversion_1_270 + 1)
000088 6F??           01665         MOVWF   (_RF24N_write_conversion_1_270 + 1), B
                      01666         .line   1000; ../../RF24Network_c.c     conversion.send_pipe=directTo;
00008A 50??           01667         MOVF    r0x02, W
00008C ????           01668         BANKSEL (_RF24N_write_conversion_1_270 + 2)
00008E 6F??           01669         MOVWF   (_RF24N_write_conversion_1_270 + 2), B
000090 ????           01670         BANKSEL (_RF24N_write_conversion_1_270 + 3)
                      01671         .line   1001; ../../RF24Network_c.c     conversion.multicast=0;
000092 6B??           01672         CLRF    (_RF24N_write_conversion_1_270 + 3), B
                      01673         .line   1002; ../../RF24Network_c.c     RF24N_logicalToPhysicalAddress( &conversion);
000094 0E??           01674         MOVLW   HIGH(_RF24N_write_conversion_1_270)
Message[1301]: Using default destination of 0 (Access Bank).
000096 6E??           01675         MOVWF   r0x05
000098 0E??           01676         MOVLW   LOW(_RF24N_write_conversion_1_270)
Message[1301]: Using default destination of 0 (Access Bank).
00009A 6E??           01677         MOVWF   r0x04
00009C 0E80           01678         MOVLW   0x80
Message[1301]: Using default destination of 0 (Access Bank).
00009E 6E??           01679         MOVWF   r0x06
0000A0 50??           01680         MOVF    r0x06, W
Message[1301]: Using default destination of 0 (Access Bank).
0000A2 6EE5           01681         MOVWF   POSTDEC1
0000A4 50??           01682         MOVF    r0x05, W
Message[1301]: Using default destination of 0 (Access Bank).
0000A6 6EE5           01683         MOVWF   POSTDEC1
gpasm-1.4.0 #1107 (May  9 2015) build/sdcc/pr   12-5-2016  17:29:30         PAGE 36


LOC    OBJECT CODE    LINE  SOURCE TEXT
  VALUE

0000A8 50??           01684         MOVF    r0x04, W
Message[1301]: Using default destination of 0 (Access Bank).
0000AA 6EE5           01685         MOVWF   POSTDEC1
0000AC EC?? F0??      01686         CALL    _RF24N_logicalToPhysicalAddress
0000B0 0E03           01687         MOVLW   0x03
0000B2 26E1           01688         ADDWF   FSR1L, F
0000B4 ????           01689         BANKSEL (_RF24N_write_conversion_1_270 + 3)
                      01690         .line   1010; ../../RF24Network_c.c     ok=RF24N_write_to_pipe(conversion.send_node, conversion.
                            send_pipe, conversion.multicast);       
0000B6 51??           01691         MOVF    (_RF24N_write_conversion_1_270 + 3), W, B
Message[1301]: Using default destination of 0 (Access Bank).
0000B8 6EE5           01692         MOVWF   POSTDEC1
0000BA ????           01693         BANKSEL (_RF24N_write_conversion_1_270 + 2)
0000BC 51??           01694         MOVF    (_RF24N_write_conversion_1_270 + 2), W, B
Message[1301]: Using default destination of 0 (Access Bank).
0000BE 6EE5           01695         MOVWF   POSTDEC1
0000C0 ????           01696         BANKSEL (_RF24N_write_conversion_1_270 + 1)
0000C2 51??           01697         MOVF    (_RF24N_write_conversion_1_270 + 1), W, B
Message[1301]: Using default destination of 0 (Access Bank).
0000C4 6EE5           01698         MOVWF   POSTDEC1
0000C6 ????           01699         BANKSEL _RF24N_write_conversion_1_270
0000C8 51??           01700         MOVF    _RF24N_write_conversion_1_270, W, B
Message[1301]: Using default destination of 0 (Access Bank).
0000CA 6EE5           01701         MOVWF   POSTDEC1
0000CC EC?? F0??      01702         CALL    _RF24N_write_to_pipe
Message[1301]: Using default destination of 0 (Access Bank).
0000D0 6E??           01703         MOVWF   r0x04
0000D2 0E04           01704         MOVLW   0x04
0000D4 26E1           01705         ADDWF   FSR1L, F
                      01706         .line   1022; ../../RF24Network_c.c     if( directTo == TX_ROUTED && ok && conversion.send_node 
                            == to_node && isAckType){
0000D6 50??           01707         MOVF    r0x02, W
0000D8 0A01           01708         XORLW   0x01
0000DA E0??           01709         BZ      _00763_DS_
0000DC D???           01710         BRA     _00691_DS_
0000DE                01711 _00763_DS_:
0000DE 50??           01712         MOVF    r0x04, W
0000E0 B4D8           01713         BTFSC   STATUS, 2
0000E2 D???           01714         BRA     _00691_DS_
0000E4 ????           01715         BANKSEL _RF24N_write_conversion_1_270
0000E6 51??           01716         MOVF    _RF24N_write_conversion_1_270, W, B
0000E8 18??           01717         XORWF   r0x00, W
0000EA E1??           01718         BNZ     _00764_DS_
0000EC ????           01719         BANKSEL (_RF24N_write_conversion_1_270 + 1)
0000EE 51??           01720         MOVF    (_RF24N_write_conversion_1_270 + 1), W, B
0000F0 18??           01721         XORWF   r0x01, W
0000F2 E0??           01722         BZ      _00765_DS_
0000F4                01723 _00764_DS_:
0000F4 D???           01724         BRA     _00691_DS_
0000F6                01725 _00765_DS_:
0000F6 50??           01726         MOVF    r0x03, W
0000F8 B4D8           01727         BTFSC   STATUS, 2
0000FA D???           01728         BRA     _00691_DS_
gpasm-1.4.0 #1107 (May  9 2015) build/sdcc/pr   12-5-2016  17:29:30         PAGE 37


LOC    OBJECT CODE    LINE  SOURCE TEXT
  VALUE

                      01729         .line   1024; ../../RF24Network_c.c     RF24NetworkHeader* header = (RF24NetworkHeader*)rn.frame
                            _buffer;
0000FC 0E??           01730         MOVLW   LOW(_rn + 7)
Message[1301]: Using default destination of 0 (Access Bank).
0000FE 6E??           01731         MOVWF   r0x05
000100 0E??           01732         MOVLW   HIGH(_rn + 7)
Message[1301]: Using default destination of 0 (Access Bank).
000102 6E??           01733         MOVWF   r0x06
000104 50??           01734         MOVF    r0x06, W
Message[1301]: Using default destination of 0 (Access Bank).
000106 6E??           01735         MOVWF   r0x06
000108 50??           01736         MOVF    r0x05, W
Message[1301]: Using default destination of 0 (Access Bank).
00010A 6E??           01737         MOVWF   r0x05
00010C 0E80           01738         MOVLW   0x80
Message[1301]: Using default destination of 0 (Access Bank).
00010E 6E??           01739         MOVWF   r0x07
                      01740         .line   1025; ../../RF24Network_c.c     header->type = NETWORK_ACK;                             
                                // Set the payload type to NETWORK_ACK                      
000110 50??           01741         MOVF    r0x05, W
000112 0F06           01742         ADDLW   0x06
Message[1301]: Using default destination of 0 (Access Bank).
000114 6E??           01743         MOVWF   r0x08
000116 0E00           01744         MOVLW   0x00
000118 20??           01745         ADDWFC  r0x06, W
Message[1301]: Using default destination of 0 (Access Bank).
00011A 6E??           01746         MOVWF   r0x09
00011C 0E00           01747         MOVLW   0x00
00011E 20??           01748         ADDWFC  r0x07, W
Message[1301]: Using default destination of 0 (Access Bank).
000120 6E??           01749         MOVWF   r0x0a
000122 0EC1           01750         MOVLW   0xc1
Message[1301]: Using default destination of 0 (Access Bank).
000124 6EE5           01751         MOVWF   POSTDEC1
000126 C??? F???      01752         MOVFF   r0x08, FSR0L
00012A C??? F???      01753         MOVFF   r0x09, PRODL
00012E 50??           01754         MOVF    r0x0a, W
000130 EC?? F0??      01755         CALL    __gptrput1
                      01756         .line   1026; ../../RF24Network_c.c     header->to_node = header->from_node;          // Change 
                            the 'to' address to the 'from' address                  
000134 50??           01757         MOVF    r0x05, W
000136 0F02           01758         ADDLW   0x02
Message[1301]: Using default destination of 0 (Access Bank).
000138 6E??           01759         MOVWF   r0x08
00013A 0E00           01760         MOVLW   0x00
00013C 20??           01761         ADDWFC  r0x06, W
Message[1301]: Using default destination of 0 (Access Bank).
00013E 6E??           01762         MOVWF   r0x09
000140 0E00           01763         MOVLW   0x00
000142 20??           01764         ADDWFC  r0x07, W
Message[1301]: Using default destination of 0 (Access Bank).
000144 6E??           01765         MOVWF   r0x0a
000146 C??? F???      01766         MOVFF   r0x05, FSR0L
gpasm-1.4.0 #1107 (May  9 2015) build/sdcc/pr   12-5-2016  17:29:30         PAGE 38


LOC    OBJECT CODE    LINE  SOURCE TEXT
  VALUE

00014A C??? F???      01767         MOVFF   r0x06, PRODL
00014E 50??           01768         MOVF    r0x07, W
000150 EC?? F0??      01769         CALL    __gptrget2
Message[1301]: Using default destination of 0 (Access Bank).
000154 6E??           01770         MOVWF   r0x0b
000156 CFF3 F000      01771         MOVFF   PRODL, r0x0c
00015A C??? F???      01772         MOVFF   r0x0b, POSTDEC1
00015E C??? F???      01773         MOVFF   r0x0c, PRODH
000162 C??? F???      01774         MOVFF   r0x08, FSR0L
000166 C??? F???      01775         MOVFF   r0x09, PRODL
00016A 50??           01776         MOVF    r0x0a, W
00016C EC?? F0??      01777         CALL    __gptrput2
                      01778         .line   1028; ../../RF24Network_c.c     conversion.send_node = header->from_node;
000170 C??? F???      01779         MOVFF   r0x05, FSR0L
000174 C??? F???      01780         MOVFF   r0x06, PRODL
000178 50??           01781         MOVF    r0x07, W
00017A EC?? F0??      01782         CALL    __gptrget2
Message[1301]: Using default destination of 0 (Access Bank).
00017E 6E??           01783         MOVWF   r0x05
000180 CFF3 F000      01784         MOVFF   PRODL, r0x06
000184 50??           01785         MOVF    r0x05, W
000186 ????           01786         BANKSEL _RF24N_write_conversion_1_270
000188 6F??           01787         MOVWF   _RF24N_write_conversion_1_270, B
00018A 50??           01788         MOVF    r0x06, W
00018C ????           01789         BANKSEL (_RF24N_write_conversion_1_270 + 1)
00018E 6F??           01790         MOVWF   (_RF24N_write_conversion_1_270 + 1), B
                      01791         .line   1029; ../../RF24Network_c.c     conversion.send_pipe = TX_ROUTED;
000190 0E01           01792         MOVLW   0x01
000192 ????           01793         BANKSEL (_RF24N_write_conversion_1_270 + 2)
000194 6F??           01794         MOVWF   (_RF24N_write_conversion_1_270 + 2), B
000196 ????           01795         BANKSEL (_RF24N_write_conversion_1_270 + 3)
                      01796         .line   1030; ../../RF24Network_c.c     conversion.multicast = 0;
000198 6B??           01797         CLRF    (_RF24N_write_conversion_1_270 + 3), B
                      01798         .line   1031; ../../RF24Network_c.c     RF24N_logicalToPhysicalAddress(&conversion);
00019A 0E??           01799         MOVLW   HIGH(_RF24N_write_conversion_1_270)
Message[1301]: Using default destination of 0 (Access Bank).
00019C 6E??           01800         MOVWF   r0x06
00019E 0E??           01801         MOVLW   LOW(_RF24N_write_conversion_1_270)
Message[1301]: Using default destination of 0 (Access Bank).
0001A0 6E??           01802         MOVWF   r0x05
0001A2 0E80           01803         MOVLW   0x80
Message[1301]: Using default destination of 0 (Access Bank).
0001A4 6E??           01804         MOVWF   r0x07
0001A6 50??           01805         MOVF    r0x07, W
Message[1301]: Using default destination of 0 (Access Bank).
0001A8 6EE5           01806         MOVWF   POSTDEC1
0001AA 50??           01807         MOVF    r0x06, W
Message[1301]: Using default destination of 0 (Access Bank).
0001AC 6EE5           01808         MOVWF   POSTDEC1
0001AE 50??           01809         MOVF    r0x05, W
Message[1301]: Using default destination of 0 (Access Bank).
0001B0 6EE5           01810         MOVWF   POSTDEC1
0001B2 EC?? F0??      01811         CALL    _RF24N_logicalToPhysicalAddress
gpasm-1.4.0 #1107 (May  9 2015) build/sdcc/pr   12-5-2016  17:29:30         PAGE 39


LOC    OBJECT CODE    LINE  SOURCE TEXT
  VALUE

0001B6 0E03           01812         MOVLW   0x03
0001B8 26E1           01813         ADDWF   FSR1L, F
                      01814         .line   1034; ../../RF24Network_c.c     rn.frame_size = sizeof(RF24NetworkHeader);
0001BA 0E08           01815         MOVLW   0x08
0001BC ????           01816         BANKSEL (_rn + 51)
0001BE 6F??           01817         MOVWF   (_rn + 51), B
0001C0 ????           01818         BANKSEL (_RF24N_write_conversion_1_270 + 3)
                      01819         .line   1035; ../../RF24Network_c.c     RF24N_write_to_pipe(conversion.send_node, conversion.sen
                            d_pipe, conversion.multicast);
0001C2 51??           01820         MOVF    (_RF24N_write_conversion_1_270 + 3), W, B
Message[1301]: Using default destination of 0 (Access Bank).
0001C4 6EE5           01821         MOVWF   POSTDEC1
0001C6 ????           01822         BANKSEL (_RF24N_write_conversion_1_270 + 2)
0001C8 51??           01823         MOVF    (_RF24N_write_conversion_1_270 + 2), W, B
Message[1301]: Using default destination of 0 (Access Bank).
0001CA 6EE5           01824         MOVWF   POSTDEC1
0001CC ????           01825         BANKSEL (_RF24N_write_conversion_1_270 + 1)
0001CE 51??           01826         MOVF    (_RF24N_write_conversion_1_270 + 1), W, B
Message[1301]: Using default destination of 0 (Access Bank).
0001D0 6EE5           01827         MOVWF   POSTDEC1
0001D2 ????           01828         BANKSEL _RF24N_write_conversion_1_270
0001D4 51??           01829         MOVF    _RF24N_write_conversion_1_270, W, B
Message[1301]: Using default destination of 0 (Access Bank).
0001D6 6EE5           01830         MOVWF   POSTDEC1
0001D8 EC?? F0??      01831         CALL    _RF24N_write_to_pipe
0001DC 0E04           01832         MOVLW   0x04
0001DE 26E1           01833         ADDWF   FSR1L, F
0001E0                01834 _00691_DS_:
                      01835         .line   1047; ../../RF24Network_c.c     if( ok && conversion.send_node != to_node && (directTo==
                            0 || directTo==3) && isAckType){
0001E0 50??           01836         MOVF    r0x04, W
0001E2 B4D8           01837         BTFSC   STATUS, 2
0001E4 D???           01838         BRA     _00703_DS_
0001E6 ????           01839         BANKSEL _RF24N_write_conversion_1_270
0001E8 51??           01840         MOVF    _RF24N_write_conversion_1_270, W, B
0001EA 18??           01841         XORWF   r0x00, W
0001EC E1??           01842         BNZ     _00767_DS_
0001EE ????           01843         BANKSEL (_RF24N_write_conversion_1_270 + 1)
0001F0 51??           01844         MOVF    (_RF24N_write_conversion_1_270 + 1), W, B
0001F2 18??           01845         XORWF   r0x01, W
0001F4 E1??           01846         BNZ     _00767_DS_
0001F6 D???           01847         BRA     _00703_DS_
0001F8                01848 _00767_DS_:
0001F8 50??           01849         MOVF    r0x02, W
0001FA E0??           01850         BZ      _00707_DS_
0001FC 50??           01851         MOVF    r0x02, W
0001FE 0A03           01852         XORLW   0x03
000200 E0??           01853         BZ      _00707_DS_
000202 D???           01854         BRA     _00703_DS_
000204                01855 _00707_DS_:
000204 50??           01856         MOVF    r0x03, W
000206 B4D8           01857         BTFSC   STATUS, 2
000208 D???           01858         BRA     _00703_DS_
gpasm-1.4.0 #1107 (May  9 2015) build/sdcc/pr   12-5-2016  17:29:30         PAGE 40


LOC    OBJECT CODE    LINE  SOURCE TEXT
  VALUE

00020A ????           01859         BANKSEL (_rn + 43)
                      01860         .line   1050; ../../RF24Network_c.c     if(rn.networkFlags & FLAG_FAST_FRAG){
00020C A4??           01861         BTFSS   (_rn + 43), 2
00020E D???           01862         BRA     _00696_DS_
                      01863         .line   1051; ../../RF24Network_c.c     RF24_txStandBy_t(rn.txTimeout,0);
000210 0E00           01864         MOVLW   0x00
Message[1301]: Using default destination of 0 (Access Bank).
000212 6EE5           01865         MOVWF   POSTDEC1
000214 ????           01866         BANKSEL (_rn + 4)
000216 51??           01867         MOVF    (_rn + 4), W, B
Message[1301]: Using default destination of 0 (Access Bank).
000218 6EE5           01868         MOVWF   POSTDEC1
00021A ????           01869         BANKSEL (_rn + 3)
00021C 51??           01870         MOVF    (_rn + 3), W, B
Message[1301]: Using default destination of 0 (Access Bank).
00021E 6EE5           01871         MOVWF   POSTDEC1
000220 ????           01872         BANKSEL (_rn + 2)
000222 51??           01873         MOVF    (_rn + 2), W, B
Message[1301]: Using default destination of 0 (Access Bank).
000224 6EE5           01874         MOVWF   POSTDEC1
000226 ????           01875         BANKSEL (_rn + 1)
000228 51??           01876         MOVF    (_rn + 1), W, B
Message[1301]: Using default destination of 0 (Access Bank).
00022A 6EE5           01877         MOVWF   POSTDEC1
00022C EC?? F0??      01878         CALL    _RF24_txStandBy_t
000230 0E05           01879         MOVLW   0x05
000232 26E1           01880         ADDWF   FSR1L, F
                      01881         .line   1052; ../../RF24Network_c.c     rn.networkFlags &= ~FLAG_FAST_FRAG;
000234 0EFB           01882         MOVLW   0xfb
000236 ????           01883         BANKSEL (_rn + 43)
000238 15??           01884         ANDWF   (_rn + 43), W, B
Message[1301]: Using default destination of 0 (Access Bank).
00023A 6E??           01885         MOVWF   r0x00
00023C 50??           01886         MOVF    r0x00, W
00023E ????           01887         BANKSEL (_rn + 43)
000240 6F??           01888         MOVWF   (_rn + 43), B
                      01889         .line   1053; ../../RF24Network_c.c     RF24_setAutoAck_p(0,0); 
000242 0E00           01890         MOVLW   0x00
Message[1301]: Using default destination of 0 (Access Bank).
000244 6EE5           01891         MOVWF   POSTDEC1
000246 0E00           01892         MOVLW   0x00
Message[1301]: Using default destination of 0 (Access Bank).
000248 6EE5           01893         MOVWF   POSTDEC1
00024A EC?? F0??      01894         CALL    _RF24_setAutoAck_p
00024E 52E6           01895         MOVF    POSTINC1, F
000250 52E6           01896         MOVF    POSTINC1, F
000252                01897 _00696_DS_:
                      01898         .line   1055; ../../RF24Network_c.c     RF24_startListening();
000252 EC?? F0??      01899         CALL    _RF24_startListening
                      01900         .line   1057; ../../RF24Network_c.c     reply_time = millis(); 
000256 EC?? F0??      01901         CALL    _millis
Message[1301]: Using default destination of 0 (Access Bank).
00025A 6E??           01902         MOVWF   r0x00
gpasm-1.4.0 #1107 (May  9 2015) build/sdcc/pr   12-5-2016  17:29:30         PAGE 41


LOC    OBJECT CODE    LINE  SOURCE TEXT
  VALUE

00025C CFF3 F000      01903         MOVFF   PRODL, r0x01
000260 CFF4 F000      01904         MOVFF   PRODH, r0x02
000264 CFE9 F000      01905         MOVFF   FSR0L, r0x03
000268                01906 _00699_DS_:
                      01907         .line   1059; ../../RF24Network_c.c     while( RF24N_update() != NETWORK_ACK){
000268 EC?? F0??      01908         CALL    _RF24N_update
Message[1301]: Using default destination of 0 (Access Bank).
00026C 6E??           01909         MOVWF   r0x05
00026E 50??           01910         MOVF    r0x05, W
000270 0AC1           01911         XORLW   0xc1
000272 E0??           01912         BZ      _00703_DS_
                      01913         .line   1063; ../../RF24Network_c.c     if(millis() - reply_time > rn.routeTimeout){
000274 EC?? F0??      01914         CALL    _millis
Message[1301]: Using default destination of 0 (Access Bank).
000278 6E??           01915         MOVWF   r0x05
00027A CFF3 F000      01916         MOVFF   PRODL, r0x06
00027E CFF4 F000      01917         MOVFF   PRODH, r0x07
000282 CFE9 F000      01918         MOVFF   FSR0L, r0x08
000286 50??           01919         MOVF    r0x00, W
000288 5E??           01920         SUBWF   r0x05, F
00028A 50??           01921         MOVF    r0x01, W
00028C 5A??           01922         SUBWFB  r0x06, F
00028E 50??           01923         MOVF    r0x02, W
000290 5A??           01924         SUBWFB  r0x07, F
000292 50??           01925         MOVF    r0x03, W
000294 5A??           01926         SUBWFB  r0x08, F
000296 C??? F???      01927         MOVFF   (_rn + 5), r0x09
00029A C??? F???      01928         MOVFF   (_rn + 6), r0x0a
Message[1301]: Using default destination of 0 (Access Bank).
00029E 6A??           01929         CLRF    r0x0b
Message[1301]: Using default destination of 0 (Access Bank).
0002A0 6A??           01930         CLRF    r0x0c
0002A2 50??           01931         MOVF    r0x08, W
0002A4 5C??           01932         SUBWF   r0x0c, W
0002A6 E1??           01933         BNZ     _00774_DS_
0002A8 50??           01934         MOVF    r0x07, W
0002AA 5C??           01935         SUBWF   r0x0b, W
0002AC E1??           01936         BNZ     _00774_DS_
0002AE 50??           01937         MOVF    r0x06, W
0002B0 5C??           01938         SUBWF   r0x0a, W
0002B2 E1??           01939         BNZ     _00774_DS_
0002B4 50??           01940         MOVF    r0x05, W
0002B6 5C??           01941         SUBWF   r0x09, W
0002B8                01942 _00774_DS_:
0002B8 E2??           01943         BC      _00699_DS_
                      01944         .line   1069; ../../RF24Network_c.c     ok=0;
Message[1301]: Using default destination of 0 (Access Bank).
0002BA 6A??           01945         CLRF    r0x04
0002BC                01946 _00703_DS_:
0002BC ????           01947         BANKSEL (_rn + 43)
                      01948         .line   1074; ../../RF24Network_c.c     if( !(rn.networkFlags & FLAG_FAST_FRAG) ){
0002BE B4??           01949         BTFSC   (_rn + 43), 2
0002C0 D???           01950         BRA     _00709_DS_
gpasm-1.4.0 #1107 (May  9 2015) build/sdcc/pr   12-5-2016  17:29:30         PAGE 42


LOC    OBJECT CODE    LINE  SOURCE TEXT
  VALUE

                      01951         .line   1077; ../../RF24Network_c.c     RF24_startListening();
0002C2 EC?? F0??      01952         CALL    _RF24_startListening
0002C6                01953 _00709_DS_:
                      01954         .line   1087; ../../RF24Network_c.c     return ok;
0002C6 50??           01955         MOVF    r0x04, W
0002C8                01956 _00710_DS_:
0002C8 CFE4 F000      01957         MOVFF   PREINC1, r0x0c
0002CC CFE4 F000      01958         MOVFF   PREINC1, r0x0b
0002D0 CFE4 F000      01959         MOVFF   PREINC1, r0x0a
0002D4 CFE4 F000      01960         MOVFF   PREINC1, r0x09
0002D8 CFE4 F000      01961         MOVFF   PREINC1, r0x08
0002DC CFE4 F000      01962         MOVFF   PREINC1, r0x07
0002E0 CFE4 F000      01963         MOVFF   PREINC1, r0x06
0002E4 CFE4 F000      01964         MOVFF   PREINC1, r0x05
0002E8 CFE4 F000      01965         MOVFF   PREINC1, r0x04
0002EC CFE4 F000      01966         MOVFF   PREINC1, r0x03
0002F0 CFE4 F000      01967         MOVFF   PREINC1, r0x02
0002F4 CFE4 F000      01968         MOVFF   PREINC1, r0x01
0002F8 CFE4 F000      01969         MOVFF   PREINC1, r0x00
0002FC CFE4 FFD9      01970         MOVFF   PREINC1, FSR2L
000300 0012           01971         RETURN  
                      01972 
                      01973 ; ; Starting pCode block
                      01974 S_RF24Network_c__RF24N__write   code
000000                01975 _RF24N__write:
                      01976         .line   925; ../../RF24Network_c.c      uint8_t RF24N__write(RF24NetworkHeader * header,const vo
                            id* message, uint16_t len, uint16_t writeDirect)
000000 CFD9 FFE5      01977         MOVFF   FSR2L, POSTDEC1
000004 CFE1 FFD9      01978         MOVFF   FSR1L, FSR2L
000008 C??? F???      01979         MOVFF   r0x00, POSTDEC1
00000C C??? F???      01980         MOVFF   r0x01, POSTDEC1
000010 C??? F???      01981         MOVFF   r0x02, POSTDEC1
000014 C??? F???      01982         MOVFF   r0x03, POSTDEC1
000018 C??? F???      01983         MOVFF   r0x04, POSTDEC1
00001C C??? F???      01984         MOVFF   r0x05, POSTDEC1
000020 C??? F???      01985         MOVFF   r0x06, POSTDEC1
000024 C??? F???      01986         MOVFF   r0x07, POSTDEC1
000028 C??? F???      01987         MOVFF   r0x08, POSTDEC1
00002C C??? F???      01988         MOVFF   r0x09, POSTDEC1
000030 C??? F???      01989         MOVFF   r0x0a, POSTDEC1
000034 C??? F???      01990         MOVFF   r0x0b, POSTDEC1
000038 C??? F???      01991         MOVFF   r0x0c, POSTDEC1
00003C C??? F???      01992         MOVFF   r0x0d, POSTDEC1
000040 C??? F???      01993         MOVFF   r0x0e, POSTDEC1
000044 C??? F???      01994         MOVFF   r0x0f, POSTDEC1
000048 0E02           01995         MOVLW   0x02
00004A CFDB F000      01996         MOVFF   PLUSW2, r0x00
00004E 0E03           01997         MOVLW   0x03
000050 CFDB F000      01998         MOVFF   PLUSW2, r0x01
000054 0E04           01999         MOVLW   0x04
000056 CFDB F000      02000         MOVFF   PLUSW2, r0x02
00005A 0E05           02001         MOVLW   0x05
00005C CFDB F000      02002         MOVFF   PLUSW2, r0x03
gpasm-1.4.0 #1107 (May  9 2015) build/sdcc/pr   12-5-2016  17:29:30         PAGE 43


LOC    OBJECT CODE    LINE  SOURCE TEXT
  VALUE

000060 0E06           02003         MOVLW   0x06
000062 CFDB F000      02004         MOVFF   PLUSW2, r0x04
000066 0E07           02005         MOVLW   0x07
000068 CFDB F000      02006         MOVFF   PLUSW2, r0x05
00006C 0E08           02007         MOVLW   0x08
00006E CFDB F000      02008         MOVFF   PLUSW2, r0x06
000072 0E09           02009         MOVLW   0x09
000074 CFDB F000      02010         MOVFF   PLUSW2, r0x07
000078 0E0A           02011         MOVLW   0x0a
00007A CFDB F000      02012         MOVFF   PLUSW2, r0x08
00007E 0E0B           02013         MOVLW   0x0b
000080 CFDB F000      02014         MOVFF   PLUSW2, r0x09
                      02015         .line   928; ../../RF24Network_c.c      header->from_node = rn.node_address;
000084 C??? F???      02016         MOVFF   (_rn + 49), r0x0a
000088 C??? F???      02017         MOVFF   (_rn + 50), r0x0b
00008C C??? F???      02018         MOVFF   r0x0a, POSTDEC1
000090 C??? F???      02019         MOVFF   r0x0b, PRODH
000094 C??? F???      02020         MOVFF   r0x00, FSR0L
000098 C??? F???      02021         MOVFF   r0x01, PRODL
00009C 50??           02022         MOVF    r0x02, W
00009E EC?? F0??      02023         CALL    __gptrput2
                      02024         .line   931; ../../RF24Network_c.c      memcpy(rn.frame_buffer,header,sizeof(RF24NetworkHeader))
                            ;
0000A2 0E??           02025         MOVLW   HIGH(_rn + 7)
Message[1301]: Using default destination of 0 (Access Bank).
0000A4 6E??           02026         MOVWF   r0x0b
0000A6 0E??           02027         MOVLW   LOW(_rn + 7)
Message[1301]: Using default destination of 0 (Access Bank).
0000A8 6E??           02028         MOVWF   r0x0a
0000AA 0E80           02029         MOVLW   0x80
Message[1301]: Using default destination of 0 (Access Bank).
0000AC 6E??           02030         MOVWF   r0x0c
0000AE 50??           02031         MOVF    r0x02, W
Message[1301]: Using default destination of 0 (Access Bank).
0000B0 6E??           02032         MOVWF   r0x0f
0000B2 50??           02033         MOVF    r0x01, W
Message[1301]: Using default destination of 0 (Access Bank).
0000B4 6E??           02034         MOVWF   r0x0e
0000B6 50??           02035         MOVF    r0x00, W
Message[1301]: Using default destination of 0 (Access Bank).
0000B8 6E??           02036         MOVWF   r0x0d
0000BA 0E00           02037         MOVLW   0x00
Message[1301]: Using default destination of 0 (Access Bank).
0000BC 6EE5           02038         MOVWF   POSTDEC1
0000BE 0E08           02039         MOVLW   0x08
Message[1301]: Using default destination of 0 (Access Bank).
0000C0 6EE5           02040         MOVWF   POSTDEC1
0000C2 50??           02041         MOVF    r0x0f, W
Message[1301]: Using default destination of 0 (Access Bank).
0000C4 6EE5           02042         MOVWF   POSTDEC1
0000C6 50??           02043         MOVF    r0x0e, W
Message[1301]: Using default destination of 0 (Access Bank).
0000C8 6EE5           02044         MOVWF   POSTDEC1
gpasm-1.4.0 #1107 (May  9 2015) build/sdcc/pr   12-5-2016  17:29:30         PAGE 44


LOC    OBJECT CODE    LINE  SOURCE TEXT
  VALUE

0000CA 50??           02045         MOVF    r0x0d, W
Message[1301]: Using default destination of 0 (Access Bank).
0000CC 6EE5           02046         MOVWF   POSTDEC1
0000CE 50??           02047         MOVF    r0x0c, W
Message[1301]: Using default destination of 0 (Access Bank).
0000D0 6EE5           02048         MOVWF   POSTDEC1
0000D2 50??           02049         MOVF    r0x0b, W
Message[1301]: Using default destination of 0 (Access Bank).
0000D4 6EE5           02050         MOVWF   POSTDEC1
0000D6 50??           02051         MOVF    r0x0a, W
Message[1301]: Using default destination of 0 (Access Bank).
0000D8 6EE5           02052         MOVWF   POSTDEC1
0000DA EC?? F0??      02053         CALL    _memcpy
0000DE 0E08           02054         MOVLW   0x08
0000E0 26E1           02055         ADDWF   FSR1L, F
                      02056         .line   938; ../../RF24Network_c.c      if (len){
0000E2 50??           02057         MOVF    r0x06, W
0000E4 10??           02058         IORWF   r0x07, W
0000E6 E0??           02059         BZ      _00654_DS_
                      02060         .line   945; ../../RF24Network_c.c      memcpy(rn.frame_buffer + sizeof(RF24NetworkHeader),messa
                            ge,len);
0000E8 0E??           02061         MOVLW   HIGH(_rn + 15)
Message[1301]: Using default destination of 0 (Access Bank).
0000EA 6E??           02062         MOVWF   r0x0b
0000EC 0E??           02063         MOVLW   LOW(_rn + 15)
Message[1301]: Using default destination of 0 (Access Bank).
0000EE 6E??           02064         MOVWF   r0x0a
0000F0 0E80           02065         MOVLW   0x80
Message[1301]: Using default destination of 0 (Access Bank).
0000F2 6E??           02066         MOVWF   r0x0c
0000F4 50??           02067         MOVF    r0x07, W
Message[1301]: Using default destination of 0 (Access Bank).
0000F6 6EE5           02068         MOVWF   POSTDEC1
0000F8 50??           02069         MOVF    r0x06, W
Message[1301]: Using default destination of 0 (Access Bank).
0000FA 6EE5           02070         MOVWF   POSTDEC1
0000FC 50??           02071         MOVF    r0x05, W
Message[1301]: Using default destination of 0 (Access Bank).
0000FE 6EE5           02072         MOVWF   POSTDEC1
000100 50??           02073         MOVF    r0x04, W
Message[1301]: Using default destination of 0 (Access Bank).
000102 6EE5           02074         MOVWF   POSTDEC1
000104 50??           02075         MOVF    r0x03, W
Message[1301]: Using default destination of 0 (Access Bank).
000106 6EE5           02076         MOVWF   POSTDEC1
000108 50??           02077         MOVF    r0x0c, W
Message[1301]: Using default destination of 0 (Access Bank).
00010A 6EE5           02078         MOVWF   POSTDEC1
00010C 50??           02079         MOVF    r0x0b, W
Message[1301]: Using default destination of 0 (Access Bank).
00010E 6EE5           02080         MOVWF   POSTDEC1
000110 50??           02081         MOVF    r0x0a, W
Message[1301]: Using default destination of 0 (Access Bank).
gpasm-1.4.0 #1107 (May  9 2015) build/sdcc/pr   12-5-2016  17:29:30         PAGE 45


LOC    OBJECT CODE    LINE  SOURCE TEXT
  VALUE

000112 6EE5           02082         MOVWF   POSTDEC1
000114 EC?? F0??      02083         CALL    _memcpy
000118 0E08           02084         MOVLW   0x08
00011A 26E1           02085         ADDWF   FSR1L, F
00011C                02086 _00654_DS_:
                      02087         .line   964; ../../RF24Network_c.c      if(writeDirect != 070){         
00011C 50??           02088         MOVF    r0x08, W
00011E 0A38           02089         XORLW   0x38
000120 E1??           02090         BNZ     _00676_DS_
000122 50??           02091         MOVF    r0x09, W
000124 E0??           02092         BZ      _00660_DS_
000126                02093 _00676_DS_:
                      02094         .line   965; ../../RF24Network_c.c      uint8_t sendType = USER_TX_TO_LOGICAL_ADDRESS; // Payloa
                            d is multicast to the first node, and routed normally to the next
000126 0E03           02095         MOVLW   0x03
Message[1301]: Using default destination of 0 (Access Bank).
000128 6E??           02096         MOVWF   r0x03
                      02097         .line   967; ../../RF24Network_c.c      if(header->to_node == 0100){
00012A 50??           02098         MOVF    r0x00, W
00012C 0F02           02099         ADDLW   0x02
Message[1301]: Using default destination of 0 (Access Bank).
00012E 6E??           02100         MOVWF   r0x04
000130 0E00           02101         MOVLW   0x00
000132 20??           02102         ADDWFC  r0x01, W
Message[1301]: Using default destination of 0 (Access Bank).
000134 6E??           02103         MOVWF   r0x05
000136 0E00           02104         MOVLW   0x00
000138 20??           02105         ADDWFC  r0x02, W
Message[1301]: Using default destination of 0 (Access Bank).
00013A 6E??           02106         MOVWF   r0x06
00013C C??? F???      02107         MOVFF   r0x04, FSR0L
000140 C??? F???      02108         MOVFF   r0x05, PRODL
000144 50??           02109         MOVF    r0x06, W
000146 EC?? F0??      02110         CALL    __gptrget2
Message[1301]: Using default destination of 0 (Access Bank).
00014A 6E??           02111         MOVWF   r0x04
00014C CFF3 F000      02112         MOVFF   PRODL, r0x05
000150 50??           02113         MOVF    r0x04, W
000152 0A40           02114         XORLW   0x40
000154 E1??           02115         BNZ     _00677_DS_
000156 50??           02116         MOVF    r0x05, W
000158 E0??           02117         BZ      _00678_DS_
00015A                02118 _00677_DS_:
00015A D???           02119         BRA     _00656_DS_
00015C                02120 _00678_DS_:
                      02121         .line   968; ../../RF24Network_c.c      sendType = USER_TX_MULTICAST;
00015C 0E04           02122         MOVLW   0x04
Message[1301]: Using default destination of 0 (Access Bank).
00015E 6E??           02123         MOVWF   r0x03
000160                02124 _00656_DS_:
                      02125         .line   970; ../../RF24Network_c.c      if(header->to_node == writeDirect){
000160 50??           02126         MOVF    r0x04, W
000162 18??           02127         XORWF   r0x08, W
gpasm-1.4.0 #1107 (May  9 2015) build/sdcc/pr   12-5-2016  17:29:30         PAGE 46


LOC    OBJECT CODE    LINE  SOURCE TEXT
  VALUE

000164 E1??           02128         BNZ     _00679_DS_
000166 50??           02129         MOVF    r0x05, W
000168 18??           02130         XORWF   r0x09, W
00016A E0??           02131         BZ      _00680_DS_
00016C                02132 _00679_DS_:
00016C D???           02133         BRA     _00658_DS_
00016E                02134 _00680_DS_:
                      02135         .line   971; ../../RF24Network_c.c      sendType = USER_TX_TO_PHYSICAL_ADDRESS; // Payload is mu
                            lticast to the first node, which is the recipient
00016E 0E02           02136         MOVLW   0x02
Message[1301]: Using default destination of 0 (Access Bank).
000170 6E??           02137         MOVWF   r0x03
000172                02138 _00658_DS_:
                      02139         .line   973; ../../RF24Network_c.c      return RF24N_write(writeDirect,sendType);               
                                            
000172 50??           02140         MOVF    r0x03, W
Message[1301]: Using default destination of 0 (Access Bank).
000174 6EE5           02141         MOVWF   POSTDEC1
000176 50??           02142         MOVF    r0x09, W
Message[1301]: Using default destination of 0 (Access Bank).
000178 6EE5           02143         MOVWF   POSTDEC1
00017A 50??           02144         MOVF    r0x08, W
Message[1301]: Using default destination of 0 (Access Bank).
00017C 6EE5           02145         MOVWF   POSTDEC1
00017E EC?? F0??      02146         CALL    _RF24N_write
Message[1301]: Using default destination of 0 (Access Bank).
000182 6E??           02147         MOVWF   r0x03
000184 0E03           02148         MOVLW   0x03
000186 26E1           02149         ADDWF   FSR1L, F
000188 50??           02150         MOVF    r0x03, W
00018A D???           02151         BRA     _00661_DS_
00018C                02152 _00660_DS_:
                      02153         .line   975; ../../RF24Network_c.c      return RF24N_write(header->to_node,TX_NORMAL);
00018C 0E02           02154         MOVLW   0x02
00018E 26??           02155         ADDWF   r0x00, F
000190 0E00           02156         MOVLW   0x00
000192 22??           02157         ADDWFC  r0x01, F
000194 22??           02158         ADDWFC  r0x02, F
000196 C??? F???      02159         MOVFF   r0x00, FSR0L
00019A C??? F???      02160         MOVFF   r0x01, PRODL
00019E 50??           02161         MOVF    r0x02, W
0001A0 EC?? F0??      02162         CALL    __gptrget2
Message[1301]: Using default destination of 0 (Access Bank).
0001A4 6E??           02163         MOVWF   r0x00
0001A6 CFF3 F000      02164         MOVFF   PRODL, r0x01
0001AA 0E00           02165         MOVLW   0x00
Message[1301]: Using default destination of 0 (Access Bank).
0001AC 6EE5           02166         MOVWF   POSTDEC1
0001AE 50??           02167         MOVF    r0x01, W
Message[1301]: Using default destination of 0 (Access Bank).
0001B0 6EE5           02168         MOVWF   POSTDEC1
0001B2 50??           02169         MOVF    r0x00, W
Message[1301]: Using default destination of 0 (Access Bank).
gpasm-1.4.0 #1107 (May  9 2015) build/sdcc/pr   12-5-2016  17:29:30         PAGE 47


LOC    OBJECT CODE    LINE  SOURCE TEXT
  VALUE

0001B4 6EE5           02170         MOVWF   POSTDEC1
0001B6 EC?? F0??      02171         CALL    _RF24N_write
Message[1301]: Using default destination of 0 (Access Bank).
0001BA 6E??           02172         MOVWF   r0x00
0001BC 0E03           02173         MOVLW   0x03
0001BE 26E1           02174         ADDWF   FSR1L, F
0001C0 50??           02175         MOVF    r0x00, W
0001C2                02176 _00661_DS_:
0001C2 CFE4 F000      02177         MOVFF   PREINC1, r0x0f
0001C6 CFE4 F000      02178         MOVFF   PREINC1, r0x0e
0001CA CFE4 F000      02179         MOVFF   PREINC1, r0x0d
0001CE CFE4 F000      02180         MOVFF   PREINC1, r0x0c
0001D2 CFE4 F000      02181         MOVFF   PREINC1, r0x0b
0001D6 CFE4 F000      02182         MOVFF   PREINC1, r0x0a
0001DA CFE4 F000      02183         MOVFF   PREINC1, r0x09
0001DE CFE4 F000      02184         MOVFF   PREINC1, r0x08
0001E2 CFE4 F000      02185         MOVFF   PREINC1, r0x07
0001E6 CFE4 F000      02186         MOVFF   PREINC1, r0x06
0001EA CFE4 F000      02187         MOVFF   PREINC1, r0x05
0001EE CFE4 F000      02188         MOVFF   PREINC1, r0x04
0001F2 CFE4 F000      02189         MOVFF   PREINC1, r0x03
0001F6 CFE4 F000      02190         MOVFF   PREINC1, r0x02
0001FA CFE4 F000      02191         MOVFF   PREINC1, r0x01
0001FE CFE4 F000      02192         MOVFF   PREINC1, r0x00
000202 CFE4 FFD9      02193         MOVFF   PREINC1, FSR2L
000206 0012           02194         RETURN  
                      02195 
                      02196 ; ; Starting pCode block
                      02197 S_RF24Network_c__RF24N_write_   code
000000                02198 _RF24N_write_:
                      02199         .line   795; ../../RF24Network_c.c      uint8_t RF24N_write_( RF24NetworkHeader* header,const vo
                            id* message, uint16_t len, uint16_t writeDirect){
000000 CFD9 FFE5      02200         MOVFF   FSR2L, POSTDEC1
000004 CFE1 FFD9      02201         MOVFF   FSR1L, FSR2L
000008 C??? F???      02202         MOVFF   r0x00, POSTDEC1
00000C C??? F???      02203         MOVFF   r0x01, POSTDEC1
000010 C??? F???      02204         MOVFF   r0x02, POSTDEC1
000014 C??? F???      02205         MOVFF   r0x03, POSTDEC1
000018 C??? F???      02206         MOVFF   r0x04, POSTDEC1
00001C C??? F???      02207         MOVFF   r0x05, POSTDEC1
000020 C??? F???      02208         MOVFF   r0x06, POSTDEC1
000024 C??? F???      02209         MOVFF   r0x07, POSTDEC1
000028 C??? F???      02210         MOVFF   r0x08, POSTDEC1
00002C C??? F???      02211         MOVFF   r0x09, POSTDEC1
000030 C??? F???      02212         MOVFF   r0x0a, POSTDEC1
000034 C??? F???      02213         MOVFF   r0x0b, POSTDEC1
000038 C??? F???      02214         MOVFF   r0x0c, POSTDEC1
00003C C??? F???      02215         MOVFF   r0x0d, POSTDEC1
000040 C??? F???      02216         MOVFF   r0x0e, POSTDEC1
000044 C??? F???      02217         MOVFF   r0x0f, POSTDEC1
000048 C??? F???      02218         MOVFF   r0x10, POSTDEC1
00004C C??? F???      02219         MOVFF   r0x11, POSTDEC1
000050 C??? F???      02220         MOVFF   r0x12, POSTDEC1
gpasm-1.4.0 #1107 (May  9 2015) build/sdcc/pr   12-5-2016  17:29:30         PAGE 48


LOC    OBJECT CODE    LINE  SOURCE TEXT
  VALUE

000054 C??? F???      02221         MOVFF   r0x13, POSTDEC1
000058 C??? F???      02222         MOVFF   r0x14, POSTDEC1
00005C C??? F???      02223         MOVFF   r0x15, POSTDEC1
000060 C??? F???      02224         MOVFF   r0x16, POSTDEC1
000064 C??? F???      02225         MOVFF   r0x17, POSTDEC1
000068 C??? F???      02226         MOVFF   r0x18, POSTDEC1
00006C C??? F???      02227         MOVFF   r0x19, POSTDEC1
000070 C??? F???      02228         MOVFF   r0x1a, POSTDEC1
000074 0E02           02229         MOVLW   0x02
000076 CFDB F000      02230         MOVFF   PLUSW2, r0x00
00007A 0E03           02231         MOVLW   0x03
00007C CFDB F000      02232         MOVFF   PLUSW2, r0x01
000080 0E04           02233         MOVLW   0x04
000082 CFDB F000      02234         MOVFF   PLUSW2, r0x02
000086 0E05           02235         MOVLW   0x05
000088 CFDB F000      02236         MOVFF   PLUSW2, r0x03
00008C 0E06           02237         MOVLW   0x06
00008E CFDB F000      02238         MOVFF   PLUSW2, r0x04
000092 0E07           02239         MOVLW   0x07
000094 CFDB F000      02240         MOVFF   PLUSW2, r0x05
000098 0E08           02241         MOVLW   0x08
00009A CFDB F000      02242         MOVFF   PLUSW2, r0x06
00009E 0E09           02243         MOVLW   0x09
0000A0 CFDB F000      02244         MOVFF   PLUSW2, r0x07
0000A4 0E0A           02245         MOVLW   0x0a
0000A6 CFDB F000      02246         MOVFF   PLUSW2, r0x08
0000AA 0E0B           02247         MOVLW   0x0b
0000AC CFDB F000      02248         MOVFF   PLUSW2, r0x09
0000B0                02249 _00547_DS_:
                      02250         .line   803; ../../RF24Network_c.c      while(millis()-rn.txTime < 25){ if(RF24N_update() > 127)
                            {break;} }
0000B0 EC?? F0??      02251         CALL    _millis
Message[1301]: Using default destination of 0 (Access Bank).
0000B4 6E??           02252         MOVWF   r0x0a
0000B6 CFF3 F000      02253         MOVFF   PRODL, r0x0b
0000BA CFF4 F000      02254         MOVFF   PRODH, r0x0c
0000BE CFE9 F000      02255         MOVFF   FSR0L, r0x0d
0000C2 ????           02256         BANKSEL (_rn + 44)
0000C4 51??           02257         MOVF    (_rn + 44), W, B
0000C6 5E??           02258         SUBWF   r0x0a, F
0000C8 ????           02259         BANKSEL (_rn + 45)
0000CA 51??           02260         MOVF    (_rn + 45), W, B
0000CC 5A??           02261         SUBWFB  r0x0b, F
0000CE ????           02262         BANKSEL (_rn + 46)
0000D0 51??           02263         MOVF    (_rn + 46), W, B
0000D2 5A??           02264         SUBWFB  r0x0c, F
0000D4 ????           02265         BANKSEL (_rn + 47)
0000D6 51??           02266         MOVF    (_rn + 47), W, B
0000D8 5A??           02267         SUBWFB  r0x0d, F
0000DA 0E00           02268         MOVLW   0x00
0000DC 5C??           02269         SUBWF   r0x0d, W
0000DE E1??           02270         BNZ     _00637_DS_
0000E0 0E00           02271         MOVLW   0x00
gpasm-1.4.0 #1107 (May  9 2015) build/sdcc/pr   12-5-2016  17:29:30         PAGE 49


LOC    OBJECT CODE    LINE  SOURCE TEXT
  VALUE

0000E2 5C??           02272         SUBWF   r0x0c, W
0000E4 E1??           02273         BNZ     _00637_DS_
0000E6 0E00           02274         MOVLW   0x00
0000E8 5C??           02275         SUBWF   r0x0b, W
0000EA E1??           02276         BNZ     _00637_DS_
0000EC 0E19           02277         MOVLW   0x19
0000EE 5C??           02278         SUBWF   r0x0a, W
0000F0                02279 _00637_DS_:
0000F0 E2??           02280         BC      _00549_DS_
0000F2 EC?? F0??      02281         CALL    _RF24N_update
Message[1301]: Using default destination of 0 (Access Bank).
0000F6 6E??           02282         MOVWF   r0x0a
0000F8 0E80           02283         MOVLW   0x80
0000FA 5C??           02284         SUBWF   r0x0a, W
0000FC E3??           02285         BNC     _00547_DS_
0000FE                02286 _00549_DS_:
                      02287         .line   804; ../../RF24Network_c.c      delayMicroseconds(200);
0000FE 0EC8           02288         MOVLW   0xc8
Message[1301]: Using default destination of 0 (Access Bank).
000100 6EE5           02289         MOVWF   POSTDEC1
000102 EC?? F0??      02290         CALL    _delayMicroseconds
000106 52E6           02291         MOVF    POSTINC1, F
                      02292         .line   812; ../../RF24Network_c.c      if(len <= rn.max_frame_payload_size){
000108 C??? F???      02293         MOVFF   (_rn + 52), r0x0a
00010C C??? F???      02294         MOVFF   (_rn + 53), r0x0b
000110 50??           02295         MOVF    r0x07, W
000112 5C??           02296         SUBWF   r0x0b, W
000114 E1??           02297         BNZ     _00639_DS_
000116 50??           02298         MOVF    r0x06, W
000118 5C??           02299         SUBWF   r0x0a, W
00011A                02300 _00639_DS_:
00011A A0D8           02301         BTFSS   STATUS, 0
00011C D???           02302         BRA     _00553_DS_
                      02303         .line   814; ../../RF24Network_c.c      rn.frame_size = len + sizeof(RF24NetworkHeader);
00011E 50??           02304         MOVF    r0x06, W
Message[1301]: Using default destination of 0 (Access Bank).
000120 6E??           02305         MOVWF   r0x0c
000122 0E08           02306         MOVLW   0x08
000124 26??           02307         ADDWF   r0x0c, F
000126 50??           02308         MOVF    r0x0c, W
000128 ????           02309         BANKSEL (_rn + 51)
00012A 6F??           02310         MOVWF   (_rn + 51), B
                      02311         .line   815; ../../RF24Network_c.c      if(RF24N__write(header,message,len,writeDirect)){
00012C 50??           02312         MOVF    r0x09, W
Message[1301]: Using default destination of 0 (Access Bank).
00012E 6EE5           02313         MOVWF   POSTDEC1
000130 50??           02314         MOVF    r0x08, W
Message[1301]: Using default destination of 0 (Access Bank).
000132 6EE5           02315         MOVWF   POSTDEC1
000134 50??           02316         MOVF    r0x07, W
Message[1301]: Using default destination of 0 (Access Bank).
000136 6EE5           02317         MOVWF   POSTDEC1
000138 50??           02318         MOVF    r0x06, W
gpasm-1.4.0 #1107 (May  9 2015) build/sdcc/pr   12-5-2016  17:29:30         PAGE 50


LOC    OBJECT CODE    LINE  SOURCE TEXT
  VALUE

Message[1301]: Using default destination of 0 (Access Bank).
00013A 6EE5           02319         MOVWF   POSTDEC1
00013C 50??           02320         MOVF    r0x05, W
Message[1301]: Using default destination of 0 (Access Bank).
00013E 6EE5           02321         MOVWF   POSTDEC1
000140 50??           02322         MOVF    r0x04, W
Message[1301]: Using default destination of 0 (Access Bank).
000142 6EE5           02323         MOVWF   POSTDEC1
000144 50??           02324         MOVF    r0x03, W
Message[1301]: Using default destination of 0 (Access Bank).
000146 6EE5           02325         MOVWF   POSTDEC1
000148 50??           02326         MOVF    r0x02, W
Message[1301]: Using default destination of 0 (Access Bank).
00014A 6EE5           02327         MOVWF   POSTDEC1
00014C 50??           02328         MOVF    r0x01, W
Message[1301]: Using default destination of 0 (Access Bank).
00014E 6EE5           02329         MOVWF   POSTDEC1
000150 50??           02330         MOVF    r0x00, W
Message[1301]: Using default destination of 0 (Access Bank).
000152 6EE5           02331         MOVWF   POSTDEC1
000154 EC?? F0??      02332         CALL    _RF24N__write
Message[1301]: Using default destination of 0 (Access Bank).
000158 6E??           02333         MOVWF   r0x0c
00015A 0E0A           02334         MOVLW   0x0a
00015C 26E1           02335         ADDWF   FSR1L, F
00015E 50??           02336         MOVF    r0x0c, W
000160 E0??           02337         BZ      _00551_DS_
                      02338         .line   816; ../../RF24Network_c.c      return 1;
000162 0E01           02339         MOVLW   0x01
000164 D???           02340         BRA     _00579_DS_
000166                02341 _00551_DS_:
                      02342         .line   818; ../../RF24Network_c.c      rn.txTime = millis();
000166 EC?? F0??      02343         CALL    _millis
Message[1301]: Using default destination of 0 (Access Bank).
00016A 6E??           02344         MOVWF   r0x0c
00016C CFF3 F000      02345         MOVFF   PRODL, r0x0d
000170 CFF4 F000      02346         MOVFF   PRODH, r0x0e
000174 CFE9 F000      02347         MOVFF   FSR0L, r0x0f
000178 50??           02348         MOVF    r0x0c, W
00017A ????           02349         BANKSEL (_rn + 44)
00017C 6F??           02350         MOVWF   (_rn + 44), B
00017E 50??           02351         MOVF    r0x0d, W
000180 ????           02352         BANKSEL (_rn + 45)
000182 6F??           02353         MOVWF   (_rn + 45), B
000184 50??           02354         MOVF    r0x0e, W
000186 ????           02355         BANKSEL (_rn + 46)
000188 6F??           02356         MOVWF   (_rn + 46), B
00018A 50??           02357         MOVF    r0x0f, W
00018C ????           02358         BANKSEL (_rn + 47)
00018E 6F??           02359         MOVWF   (_rn + 47), B
                      02360         .line   819; ../../RF24Network_c.c      return 0;
Message[1301]: Using default destination of 0 (Access Bank).
000190 6AE8           02361         CLRF    WREG
gpasm-1.4.0 #1107 (May  9 2015) build/sdcc/pr   12-5-2016  17:29:30         PAGE 51


LOC    OBJECT CODE    LINE  SOURCE TEXT
  VALUE

000192 D???           02362         BRA     _00579_DS_
000194                02363 _00553_DS_:
                      02364         .line   822; ../../RF24Network_c.c      if (len > MAX_PAYLOAD_SIZE) {
000194 0E00           02365         MOVLW   0x00
000196 5C??           02366         SUBWF   r0x07, W
000198 E1??           02367         BNZ     _00640_DS_
00019A 0E91           02368         MOVLW   0x91
00019C 5C??           02369         SUBWF   r0x06, W
00019E                02370 _00640_DS_:
00019E E3??           02371         BNC     _00555_DS_
                      02372         .line   824; ../../RF24Network_c.c      return 0;
Message[1301]: Using default destination of 0 (Access Bank).
0001A0 6AE8           02373         CLRF    WREG
0001A2 D???           02374         BRA     _00579_DS_
0001A4                02375 _00555_DS_:
                      02376         .line   828; ../../RF24Network_c.c      fragment_id = (len % rn.max_frame_payload_size != 0) + (
                            (len ) / rn.max_frame_payload_size);  //the number of fragments to send = ceil(len/max_frame_payload_siz
                            e)
0001A4 50??           02377         MOVF    r0x0b, W
Message[1301]: Using default destination of 0 (Access Bank).
0001A6 6EE5           02378         MOVWF   POSTDEC1
0001A8 50??           02379         MOVF    r0x0a, W
Message[1301]: Using default destination of 0 (Access Bank).
0001AA 6EE5           02380         MOVWF   POSTDEC1
0001AC 50??           02381         MOVF    r0x07, W
Message[1301]: Using default destination of 0 (Access Bank).
0001AE 6EE5           02382         MOVWF   POSTDEC1
0001B0 50??           02383         MOVF    r0x06, W
Message[1301]: Using default destination of 0 (Access Bank).
0001B2 6EE5           02384         MOVWF   POSTDEC1
0001B4 EC?? F0??      02385         CALL    __moduint
Message[1301]: Using default destination of 0 (Access Bank).
0001B8 6E??           02386         MOVWF   r0x0c
0001BA CFF3 F000      02387         MOVFF   PRODL, r0x0d
0001BE 0E04           02388         MOVLW   0x04
0001C0 26E1           02389         ADDWF   FSR1L, F
0001C2 50??           02390         MOVF    r0x0c, W
0001C4 10??           02391         IORWF   r0x0d, W
0001C6 E0??           02392         BZ      _00581_DS_
0001C8 0E01           02393         MOVLW   0x01
Message[1301]: Using default destination of 0 (Access Bank).
0001CA 6E??           02394         MOVWF   r0x0c
0001CC D???           02395         BRA     _00582_DS_
0001CE                02396 _00581_DS_:
Message[1301]: Using default destination of 0 (Access Bank).
0001CE 6A??           02397         CLRF    r0x0c
0001D0                02398 _00582_DS_:
0001D0 50??           02399         MOVF    r0x0b, W
Message[1301]: Using default destination of 0 (Access Bank).
0001D2 6EE5           02400         MOVWF   POSTDEC1
0001D4 50??           02401         MOVF    r0x0a, W
Message[1301]: Using default destination of 0 (Access Bank).
0001D6 6EE5           02402         MOVWF   POSTDEC1
gpasm-1.4.0 #1107 (May  9 2015) build/sdcc/pr   12-5-2016  17:29:30         PAGE 52


LOC    OBJECT CODE    LINE  SOURCE TEXT
  VALUE

0001D8 50??           02403         MOVF    r0x07, W
Message[1301]: Using default destination of 0 (Access Bank).
0001DA 6EE5           02404         MOVWF   POSTDEC1
0001DC 50??           02405         MOVF    r0x06, W
Message[1301]: Using default destination of 0 (Access Bank).
0001DE 6EE5           02406         MOVWF   POSTDEC1
0001E0 EC?? F0??      02407         CALL    __divuint
Message[1301]: Using default destination of 0 (Access Bank).
0001E4 6E??           02408         MOVWF   r0x0a
0001E6 CFF3 F000      02409         MOVFF   PRODL, r0x0b
0001EA 0E04           02410         MOVLW   0x04
0001EC 26E1           02411         ADDWF   FSR1L, F
0001EE 50??           02412         MOVF    r0x0c, W
0001F0 26??           02413         ADDWF   r0x0a, F
                      02414         .line   834; ../../RF24Network_c.c      if(header->to_node != 0100){
0001F2 50??           02415         MOVF    r0x00, W
0001F4 0F02           02416         ADDLW   0x02
Message[1301]: Using default destination of 0 (Access Bank).
0001F6 6E??           02417         MOVWF   r0x0b
0001F8 0E00           02418         MOVLW   0x00
0001FA 20??           02419         ADDWFC  r0x01, W
Message[1301]: Using default destination of 0 (Access Bank).
0001FC 6E??           02420         MOVWF   r0x0c
0001FE 0E00           02421         MOVLW   0x00
000200 20??           02422         ADDWFC  r0x02, W
Message[1301]: Using default destination of 0 (Access Bank).
000202 6E??           02423         MOVWF   r0x0d
000204 C??? F???      02424         MOVFF   r0x0b, FSR0L
000208 C??? F???      02425         MOVFF   r0x0c, PRODL
00020C 50??           02426         MOVF    r0x0d, W
00020E EC?? F0??      02427         CALL    __gptrget2
Message[1301]: Using default destination of 0 (Access Bank).
000212 6E??           02428         MOVWF   r0x0b
000214 CFF3 F000      02429         MOVFF   PRODL, r0x0c
000218 50??           02430         MOVF    r0x0b, W
00021A 0A40           02431         XORLW   0x40
00021C E1??           02432         BNZ     _00642_DS_
00021E 50??           02433         MOVF    r0x0c, W
000220 E0??           02434         BZ      _00557_DS_
000222                02435 _00642_DS_:
                      02436         .line   835; ../../RF24Network_c.c      rn.networkFlags |= FLAG_FAST_FRAG;
000222 0E04           02437         MOVLW   0x04
000224 ????           02438         BANKSEL (_rn + 43)
000226 11??           02439         IORWF   (_rn + 43), W, B
Message[1301]: Using default destination of 0 (Access Bank).
000228 6E??           02440         MOVWF   r0x0b
00022A 50??           02441         MOVF    r0x0b, W
00022C ????           02442         BANKSEL (_rn + 43)
00022E 6F??           02443         MOVWF   (_rn + 43), B
                      02444         .line   837; ../../RF24Network_c.c      RF24_stopListening();
000230 EC?? F0??      02445         CALL    _RF24_stopListening
000234                02446 _00557_DS_:
                      02447         .line   841; ../../RF24Network_c.c      retriesPerFrag = 0;
gpasm-1.4.0 #1107 (May  9 2015) build/sdcc/pr   12-5-2016  17:29:30         PAGE 53


LOC    OBJECT CODE    LINE  SOURCE TEXT
  VALUE

Message[1301]: Using default destination of 0 (Access Bank).
000234 6A??           02448         CLRF    r0x0b
                      02449         .line   842; ../../RF24Network_c.c      type = header->type;
000236 50??           02450         MOVF    r0x00, W
000238 0F06           02451         ADDLW   0x06
Message[1301]: Using default destination of 0 (Access Bank).
00023A 6E??           02452         MOVWF   r0x0c
00023C 0E00           02453         MOVLW   0x00
00023E 20??           02454         ADDWFC  r0x01, W
Message[1301]: Using default destination of 0 (Access Bank).
000240 6E??           02455         MOVWF   r0x0d
000242 0E00           02456         MOVLW   0x00
000244 20??           02457         ADDWFC  r0x02, W
Message[1301]: Using default destination of 0 (Access Bank).
000246 6E??           02458         MOVWF   r0x0e
000248 C??? F???      02459         MOVFF   r0x0c, FSR0L
00024C C??? F???      02460         MOVFF   r0x0d, PRODL
000250 50??           02461         MOVF    r0x0e, W
000252 EC?? F0??      02462         CALL    __gptrget1
Message[1301]: Using default destination of 0 (Access Bank).
000256 6E??           02463         MOVWF   r0x0f
                      02464         .line   843; ../../RF24Network_c.c      ok = 0;
Message[1301]: Using default destination of 0 (Access Bank).
000258 6A??           02465         CLRF    r0x10
                      02466         .line   845; ../../RF24Network_c.c      while (fragment_id > 0) {
00025A C??? F???      02467         MOVFF   r0x0a, r0x11
Message[1301]: Using default destination of 0 (Access Bank).
00025E 6A??           02468         CLRF    r0x12
000260                02469 _00570_DS_:
000260 50??           02470         MOVF    r0x11, W
000262 B4D8           02471         BTFSC   STATUS, 2
000264 D???           02472         BRA     _00602_DS_
                      02473         .line   851; ../../RF24Network_c.c      header->reserved = fragment_id;
000266 50??           02474         MOVF    r0x00, W
000268 0F07           02475         ADDLW   0x07
Message[1301]: Using default destination of 0 (Access Bank).
00026A 6E??           02476         MOVWF   r0x13
00026C 0E00           02477         MOVLW   0x00
00026E 20??           02478         ADDWFC  r0x01, W
Message[1301]: Using default destination of 0 (Access Bank).
000270 6E??           02479         MOVWF   r0x14
000272 0E00           02480         MOVLW   0x00
000274 20??           02481         ADDWFC  r0x02, W
Message[1301]: Using default destination of 0 (Access Bank).
000276 6E??           02482         MOVWF   r0x15
000278 C??? F???      02483         MOVFF   r0x11, POSTDEC1
00027C C??? F???      02484         MOVFF   r0x13, FSR0L
000280 C??? F???      02485         MOVFF   r0x14, PRODL
000284 50??           02486         MOVF    r0x15, W
000286 EC?? F0??      02487         CALL    __gptrput1
                      02488         .line   853; ../../RF24Network_c.c      if (fragment_id == 1) {
00028A 50??           02489         MOVF    r0x11, W
00028C 0A01           02490         XORLW   0x01
gpasm-1.4.0 #1107 (May  9 2015) build/sdcc/pr   12-5-2016  17:29:30         PAGE 54


LOC    OBJECT CODE    LINE  SOURCE TEXT
  VALUE

00028E E1??           02491         BNZ     _00562_DS_
                      02492         .line   854; ../../RF24Network_c.c      header->type = NETWORK_LAST_FRAGMENT;  //Set the last fr
                            agment flag to indicate the last fragment
000290 0E96           02493         MOVLW   0x96
Message[1301]: Using default destination of 0 (Access Bank).
000292 6EE5           02494         MOVWF   POSTDEC1
000294 C??? F???      02495         MOVFF   r0x0c, FSR0L
000298 C??? F???      02496         MOVFF   r0x0d, PRODL
00029C 50??           02497         MOVF    r0x0e, W
00029E EC?? F0??      02498         CALL    __gptrput1
                      02499         .line   855; ../../RF24Network_c.c      header->reserved = type; //The reserved field is used to
                             transmit the header type
0002A2 C??? F???      02500         MOVFF   r0x0f, POSTDEC1
0002A6 C??? F???      02501         MOVFF   r0x13, FSR0L
0002AA C??? F???      02502         MOVFF   r0x14, PRODL
0002AE 50??           02503         MOVF    r0x15, W
0002B0 EC?? F0??      02504         CALL    __gptrput1
0002B4 D???           02505         BRA     _00563_DS_
0002B6                02506 _00562_DS_:
                      02507         .line   857; ../../RF24Network_c.c      if (msgCount == 0) {
0002B6 50??           02508         MOVF    r0x12, W
0002B8 E1??           02509         BNZ     _00559_DS_
                      02510         .line   858; ../../RF24Network_c.c      header->type = NETWORK_FIRST_FRAGMENT;
0002BA 0E94           02511         MOVLW   0x94
Message[1301]: Using default destination of 0 (Access Bank).
0002BC 6EE5           02512         MOVWF   POSTDEC1
0002BE C??? F???      02513         MOVFF   r0x0c, FSR0L
0002C2 C??? F???      02514         MOVFF   r0x0d, PRODL
0002C6 50??           02515         MOVF    r0x0e, W
0002C8 EC?? F0??      02516         CALL    __gptrput1
0002CC D???           02517         BRA     _00563_DS_
0002CE                02518 _00559_DS_:
                      02519         .line   860; ../../RF24Network_c.c      header->type = NETWORK_MORE_FRAGMENTS; //Set the more fr
                            agments flag to indicate a fragmented frame
0002CE 0E95           02520         MOVLW   0x95
Message[1301]: Using default destination of 0 (Access Bank).
0002D0 6EE5           02521         MOVWF   POSTDEC1
0002D2 C??? F???      02522         MOVFF   r0x0c, FSR0L
0002D6 C??? F???      02523         MOVFF   r0x0d, PRODL
0002DA 50??           02524         MOVF    r0x0e, W
0002DC EC?? F0??      02525         CALL    __gptrput1
0002E0                02526 _00563_DS_:
                      02527         .line   864; ../../RF24Network_c.c      offset = msgCount*rn.max_frame_payload_size;
0002E0 C??? F???      02528         MOVFF   (_rn + 52), r0x13
0002E4 C??? F???      02529         MOVFF   (_rn + 53), r0x14
0002E8 C??? F???      02530         MOVFF   r0x12, r0x15
Message[1301]: Using default destination of 0 (Access Bank).
0002EC 6A??           02531         CLRF    r0x16
0002EE 50??           02532         MOVF    r0x14, W
Message[1301]: Using default destination of 0 (Access Bank).
0002F0 6EE5           02533         MOVWF   POSTDEC1
0002F2 50??           02534         MOVF    r0x13, W
Message[1301]: Using default destination of 0 (Access Bank).
gpasm-1.4.0 #1107 (May  9 2015) build/sdcc/pr   12-5-2016  17:29:30         PAGE 55


LOC    OBJECT CODE    LINE  SOURCE TEXT
  VALUE

0002F4 6EE5           02535         MOVWF   POSTDEC1
0002F6 50??           02536         MOVF    r0x16, W
Message[1301]: Using default destination of 0 (Access Bank).
0002F8 6EE5           02537         MOVWF   POSTDEC1
0002FA 50??           02538         MOVF    r0x15, W
Message[1301]: Using default destination of 0 (Access Bank).
0002FC 6EE5           02539         MOVWF   POSTDEC1
0002FE EC?? F0??      02540         CALL    __mulint
Message[1301]: Using default destination of 0 (Access Bank).
000302 6E??           02541         MOVWF   r0x15
000304 CFF3 F000      02542         MOVFF   PRODL, r0x16
000308 0E04           02543         MOVLW   0x04
00030A 26E1           02544         ADDWF   FSR1L, F
                      02545         .line   865; ../../RF24Network_c.c      fragmentLen = rf24_min((uint16_t)(len-offset),rn.max_fra
                            me_payload_size);
00030C 50??           02546         MOVF    r0x15, W
00030E 5C??           02547         SUBWF   r0x06, W
Message[1301]: Using default destination of 0 (Access Bank).
000310 6E??           02548         MOVWF   r0x17
000312 50??           02549         MOVF    r0x16, W
000314 58??           02550         SUBWFB  r0x07, W
Message[1301]: Using default destination of 0 (Access Bank).
000316 6E??           02551         MOVWF   r0x18
000318 50??           02552         MOVF    r0x14, W
00031A 5C??           02553         SUBWF   r0x18, W
00031C E1??           02554         BNZ     _00646_DS_
00031E 50??           02555         MOVF    r0x13, W
000320 5C??           02556         SUBWF   r0x17, W
000322                02557 _00646_DS_:
000322 E3??           02558         BNC     _00584_DS_
000324 C??? F???      02559         MOVFF   r0x13, r0x17
000328 C??? F???      02560         MOVFF   r0x14, r0x18
00032C                02561 _00584_DS_:
                      02562         .line   868; ../../RF24Network_c.c      rn.frame_size = sizeof(RF24NetworkHeader)+fragmentLen;
00032C 50??           02563         MOVF    r0x17, W
Message[1301]: Using default destination of 0 (Access Bank).
00032E 6E??           02564         MOVWF   r0x13
000330 0E08           02565         MOVLW   0x08
000332 26??           02566         ADDWF   r0x13, F
000334 50??           02567         MOVF    r0x13, W
000336 ????           02568         BANKSEL (_rn + 51)
000338 6F??           02569         MOVWF   (_rn + 51), B
                      02570         .line   869; ../../RF24Network_c.c      ok = RF24N__write(header,((char *)message)+offset,fragme
                            ntLen,writeDirect);
00033A 50??           02571         MOVF    r0x05, W
Message[1301]: Using default destination of 0 (Access Bank).
00033C 6E??           02572         MOVWF   r0x19
00033E 50??           02573         MOVF    r0x04, W
Message[1301]: Using default destination of 0 (Access Bank).
000340 6E??           02574         MOVWF   r0x14
000342 50??           02575         MOVF    r0x03, W
Message[1301]: Using default destination of 0 (Access Bank).
000344 6E??           02576         MOVWF   r0x13
gpasm-1.4.0 #1107 (May  9 2015) build/sdcc/pr   12-5-2016  17:29:30         PAGE 56


LOC    OBJECT CODE    LINE  SOURCE TEXT
  VALUE

Message[1301]: Using default destination of 0 (Access Bank).
000346 6A??           02577         CLRF    r0x1a
000348 50??           02578         MOVF    r0x13, W
00034A 26??           02579         ADDWF   r0x15, F
00034C 50??           02580         MOVF    r0x14, W
00034E 22??           02581         ADDWFC  r0x16, F
000350 50??           02582         MOVF    r0x19, W
000352 22??           02583         ADDWFC  r0x1a, F
000354 50??           02584         MOVF    r0x1a, W
Message[1301]: Using default destination of 0 (Access Bank).
000356 6E??           02585         MOVWF   r0x1a
000358 50??           02586         MOVF    r0x16, W
Message[1301]: Using default destination of 0 (Access Bank).
00035A 6E??           02587         MOVWF   r0x16
00035C 50??           02588         MOVF    r0x15, W
Message[1301]: Using default destination of 0 (Access Bank).
00035E 6E??           02589         MOVWF   r0x15
000360 50??           02590         MOVF    r0x09, W
Message[1301]: Using default destination of 0 (Access Bank).
000362 6EE5           02591         MOVWF   POSTDEC1
000364 50??           02592         MOVF    r0x08, W
Message[1301]: Using default destination of 0 (Access Bank).
000366 6EE5           02593         MOVWF   POSTDEC1
000368 50??           02594         MOVF    r0x18, W
Message[1301]: Using default destination of 0 (Access Bank).
00036A 6EE5           02595         MOVWF   POSTDEC1
00036C 50??           02596         MOVF    r0x17, W
Message[1301]: Using default destination of 0 (Access Bank).
00036E 6EE5           02597         MOVWF   POSTDEC1
000370 50??           02598         MOVF    r0x1a, W
Message[1301]: Using default destination of 0 (Access Bank).
000372 6EE5           02599         MOVWF   POSTDEC1
000374 50??           02600         MOVF    r0x16, W
Message[1301]: Using default destination of 0 (Access Bank).
000376 6EE5           02601         MOVWF   POSTDEC1
000378 50??           02602         MOVF    r0x15, W
Message[1301]: Using default destination of 0 (Access Bank).
00037A 6EE5           02603         MOVWF   POSTDEC1
00037C 50??           02604         MOVF    r0x02, W
Message[1301]: Using default destination of 0 (Access Bank).
00037E 6EE5           02605         MOVWF   POSTDEC1
000380 50??           02606         MOVF    r0x01, W
Message[1301]: Using default destination of 0 (Access Bank).
000382 6EE5           02607         MOVWF   POSTDEC1
000384 50??           02608         MOVF    r0x00, W
Message[1301]: Using default destination of 0 (Access Bank).
000386 6EE5           02609         MOVWF   POSTDEC1
000388 EC?? F0??      02610         CALL    _RF24N__write
Message[1301]: Using default destination of 0 (Access Bank).
00038C 6E??           02611         MOVWF   r0x10
00038E 0E0A           02612         MOVLW   0x0a
000390 26E1           02613         ADDWF   FSR1L, F
                      02614         .line   871; ../../RF24Network_c.c      if (!ok) {
gpasm-1.4.0 #1107 (May  9 2015) build/sdcc/pr   12-5-2016  17:29:30         PAGE 57


LOC    OBJECT CODE    LINE  SOURCE TEXT
  VALUE

000392 50??           02615         MOVF    r0x10, W
000394 E1??           02616         BNZ     _00565_DS_
                      02617         .line   872; ../../RF24Network_c.c      delay(2);
000396 0E00           02618         MOVLW   0x00
Message[1301]: Using default destination of 0 (Access Bank).
000398 6EE5           02619         MOVWF   POSTDEC1
00039A 0E02           02620         MOVLW   0x02
Message[1301]: Using default destination of 0 (Access Bank).
00039C 6EE5           02621         MOVWF   POSTDEC1
00039E EC?? F0??      02622         CALL    _delay
0003A2 52E6           02623         MOVF    POSTINC1, F
0003A4 52E6           02624         MOVF    POSTINC1, F
                      02625         .line   873; ../../RF24Network_c.c      ++retriesPerFrag;
0003A6 2A??           02626         INCF    r0x0b, F
0003A8 D???           02627         BRA     _00566_DS_
0003AA                02628 _00565_DS_:
                      02629         .line   876; ../../RF24Network_c.c      retriesPerFrag = 0;
Message[1301]: Using default destination of 0 (Access Bank).
0003AA 6A??           02630         CLRF    r0x0b
                      02631         .line   877; ../../RF24Network_c.c      fragment_id--;
0003AC 06??           02632         DECF    r0x11, F
                      02633         .line   878; ../../RF24Network_c.c      msgCount++;
0003AE 2A??           02634         INCF    r0x12, F
0003B0                02635 _00566_DS_:
                      02636         .line   883; ../../RF24Network_c.c      if (!ok && retriesPerFrag >= 3) {
0003B0 50??           02637         MOVF    r0x10, W
0003B2 A4D8           02638         BTFSS   STATUS, 2
0003B4 D???           02639         BRA     _00570_DS_
0003B6 0E03           02640         MOVLW   0x03
0003B8 5C??           02641         SUBWF   r0x0b, W
0003BA A0D8           02642         BTFSS   STATUS, 0
0003BC D???           02643         BRA     _00570_DS_
0003BE                02644 _00602_DS_:
                      02645         .line   885; ../../RF24Network_c.c      break;
0003BE C??? F???      02646         MOVFF   r0x11, r0x0a
                      02647         .line   896; ../../RF24Network_c.c      header->type = type;
0003C2 C??? F???      02648         MOVFF   r0x0f, POSTDEC1
0003C6 C??? F???      02649         MOVFF   r0x0c, FSR0L
0003CA C??? F???      02650         MOVFF   r0x0d, PRODL
0003CE 50??           02651         MOVF    r0x0e, W
0003D0 EC?? F0??      02652         CALL    __gptrput1
0003D4 ????           02653         BANKSEL (_rn + 43)
                      02654         .line   898; ../../RF24Network_c.c      if(rn.networkFlags & FLAG_FAST_FRAG){   
0003D6 A4??           02655         BTFSS   (_rn + 43), 2
0003D8 D???           02656         BRA     _00574_DS_
                      02657         .line   899; ../../RF24Network_c.c      ok = RF24_txStandBy_t(rn.txTimeout,0);  
0003DA 0E00           02658         MOVLW   0x00
Message[1301]: Using default destination of 0 (Access Bank).
0003DC 6EE5           02659         MOVWF   POSTDEC1
0003DE ????           02660         BANKSEL (_rn + 4)
0003E0 51??           02661         MOVF    (_rn + 4), W, B
Message[1301]: Using default destination of 0 (Access Bank).
0003E2 6EE5           02662         MOVWF   POSTDEC1
gpasm-1.4.0 #1107 (May  9 2015) build/sdcc/pr   12-5-2016  17:29:30         PAGE 58


LOC    OBJECT CODE    LINE  SOURCE TEXT
  VALUE

0003E4 ????           02663         BANKSEL (_rn + 3)
0003E6 51??           02664         MOVF    (_rn + 3), W, B
Message[1301]: Using default destination of 0 (Access Bank).
0003E8 6EE5           02665         MOVWF   POSTDEC1
0003EA ????           02666         BANKSEL (_rn + 2)
0003EC 51??           02667         MOVF    (_rn + 2), W, B
Message[1301]: Using default destination of 0 (Access Bank).
0003EE 6EE5           02668         MOVWF   POSTDEC1
0003F0 ????           02669         BANKSEL (_rn + 1)
0003F2 51??           02670         MOVF    (_rn + 1), W, B
Message[1301]: Using default destination of 0 (Access Bank).
0003F4 6EE5           02671         MOVWF   POSTDEC1
0003F6 EC?? F0??      02672         CALL    _RF24_txStandBy_t
Message[1301]: Using default destination of 0 (Access Bank).
0003FA 6E??           02673         MOVWF   r0x10
0003FC 0E05           02674         MOVLW   0x05
0003FE 26E1           02675         ADDWF   FSR1L, F
                      02676         .line   900; ../../RF24Network_c.c      RF24_startListening();
000400 EC?? F0??      02677         CALL    _RF24_startListening
                      02678         .line   901; ../../RF24Network_c.c      RF24_setAutoAck_p(0,0);
000404 0E00           02679         MOVLW   0x00
Message[1301]: Using default destination of 0 (Access Bank).
000406 6EE5           02680         MOVWF   POSTDEC1
000408 0E00           02681         MOVLW   0x00
Message[1301]: Using default destination of 0 (Access Bank).
00040A 6EE5           02682         MOVWF   POSTDEC1
00040C EC?? F0??      02683         CALL    _RF24_setAutoAck_p
000410 52E6           02684         MOVF    POSTINC1, F
000412 52E6           02685         MOVF    POSTINC1, F
000414                02686 _00574_DS_:
                      02687         .line   903; ../../RF24Network_c.c      rn.networkFlags &= ~FLAG_FAST_FRAG;
000414 0EFB           02688         MOVLW   0xfb
000416 ????           02689         BANKSEL (_rn + 43)
000418 15??           02690         ANDWF   (_rn + 43), W, B
Message[1301]: Using default destination of 0 (Access Bank).
00041A 6E??           02691         MOVWF   r0x00
00041C 50??           02692         MOVF    r0x00, W
00041E ????           02693         BANKSEL (_rn + 43)
000420 6F??           02694         MOVWF   (_rn + 43), B
                      02695         .line   905; ../../RF24Network_c.c      if(!ok){
000422 50??           02696         MOVF    r0x10, W
000424 E1??           02697         BNZ     _00576_DS_
                      02698         .line   906; ../../RF24Network_c.c      return 0;
Message[1301]: Using default destination of 0 (Access Bank).
000426 6AE8           02699         CLRF    WREG
000428 D???           02700         BRA     _00579_DS_
00042A                02701 _00576_DS_:
                      02702         .line   915; ../../RF24Network_c.c      if(fragment_id > 0){
00042A 50??           02703         MOVF    r0x0a, W
00042C E0??           02704         BZ      _00578_DS_
                      02705         .line   916; ../../RF24Network_c.c      rn.txTime = millis();
00042E EC?? F0??      02706         CALL    _millis
Message[1301]: Using default destination of 0 (Access Bank).
gpasm-1.4.0 #1107 (May  9 2015) build/sdcc/pr   12-5-2016  17:29:30         PAGE 59


LOC    OBJECT CODE    LINE  SOURCE TEXT
  VALUE

000432 6E??           02707         MOVWF   r0x00
000434 CFF3 F000      02708         MOVFF   PRODL, r0x01
000438 CFF4 F000      02709         MOVFF   PRODH, r0x02
00043C CFE9 F000      02710         MOVFF   FSR0L, r0x03
000440 50??           02711         MOVF    r0x00, W
000442 ????           02712         BANKSEL (_rn + 44)
000444 6F??           02713         MOVWF   (_rn + 44), B
000446 50??           02714         MOVF    r0x01, W
000448 ????           02715         BANKSEL (_rn + 45)
00044A 6F??           02716         MOVWF   (_rn + 45), B
00044C 50??           02717         MOVF    r0x02, W
00044E ????           02718         BANKSEL (_rn + 46)
000450 6F??           02719         MOVWF   (_rn + 46), B
000452 50??           02720         MOVF    r0x03, W
000454 ????           02721         BANKSEL (_rn + 47)
000456 6F??           02722         MOVWF   (_rn + 47), B
                      02723         .line   917; ../../RF24Network_c.c      return 0;
Message[1301]: Using default destination of 0 (Access Bank).
000458 6AE8           02724         CLRF    WREG
00045A D???           02725         BRA     _00579_DS_
00045C                02726 _00578_DS_:
                      02727         .line   919; ../../RF24Network_c.c      return 1;
00045C 0E01           02728         MOVLW   0x01
00045E                02729 _00579_DS_:
00045E CFE4 F000      02730         MOVFF   PREINC1, r0x1a
000462 CFE4 F000      02731         MOVFF   PREINC1, r0x19
000466 CFE4 F000      02732         MOVFF   PREINC1, r0x18
00046A CFE4 F000      02733         MOVFF   PREINC1, r0x17
00046E CFE4 F000      02734         MOVFF   PREINC1, r0x16
000472 CFE4 F000      02735         MOVFF   PREINC1, r0x15
000476 CFE4 F000      02736         MOVFF   PREINC1, r0x14
00047A CFE4 F000      02737         MOVFF   PREINC1, r0x13
00047E CFE4 F000      02738         MOVFF   PREINC1, r0x12
000482 CFE4 F000      02739         MOVFF   PREINC1, r0x11
000486 CFE4 F000      02740         MOVFF   PREINC1, r0x10
00048A CFE4 F000      02741         MOVFF   PREINC1, r0x0f
00048E CFE4 F000      02742         MOVFF   PREINC1, r0x0e
000492 CFE4 F000      02743         MOVFF   PREINC1, r0x0d
000496 CFE4 F000      02744         MOVFF   PREINC1, r0x0c
00049A CFE4 F000      02745         MOVFF   PREINC1, r0x0b
00049E CFE4 F000      02746         MOVFF   PREINC1, r0x0a
0004A2 CFE4 F000      02747         MOVFF   PREINC1, r0x09
0004A6 CFE4 F000      02748         MOVFF   PREINC1, r0x08
0004AA CFE4 F000      02749         MOVFF   PREINC1, r0x07
0004AE CFE4 F000      02750         MOVFF   PREINC1, r0x06
0004B2 CFE4 F000      02751         MOVFF   PREINC1, r0x05
0004B6 CFE4 F000      02752         MOVFF   PREINC1, r0x04
0004BA CFE4 F000      02753         MOVFF   PREINC1, r0x03
0004BE CFE4 F000      02754         MOVFF   PREINC1, r0x02
0004C2 CFE4 F000      02755         MOVFF   PREINC1, r0x01
0004C6 CFE4 F000      02756         MOVFF   PREINC1, r0x00
0004CA CFE4 FFD9      02757         MOVFF   PREINC1, FSR2L
0004CE 0012           02758         RETURN  
gpasm-1.4.0 #1107 (May  9 2015) build/sdcc/pr   12-5-2016  17:29:30         PAGE 60


LOC    OBJECT CODE    LINE  SOURCE TEXT
  VALUE

                      02759 
                      02760 ; ; Starting pCode block
                      02761 S_RF24Network_c__RF24N_write_m  code
000000                02762 _RF24N_write_m:
                      02763         .line   791; ../../RF24Network_c.c      uint8_t RF24N_write_m(RF24NetworkHeader* header,const vo
                            id* message, uint16_t len){    
000000 CFD9 FFE5      02764         MOVFF   FSR2L, POSTDEC1
000004 CFE1 FFD9      02765         MOVFF   FSR1L, FSR2L
000008 C??? F???      02766         MOVFF   r0x00, POSTDEC1
00000C C??? F???      02767         MOVFF   r0x01, POSTDEC1
000010 C??? F???      02768         MOVFF   r0x02, POSTDEC1
000014 C??? F???      02769         MOVFF   r0x03, POSTDEC1
000018 C??? F???      02770         MOVFF   r0x04, POSTDEC1
00001C C??? F???      02771         MOVFF   r0x05, POSTDEC1
000020 C??? F???      02772         MOVFF   r0x06, POSTDEC1
000024 C??? F???      02773         MOVFF   r0x07, POSTDEC1
000028 0E02           02774         MOVLW   0x02
00002A CFDB F000      02775         MOVFF   PLUSW2, r0x00
00002E 0E03           02776         MOVLW   0x03
000030 CFDB F000      02777         MOVFF   PLUSW2, r0x01
000034 0E04           02778         MOVLW   0x04
000036 CFDB F000      02779         MOVFF   PLUSW2, r0x02
00003A 0E05           02780         MOVLW   0x05
00003C CFDB F000      02781         MOVFF   PLUSW2, r0x03
000040 0E06           02782         MOVLW   0x06
000042 CFDB F000      02783         MOVFF   PLUSW2, r0x04
000046 0E07           02784         MOVLW   0x07
000048 CFDB F000      02785         MOVFF   PLUSW2, r0x05
00004C 0E08           02786         MOVLW   0x08
00004E CFDB F000      02787         MOVFF   PLUSW2, r0x06
000052 0E09           02788         MOVLW   0x09
000054 CFDB F000      02789         MOVFF   PLUSW2, r0x07
                      02790         .line   792; ../../RF24Network_c.c      return RF24N_write_(header,message,len,070);
000058 0E00           02791         MOVLW   0x00
Message[1301]: Using default destination of 0 (Access Bank).
00005A 6EE5           02792         MOVWF   POSTDEC1
00005C 0E38           02793         MOVLW   0x38
Message[1301]: Using default destination of 0 (Access Bank).
00005E 6EE5           02794         MOVWF   POSTDEC1
000060 50??           02795         MOVF    r0x07, W
Message[1301]: Using default destination of 0 (Access Bank).
000062 6EE5           02796         MOVWF   POSTDEC1
000064 50??           02797         MOVF    r0x06, W
Message[1301]: Using default destination of 0 (Access Bank).
000066 6EE5           02798         MOVWF   POSTDEC1
000068 50??           02799         MOVF    r0x05, W
Message[1301]: Using default destination of 0 (Access Bank).
00006A 6EE5           02800         MOVWF   POSTDEC1
00006C 50??           02801         MOVF    r0x04, W
Message[1301]: Using default destination of 0 (Access Bank).
00006E 6EE5           02802         MOVWF   POSTDEC1
000070 50??           02803         MOVF    r0x03, W
Message[1301]: Using default destination of 0 (Access Bank).
gpasm-1.4.0 #1107 (May  9 2015) build/sdcc/pr   12-5-2016  17:29:30         PAGE 61


LOC    OBJECT CODE    LINE  SOURCE TEXT
  VALUE

000072 6EE5           02804         MOVWF   POSTDEC1
000074 50??           02805         MOVF    r0x02, W
Message[1301]: Using default destination of 0 (Access Bank).
000076 6EE5           02806         MOVWF   POSTDEC1
000078 50??           02807         MOVF    r0x01, W
Message[1301]: Using default destination of 0 (Access Bank).
00007A 6EE5           02808         MOVWF   POSTDEC1
00007C 50??           02809         MOVF    r0x00, W
Message[1301]: Using default destination of 0 (Access Bank).
00007E 6EE5           02810         MOVWF   POSTDEC1
000080 EC?? F0??      02811         CALL    _RF24N_write_
Message[1301]: Using default destination of 0 (Access Bank).
000084 6E??           02812         MOVWF   r0x00
000086 0E0A           02813         MOVLW   0x0a
000088 26E1           02814         ADDWF   FSR1L, F
00008A 50??           02815         MOVF    r0x00, W
00008C CFE4 F000      02816         MOVFF   PREINC1, r0x07
000090 CFE4 F000      02817         MOVFF   PREINC1, r0x06
000094 CFE4 F000      02818         MOVFF   PREINC1, r0x05
000098 CFE4 F000      02819         MOVFF   PREINC1, r0x04
00009C CFE4 F000      02820         MOVFF   PREINC1, r0x03
0000A0 CFE4 F000      02821         MOVFF   PREINC1, r0x02
0000A4 CFE4 F000      02822         MOVFF   PREINC1, r0x01
0000A8 CFE4 F000      02823         MOVFF   PREINC1, r0x00
0000AC CFE4 FFD9      02824         MOVFF   PREINC1, FSR2L
0000B0 0012           02825         RETURN  
                      02826 
                      02827 ; ; Starting pCode block
                      02828 S_RF24Network_c__RF24N_multicast        code
000000                02829 _RF24N_multicast:
                      02830         .line   782; ../../RF24Network_c.c      uint8_t RF24N_multicast(RF24NetworkHeader* header,const 
                            void* message, uint16_t len, uint8_t level){
000000 CFD9 FFE5      02831         MOVFF   FSR2L, POSTDEC1
000004 CFE1 FFD9      02832         MOVFF   FSR1L, FSR2L
000008 C??? F???      02833         MOVFF   r0x00, POSTDEC1
00000C C??? F???      02834         MOVFF   r0x01, POSTDEC1
000010 C??? F???      02835         MOVFF   r0x02, POSTDEC1
000014 C??? F???      02836         MOVFF   r0x03, POSTDEC1
000018 C??? F???      02837         MOVFF   r0x04, POSTDEC1
00001C C??? F???      02838         MOVFF   r0x05, POSTDEC1
000020 C??? F???      02839         MOVFF   r0x06, POSTDEC1
000024 C??? F???      02840         MOVFF   r0x07, POSTDEC1
000028 C??? F???      02841         MOVFF   r0x08, POSTDEC1
00002C C??? F???      02842         MOVFF   r0x09, POSTDEC1
000030 C??? F???      02843         MOVFF   r0x0a, POSTDEC1
000034 C??? F???      02844         MOVFF   r0x0b, POSTDEC1
000038 0E02           02845         MOVLW   0x02
00003A CFDB F000      02846         MOVFF   PLUSW2, r0x00
00003E 0E03           02847         MOVLW   0x03
000040 CFDB F000      02848         MOVFF   PLUSW2, r0x01
000044 0E04           02849         MOVLW   0x04
000046 CFDB F000      02850         MOVFF   PLUSW2, r0x02
00004A 0E05           02851         MOVLW   0x05
gpasm-1.4.0 #1107 (May  9 2015) build/sdcc/pr   12-5-2016  17:29:30         PAGE 62


LOC    OBJECT CODE    LINE  SOURCE TEXT
  VALUE

00004C CFDB F000      02852         MOVFF   PLUSW2, r0x03
000050 0E06           02853         MOVLW   0x06
000052 CFDB F000      02854         MOVFF   PLUSW2, r0x04
000056 0E07           02855         MOVLW   0x07
000058 CFDB F000      02856         MOVFF   PLUSW2, r0x05
00005C 0E08           02857         MOVLW   0x08
00005E CFDB F000      02858         MOVFF   PLUSW2, r0x06
000062 0E09           02859         MOVLW   0x09
000064 CFDB F000      02860         MOVFF   PLUSW2, r0x07
000068 0E0A           02861         MOVLW   0x0a
00006A CFDB F000      02862         MOVFF   PLUSW2, r0x08
                      02863         .line   784; ../../RF24Network_c.c      header->to_node = 0100;
00006E 50??           02864         MOVF    r0x00, W
000070 0F02           02865         ADDLW   0x02
Message[1301]: Using default destination of 0 (Access Bank).
000072 6E??           02866         MOVWF   r0x09
000074 0E00           02867         MOVLW   0x00
000076 20??           02868         ADDWFC  r0x01, W
Message[1301]: Using default destination of 0 (Access Bank).
000078 6E??           02869         MOVWF   r0x0a
00007A 0E00           02870         MOVLW   0x00
00007C 20??           02871         ADDWFC  r0x02, W
Message[1301]: Using default destination of 0 (Access Bank).
00007E 6E??           02872         MOVWF   r0x0b
000080 0E40           02873         MOVLW   0x40
Message[1301]: Using default destination of 0 (Access Bank).
000082 6EE5           02874         MOVWF   POSTDEC1
000084 0E00           02875         MOVLW   0x00
Message[1301]: Using default destination of 0 (Access Bank).
000086 6EF4           02876         MOVWF   PRODH
000088 C??? F???      02877         MOVFF   r0x09, FSR0L
00008C C??? F???      02878         MOVFF   r0x0a, PRODL
000090 50??           02879         MOVF    r0x0b, W
000092 EC?? F0??      02880         CALL    __gptrput2
                      02881         .line   785; ../../RF24Network_c.c      header->from_node = rn.node_address;
000096 C??? F???      02882         MOVFF   (_rn + 49), r0x09
00009A C??? F???      02883         MOVFF   (_rn + 50), r0x0a
00009E C??? F???      02884         MOVFF   r0x09, POSTDEC1
0000A2 C??? F???      02885         MOVFF   r0x0a, PRODH
0000A6 C??? F???      02886         MOVFF   r0x00, FSR0L
0000AA C??? F???      02887         MOVFF   r0x01, PRODL
0000AE 50??           02888         MOVF    r0x02, W
0000B0 EC?? F0??      02889         CALL    __gptrput2
                      02890         .line   786; ../../RF24Network_c.c      return RF24N_write_(header, message, len, RF24N_levelToA
                            ddress(level));
0000B4 50??           02891         MOVF    r0x08, W
Message[1301]: Using default destination of 0 (Access Bank).
0000B6 6EE5           02892         MOVWF   POSTDEC1
0000B8 EC?? F0??      02893         CALL    _RF24N_levelToAddress
Message[1301]: Using default destination of 0 (Access Bank).
0000BC 6E??           02894         MOVWF   r0x08
0000BE CFF3 F000      02895         MOVFF   PRODL, r0x09
0000C2 52E6           02896         MOVF    POSTINC1, F
gpasm-1.4.0 #1107 (May  9 2015) build/sdcc/pr   12-5-2016  17:29:30         PAGE 63


LOC    OBJECT CODE    LINE  SOURCE TEXT
  VALUE

0000C4 50??           02897         MOVF    r0x09, W
Message[1301]: Using default destination of 0 (Access Bank).
0000C6 6EE5           02898         MOVWF   POSTDEC1
0000C8 50??           02899         MOVF    r0x08, W
Message[1301]: Using default destination of 0 (Access Bank).
0000CA 6EE5           02900         MOVWF   POSTDEC1
0000CC 50??           02901         MOVF    r0x07, W
Message[1301]: Using default destination of 0 (Access Bank).
0000CE 6EE5           02902         MOVWF   POSTDEC1
0000D0 50??           02903         MOVF    r0x06, W
Message[1301]: Using default destination of 0 (Access Bank).
0000D2 6EE5           02904         MOVWF   POSTDEC1
0000D4 50??           02905         MOVF    r0x05, W
Message[1301]: Using default destination of 0 (Access Bank).
0000D6 6EE5           02906         MOVWF   POSTDEC1
0000D8 50??           02907         MOVF    r0x04, W
Message[1301]: Using default destination of 0 (Access Bank).
0000DA 6EE5           02908         MOVWF   POSTDEC1
0000DC 50??           02909         MOVF    r0x03, W
Message[1301]: Using default destination of 0 (Access Bank).
0000DE 6EE5           02910         MOVWF   POSTDEC1
0000E0 50??           02911         MOVF    r0x02, W
Message[1301]: Using default destination of 0 (Access Bank).
0000E2 6EE5           02912         MOVWF   POSTDEC1
0000E4 50??           02913         MOVF    r0x01, W
Message[1301]: Using default destination of 0 (Access Bank).
0000E6 6EE5           02914         MOVWF   POSTDEC1
0000E8 50??           02915         MOVF    r0x00, W
Message[1301]: Using default destination of 0 (Access Bank).
0000EA 6EE5           02916         MOVWF   POSTDEC1
0000EC EC?? F0??      02917         CALL    _RF24N_write_
Message[1301]: Using default destination of 0 (Access Bank).
0000F0 6E??           02918         MOVWF   r0x00
0000F2 0E0A           02919         MOVLW   0x0a
0000F4 26E1           02920         ADDWF   FSR1L, F
0000F6 50??           02921         MOVF    r0x00, W
0000F8 CFE4 F000      02922         MOVFF   PREINC1, r0x0b
0000FC CFE4 F000      02923         MOVFF   PREINC1, r0x0a
000100 CFE4 F000      02924         MOVFF   PREINC1, r0x09
000104 CFE4 F000      02925         MOVFF   PREINC1, r0x08
000108 CFE4 F000      02926         MOVFF   PREINC1, r0x07
00010C CFE4 F000      02927         MOVFF   PREINC1, r0x06
000110 CFE4 F000      02928         MOVFF   PREINC1, r0x05
000114 CFE4 F000      02929         MOVFF   PREINC1, r0x04
000118 CFE4 F000      02930         MOVFF   PREINC1, r0x03
00011C CFE4 F000      02931         MOVFF   PREINC1, r0x02
000120 CFE4 F000      02932         MOVFF   PREINC1, r0x01
000124 CFE4 F000      02933         MOVFF   PREINC1, r0x00
000128 CFE4 FFD9      02934         MOVFF   PREINC1, FSR2L
00012C 0012           02935         RETURN  
                      02936 
                      02937 ; ; Starting pCode block
                      02938 S_RF24Network_c__RF24N_read     code
gpasm-1.4.0 #1107 (May  9 2015) build/sdcc/pr   12-5-2016  17:29:30         PAGE 64


LOC    OBJECT CODE    LINE  SOURCE TEXT
  VALUE

000000                02939 _RF24N_read:
                      02940         .line   726; ../../RF24Network_c.c      uint16_t RF24N_read( RF24NetworkHeader* header,void* mes
                            sage, uint16_t maxlen)
000000 CFD9 FFE5      02941         MOVFF   FSR2L, POSTDEC1
000004 CFE1 FFD9      02942         MOVFF   FSR1L, FSR2L
000008 C??? F???      02943         MOVFF   r0x00, POSTDEC1
00000C C??? F???      02944         MOVFF   r0x01, POSTDEC1
000010 C??? F???      02945         MOVFF   r0x02, POSTDEC1
000014 C??? F???      02946         MOVFF   r0x03, POSTDEC1
000018 C??? F???      02947         MOVFF   r0x04, POSTDEC1
00001C C??? F???      02948         MOVFF   r0x05, POSTDEC1
000020 C??? F???      02949         MOVFF   r0x06, POSTDEC1
000024 C??? F???      02950         MOVFF   r0x07, POSTDEC1
000028 C??? F???      02951         MOVFF   r0x08, POSTDEC1
00002C C??? F???      02952         MOVFF   r0x09, POSTDEC1
000030 C??? F???      02953         MOVFF   r0x0a, POSTDEC1
000034 0E02           02954         MOVLW   0x02
000036 CFDB F000      02955         MOVFF   PLUSW2, r0x00
00003A 0E03           02956         MOVLW   0x03
00003C CFDB F000      02957         MOVFF   PLUSW2, r0x01
000040 0E04           02958         MOVLW   0x04
000042 CFDB F000      02959         MOVFF   PLUSW2, r0x02
000046 0E05           02960         MOVLW   0x05
000048 CFDB F000      02961         MOVFF   PLUSW2, r0x03
00004C 0E06           02962         MOVLW   0x06
00004E CFDB F000      02963         MOVFF   PLUSW2, r0x04
000052 0E07           02964         MOVLW   0x07
000054 CFDB F000      02965         MOVFF   PLUSW2, r0x05
000058 0E08           02966         MOVLW   0x08
00005A CFDB F000      02967         MOVFF   PLUSW2, r0x06
00005E 0E09           02968         MOVLW   0x09
000060 CFDB F000      02969         MOVFF   PLUSW2, r0x07
000064 ????           02970         BANKSEL _RF24N_read_bufsize_1_236
                      02971         .line   728; ../../RF24Network_c.c      uint16_t bufsize = 0;
000066 6B??           02972         CLRF    _RF24N_read_bufsize_1_236, B
000068 ????           02973         BANKSEL (_RF24N_read_bufsize_1_236 + 1)
00006A 6B??           02974         CLRF    (_RF24N_read_bufsize_1_236 + 1), B
                      02975         .line   747; ../../RF24Network_c.c      if ( RF24N_available() )
00006C EC?? F0??      02976         CALL    _RF24N_available
Message[1301]: Using default destination of 0 (Access Bank).
000070 6E??           02977         MOVWF   r0x08
000072 50??           02978         MOVF    r0x08, W
000074 B4D8           02979         BTFSC   STATUS, 2
000076 D???           02980         BRA     _00513_DS_
                      02981         .line   751; ../../RF24Network_c.c      memcpy(header,rn.frame_queue,8);
000078 50??           02982         MOVF    r0x02, W
Message[1301]: Using default destination of 0 (Access Bank).
00007A 6E??           02983         MOVWF   r0x02
00007C 50??           02984         MOVF    r0x01, W
Message[1301]: Using default destination of 0 (Access Bank).
00007E 6E??           02985         MOVWF   r0x01
000080 50??           02986         MOVF    r0x00, W
Message[1301]: Using default destination of 0 (Access Bank).
gpasm-1.4.0 #1107 (May  9 2015) build/sdcc/pr   12-5-2016  17:29:30         PAGE 65


LOC    OBJECT CODE    LINE  SOURCE TEXT
  VALUE

000082 6E??           02987         MOVWF   r0x00
000084 0E??           02988         MOVLW   HIGH(_rn + 59)
Message[1301]: Using default destination of 0 (Access Bank).
000086 6E??           02989         MOVWF   r0x09
000088 0E??           02990         MOVLW   LOW(_rn + 59)
Message[1301]: Using default destination of 0 (Access Bank).
00008A 6E??           02991         MOVWF   r0x08
00008C 0E80           02992         MOVLW   0x80
Message[1301]: Using default destination of 0 (Access Bank).
00008E 6E??           02993         MOVWF   r0x0a
000090 0E00           02994         MOVLW   0x00
Message[1301]: Using default destination of 0 (Access Bank).
000092 6EE5           02995         MOVWF   POSTDEC1
000094 0E08           02996         MOVLW   0x08
Message[1301]: Using default destination of 0 (Access Bank).
000096 6EE5           02997         MOVWF   POSTDEC1
000098 50??           02998         MOVF    r0x0a, W
Message[1301]: Using default destination of 0 (Access Bank).
00009A 6EE5           02999         MOVWF   POSTDEC1
00009C 50??           03000         MOVF    r0x09, W
Message[1301]: Using default destination of 0 (Access Bank).
00009E 6EE5           03001         MOVWF   POSTDEC1
0000A0 50??           03002         MOVF    r0x08, W
Message[1301]: Using default destination of 0 (Access Bank).
0000A2 6EE5           03003         MOVWF   POSTDEC1
0000A4 50??           03004         MOVF    r0x02, W
Message[1301]: Using default destination of 0 (Access Bank).
0000A6 6EE5           03005         MOVWF   POSTDEC1
0000A8 50??           03006         MOVF    r0x01, W
Message[1301]: Using default destination of 0 (Access Bank).
0000AA 6EE5           03007         MOVWF   POSTDEC1
0000AC 50??           03008         MOVF    r0x00, W
Message[1301]: Using default destination of 0 (Access Bank).
0000AE 6EE5           03009         MOVWF   POSTDEC1
0000B0 EC?? F0??      03010         CALL    _memcpy
0000B4 0E08           03011         MOVLW   0x08
0000B6 26E1           03012         ADDWF   FSR1L, F
                      03013         .line   752; ../../RF24Network_c.c      memcpy(&bufsize,rn.frame_queue+8,2);
0000B8 0E??           03014         MOVLW   HIGH(_RF24N_read_bufsize_1_236)
Message[1301]: Using default destination of 0 (Access Bank).
0000BA 6E??           03015         MOVWF   r0x01
0000BC 0E??           03016         MOVLW   LOW(_RF24N_read_bufsize_1_236)
Message[1301]: Using default destination of 0 (Access Bank).
0000BE 6E??           03017         MOVWF   r0x00
0000C0 0E80           03018         MOVLW   0x80
Message[1301]: Using default destination of 0 (Access Bank).
0000C2 6E??           03019         MOVWF   r0x02
0000C4 0E??           03020         MOVLW   HIGH(_rn + 67)
Message[1301]: Using default destination of 0 (Access Bank).
0000C6 6E??           03021         MOVWF   r0x09
0000C8 0E??           03022         MOVLW   LOW(_rn + 67)
Message[1301]: Using default destination of 0 (Access Bank).
0000CA 6E??           03023         MOVWF   r0x08
gpasm-1.4.0 #1107 (May  9 2015) build/sdcc/pr   12-5-2016  17:29:30         PAGE 66


LOC    OBJECT CODE    LINE  SOURCE TEXT
  VALUE

0000CC 0E80           03024         MOVLW   0x80
Message[1301]: Using default destination of 0 (Access Bank).
0000CE 6E??           03025         MOVWF   r0x0a
0000D0 0E00           03026         MOVLW   0x00
Message[1301]: Using default destination of 0 (Access Bank).
0000D2 6EE5           03027         MOVWF   POSTDEC1
0000D4 0E02           03028         MOVLW   0x02
Message[1301]: Using default destination of 0 (Access Bank).
0000D6 6EE5           03029         MOVWF   POSTDEC1
0000D8 50??           03030         MOVF    r0x0a, W
Message[1301]: Using default destination of 0 (Access Bank).
0000DA 6EE5           03031         MOVWF   POSTDEC1
0000DC 50??           03032         MOVF    r0x09, W
Message[1301]: Using default destination of 0 (Access Bank).
0000DE 6EE5           03033         MOVWF   POSTDEC1
0000E0 50??           03034         MOVF    r0x08, W
Message[1301]: Using default destination of 0 (Access Bank).
0000E2 6EE5           03035         MOVWF   POSTDEC1
0000E4 50??           03036         MOVF    r0x02, W
Message[1301]: Using default destination of 0 (Access Bank).
0000E6 6EE5           03037         MOVWF   POSTDEC1
0000E8 50??           03038         MOVF    r0x01, W
Message[1301]: Using default destination of 0 (Access Bank).
0000EA 6EE5           03039         MOVWF   POSTDEC1
0000EC 50??           03040         MOVF    r0x00, W
Message[1301]: Using default destination of 0 (Access Bank).
0000EE 6EE5           03041         MOVWF   POSTDEC1
0000F0 EC?? F0??      03042         CALL    _memcpy
0000F4 0E08           03043         MOVLW   0x08
0000F6 26E1           03044         ADDWF   FSR1L, F
                      03045         .line   754; ../../RF24Network_c.c      if (maxlen > 0)
0000F8 50??           03046         MOVF    r0x06, W
0000FA 10??           03047         IORWF   r0x07, W
0000FC E0??           03048         BZ      _00509_DS_
0000FE ????           03049         BANKSEL (_RF24N_read_bufsize_1_236 + 1)
                      03050         .line   756; ../../RF24Network_c.c      maxlen = rf24_min(maxlen,bufsize);
000100 51??           03051         MOVF    (_RF24N_read_bufsize_1_236 + 1), W, B
000102 5C??           03052         SUBWF   r0x07, W
000104 E1??           03053         BNZ     _00530_DS_
000106 ????           03054         BANKSEL _RF24N_read_bufsize_1_236
000108 51??           03055         MOVF    _RF24N_read_bufsize_1_236, W, B
00010A 5C??           03056         SUBWF   r0x06, W
00010C                03057 _00530_DS_:
00010C E2??           03058         BC      _00516_DS_
00010E C??? F???      03059         MOVFF   r0x06, r0x00
000112 C??? F???      03060         MOVFF   r0x07, r0x01
000116 D???           03061         BRA     _00517_DS_
000118                03062 _00516_DS_:
000118 C??? F???      03063         MOVFF   _RF24N_read_bufsize_1_236, r0x00
00011C C??? F???      03064         MOVFF   (_RF24N_read_bufsize_1_236 + 1), r0x01
000120                03065 _00517_DS_:
000120 C??? F???      03066         MOVFF   r0x00, r0x06
000124 C??? F???      03067         MOVFF   r0x01, r0x07
gpasm-1.4.0 #1107 (May  9 2015) build/sdcc/pr   12-5-2016  17:29:30         PAGE 67


LOC    OBJECT CODE    LINE  SOURCE TEXT
  VALUE

                      03068         .line   757; ../../RF24Network_c.c      memcpy(message,rn.frame_queue+10,maxlen);
000128 0E??           03069         MOVLW   HIGH(_rn + 69)
Message[1301]: Using default destination of 0 (Access Bank).
00012A 6E??           03070         MOVWF   r0x01
00012C 0E??           03071         MOVLW   LOW(_rn + 69)
Message[1301]: Using default destination of 0 (Access Bank).
00012E 6E??           03072         MOVWF   r0x00
000130 0E80           03073         MOVLW   0x80
Message[1301]: Using default destination of 0 (Access Bank).
000132 6E??           03074         MOVWF   r0x02
000134 50??           03075         MOVF    r0x07, W
Message[1301]: Using default destination of 0 (Access Bank).
000136 6EE5           03076         MOVWF   POSTDEC1
000138 50??           03077         MOVF    r0x06, W
Message[1301]: Using default destination of 0 (Access Bank).
00013A 6EE5           03078         MOVWF   POSTDEC1
00013C 50??           03079         MOVF    r0x02, W
Message[1301]: Using default destination of 0 (Access Bank).
00013E 6EE5           03080         MOVWF   POSTDEC1
000140 50??           03081         MOVF    r0x01, W
Message[1301]: Using default destination of 0 (Access Bank).
000142 6EE5           03082         MOVWF   POSTDEC1
000144 50??           03083         MOVF    r0x00, W
Message[1301]: Using default destination of 0 (Access Bank).
000146 6EE5           03084         MOVWF   POSTDEC1
000148 50??           03085         MOVF    r0x05, W
Message[1301]: Using default destination of 0 (Access Bank).
00014A 6EE5           03086         MOVWF   POSTDEC1
00014C 50??           03087         MOVF    r0x04, W
Message[1301]: Using default destination of 0 (Access Bank).
00014E 6EE5           03088         MOVWF   POSTDEC1
000150 50??           03089         MOVF    r0x03, W
Message[1301]: Using default destination of 0 (Access Bank).
000152 6EE5           03090         MOVWF   POSTDEC1
000154 EC?? F0??      03091         CALL    _memcpy
000158 0E08           03092         MOVLW   0x08
00015A 26E1           03093         ADDWF   FSR1L, F
00015C                03094 _00509_DS_:
00015C ????           03095         BANKSEL _RF24N_read_bufsize_1_236
                      03096         .line   764; ../../RF24Network_c.c      rn.next_frame-=bufsize+10;
00015E 51??           03097         MOVF    _RF24N_read_bufsize_1_236, W, B
000160 0F0A           03098         ADDLW   0x0a
Message[1301]: Using default destination of 0 (Access Bank).
000162 6E??           03099         MOVWF   r0x00
000164 0E00           03100         MOVLW   0x00
000166 ????           03101         BANKSEL (_RF24N_read_bufsize_1_236 + 1)
000168 21??           03102         ADDWFC  (_RF24N_read_bufsize_1_236 + 1), W, B
Message[1301]: Using default destination of 0 (Access Bank).
00016A 6E??           03103         MOVWF   r0x01
Message[1301]: Using default destination of 0 (Access Bank).
00016C 6A??           03104         CLRF    r0x02
00016E 50??           03105         MOVF    r0x00, W
000170 ????           03106         BANKSEL (_rn + 213)
gpasm-1.4.0 #1107 (May  9 2015) build/sdcc/pr   12-5-2016  17:29:30         PAGE 68


LOC    OBJECT CODE    LINE  SOURCE TEXT
  VALUE

000172 5D??           03107         SUBWF   (_rn + 213), W, B
Message[1301]: Using default destination of 0 (Access Bank).
000174 6E??           03108         MOVWF   r0x00
000176 50??           03109         MOVF    r0x01, W
000178 ????           03110         BANKSEL (_rn + 214)
00017A 59??           03111         SUBWFB  (_rn + 214), W, B
Message[1301]: Using default destination of 0 (Access Bank).
00017C 6E??           03112         MOVWF   r0x01
00017E 50??           03113         MOVF    r0x02, W
000180 ????           03114         BANKSEL (_rn + 215)
000182 59??           03115         SUBWFB  (_rn + 215), W, B
Message[1301]: Using default destination of 0 (Access Bank).
000184 6E??           03116         MOVWF   r0x02
000186 50??           03117         MOVF    r0x00, W
000188 ????           03118         BANKSEL (_rn + 213)
00018A 6F??           03119         MOVWF   (_rn + 213), B
00018C 50??           03120         MOVF    r0x01, W
00018E ????           03121         BANKSEL (_rn + 214)
000190 6F??           03122         MOVWF   (_rn + 214), B
000192 50??           03123         MOVF    r0x02, W
000194 ????           03124         BANKSEL (_rn + 215)
000196 6F??           03125         MOVWF   (_rn + 215), B
000198 ????           03126         BANKSEL _RF24N_read_bufsize_1_236
                      03127         .line   767; ../../RF24Network_c.c      if( (padding = (bufsize+10)%4) ){
00019A 51??           03128         MOVF    _RF24N_read_bufsize_1_236, W, B
00019C 0F0A           03129         ADDLW   0x0a
Message[1301]: Using default destination of 0 (Access Bank).
00019E 6E??           03130         MOVWF   r0x00
0001A0 0E00           03131         MOVLW   0x00
0001A2 ????           03132         BANKSEL (_RF24N_read_bufsize_1_236 + 1)
0001A4 21??           03133         ADDWFC  (_RF24N_read_bufsize_1_236 + 1), W, B
Message[1301]: Using default destination of 0 (Access Bank).
0001A6 6E??           03134         MOVWF   r0x01
0001A8 0E03           03135         MOVLW   0x03
0001AA 16??           03136         ANDWF   r0x00, F
Message[1301]: Using default destination of 0 (Access Bank).
0001AC 6A??           03137         CLRF    r0x01
0001AE C??? F???      03138         MOVFF   r0x00, r0x01
0001B2 50??           03139         MOVF    r0x00, W
0001B4 E0??           03140         BZ      _00511_DS_
                      03141         .line   768; ../../RF24Network_c.c      padding = 4-padding;
0001B6 50??           03142         MOVF    r0x01, W
0001B8 0804           03143         SUBLW   0x04
Message[1301]: Using default destination of 0 (Access Bank).
0001BA 6E??           03144         MOVWF   r0x01
                      03145         .line   769; ../../RF24Network_c.c      rn.next_frame -= padding;
0001BC C??? F???      03146         MOVFF   r0x01, r0x00
Message[1301]: Using default destination of 0 (Access Bank).
0001C0 6A??           03147         CLRF    r0x02
Message[1301]: Using default destination of 0 (Access Bank).
0001C2 6A??           03148         CLRF    r0x03
0001C4 BE??           03149         BTFSC   r0x02, 7
Message[1301]: Using default destination of 0 (Access Bank).
gpasm-1.4.0 #1107 (May  9 2015) build/sdcc/pr   12-5-2016  17:29:30         PAGE 69


LOC    OBJECT CODE    LINE  SOURCE TEXT
  VALUE

0001C6 68??           03150         SETF    r0x03
0001C8 50??           03151         MOVF    r0x00, W
0001CA ????           03152         BANKSEL (_rn + 213)
0001CC 5D??           03153         SUBWF   (_rn + 213), W, B
Message[1301]: Using default destination of 0 (Access Bank).
0001CE 6E??           03154         MOVWF   r0x00
0001D0 50??           03155         MOVF    r0x02, W
0001D2 ????           03156         BANKSEL (_rn + 214)
0001D4 59??           03157         SUBWFB  (_rn + 214), W, B
Message[1301]: Using default destination of 0 (Access Bank).
0001D6 6E??           03158         MOVWF   r0x02
0001D8 50??           03159         MOVF    r0x03, W
0001DA ????           03160         BANKSEL (_rn + 215)
0001DC 59??           03161         SUBWFB  (_rn + 215), W, B
Message[1301]: Using default destination of 0 (Access Bank).
0001DE 6E??           03162         MOVWF   r0x03
0001E0 50??           03163         MOVF    r0x00, W
0001E2 ????           03164         BANKSEL (_rn + 213)
0001E4 6F??           03165         MOVWF   (_rn + 213), B
0001E6 50??           03166         MOVF    r0x02, W
0001E8 ????           03167         BANKSEL (_rn + 214)
0001EA 6F??           03168         MOVWF   (_rn + 214), B
0001EC 50??           03169         MOVF    r0x03, W
0001EE ????           03170         BANKSEL (_rn + 215)
0001F0 6F??           03171         MOVWF   (_rn + 215), B
0001F2                03172 _00511_DS_:
                      03173         .line   772; ../../RF24Network_c.c      memmove(rn.frame_queue,rn.frame_queue+bufsize+10+padding
                            ,sizeof(rn.frame_queue)- bufsize);
0001F2 0E??           03174         MOVLW   HIGH(_rn + 59)
Message[1301]: Using default destination of 0 (Access Bank).
0001F4 6E??           03175         MOVWF   r0x02
0001F6 0E??           03176         MOVLW   LOW(_rn + 59)
Message[1301]: Using default destination of 0 (Access Bank).
0001F8 6E??           03177         MOVWF   r0x00
0001FA 0E80           03178         MOVLW   0x80
Message[1301]: Using default destination of 0 (Access Bank).
0001FC 6E??           03179         MOVWF   r0x03
0001FE 0E??           03180         MOVLW   LOW(_rn + 59)
000200 ????           03181         BANKSEL _RF24N_read_bufsize_1_236
000202 25??           03182         ADDWF   _RF24N_read_bufsize_1_236, W, B
Message[1301]: Using default destination of 0 (Access Bank).
000204 6E??           03183         MOVWF   r0x04
000206 0E??           03184         MOVLW   HIGH(_rn + 59)
000208 ????           03185         BANKSEL (_RF24N_read_bufsize_1_236 + 1)
00020A 21??           03186         ADDWFC  (_RF24N_read_bufsize_1_236 + 1), W, B
Message[1301]: Using default destination of 0 (Access Bank).
00020C 6E??           03187         MOVWF   r0x05
00020E 0E0A           03188         MOVLW   0x0a
000210 26??           03189         ADDWF   r0x04, F
000212 B0D8           03190         BTFSC   STATUS, 0
000214 2A??           03191         INCF    r0x05, F
Message[1301]: Using default destination of 0 (Access Bank).
000216 6A??           03192         CLRF    r0x06
gpasm-1.4.0 #1107 (May  9 2015) build/sdcc/pr   12-5-2016  17:29:30         PAGE 70


LOC    OBJECT CODE    LINE  SOURCE TEXT
  VALUE

000218 50??           03193         MOVF    r0x04, W
00021A 26??           03194         ADDWF   r0x01, F
00021C 50??           03195         MOVF    r0x05, W
00021E 22??           03196         ADDWFC  r0x06, F
000220 50??           03197         MOVF    r0x06, W
Message[1301]: Using default destination of 0 (Access Bank).
000222 6E??           03198         MOVWF   r0x06
000224 50??           03199         MOVF    r0x01, W
Message[1301]: Using default destination of 0 (Access Bank).
000226 6E??           03200         MOVWF   r0x01
000228 0E80           03201         MOVLW   0x80
Message[1301]: Using default destination of 0 (Access Bank).
00022A 6E??           03202         MOVWF   r0x04
00022C ????           03203         BANKSEL _RF24N_read_bufsize_1_236
00022E 51??           03204         MOVF    _RF24N_read_bufsize_1_236, W, B
000230 089A           03205         SUBLW   0x9a
Message[1301]: Using default destination of 0 (Access Bank).
000232 6E??           03206         MOVWF   r0x05
000234 0E00           03207         MOVLW   0x00
000236 ????           03208         BANKSEL (_RF24N_read_bufsize_1_236 + 1)
000238 55??           03209         SUBFWB  (_RF24N_read_bufsize_1_236 + 1), W, B
Message[1301]: Using default destination of 0 (Access Bank).
00023A 6E??           03210         MOVWF   r0x07
00023C 50??           03211         MOVF    r0x07, W
Message[1301]: Using default destination of 0 (Access Bank).
00023E 6EE5           03212         MOVWF   POSTDEC1
000240 50??           03213         MOVF    r0x05, W
Message[1301]: Using default destination of 0 (Access Bank).
000242 6EE5           03214         MOVWF   POSTDEC1
000244 50??           03215         MOVF    r0x04, W
Message[1301]: Using default destination of 0 (Access Bank).
000246 6EE5           03216         MOVWF   POSTDEC1
000248 50??           03217         MOVF    r0x06, W
Message[1301]: Using default destination of 0 (Access Bank).
00024A 6EE5           03218         MOVWF   POSTDEC1
00024C 50??           03219         MOVF    r0x01, W
Message[1301]: Using default destination of 0 (Access Bank).
00024E 6EE5           03220         MOVWF   POSTDEC1
000250 50??           03221         MOVF    r0x03, W
Message[1301]: Using default destination of 0 (Access Bank).
000252 6EE5           03222         MOVWF   POSTDEC1
000254 50??           03223         MOVF    r0x02, W
Message[1301]: Using default destination of 0 (Access Bank).
000256 6EE5           03224         MOVWF   POSTDEC1
000258 50??           03225         MOVF    r0x00, W
Message[1301]: Using default destination of 0 (Access Bank).
00025A 6EE5           03226         MOVWF   POSTDEC1
00025C EC?? F0??      03227         CALL    _memmove
000260 0E08           03228         MOVLW   0x08
000262 26E1           03229         ADDWF   FSR1L, F
000264                03230 _00513_DS_:
                      03231         .line   776; ../../RF24Network_c.c      return bufsize;
000264 C??? F???      03232         MOVFF   (_RF24N_read_bufsize_1_236 + 1), PRODL
gpasm-1.4.0 #1107 (May  9 2015) build/sdcc/pr   12-5-2016  17:29:30         PAGE 71


LOC    OBJECT CODE    LINE  SOURCE TEXT
  VALUE

000268 ????           03233         BANKSEL _RF24N_read_bufsize_1_236
00026A 51??           03234         MOVF    _RF24N_read_bufsize_1_236, W, B
00026C CFE4 F000      03235         MOVFF   PREINC1, r0x0a
000270 CFE4 F000      03236         MOVFF   PREINC1, r0x09
000274 CFE4 F000      03237         MOVFF   PREINC1, r0x08
000278 CFE4 F000      03238         MOVFF   PREINC1, r0x07
00027C CFE4 F000      03239         MOVFF   PREINC1, r0x06
000280 CFE4 F000      03240         MOVFF   PREINC1, r0x05
000284 CFE4 F000      03241         MOVFF   PREINC1, r0x04
000288 CFE4 F000      03242         MOVFF   PREINC1, r0x03
00028C CFE4 F000      03243         MOVFF   PREINC1, r0x02
000290 CFE4 F000      03244         MOVFF   PREINC1, r0x01
000294 CFE4 F000      03245         MOVFF   PREINC1, r0x00
000298 CFE4 FFD9      03246         MOVFF   PREINC1, FSR2L
00029C 0012           03247         RETURN  
                      03248 
                      03249 ; ; Starting pCode block
                      03250 S_RF24Network_c__RF24N_peek     code
000000                03251 _RF24N_peek:
                      03252         .line   705; ../../RF24Network_c.c      uint16_t RF24N_peek( RF24NetworkHeader* header)
000000 CFD9 FFE5      03253         MOVFF   FSR2L, POSTDEC1
000004 CFE1 FFD9      03254         MOVFF   FSR1L, FSR2L
000008 C??? F???      03255         MOVFF   r0x00, POSTDEC1
00000C C??? F???      03256         MOVFF   r0x01, POSTDEC1
000010 C??? F???      03257         MOVFF   r0x02, POSTDEC1
000014 C??? F???      03258         MOVFF   r0x03, POSTDEC1
000018 C??? F???      03259         MOVFF   r0x04, POSTDEC1
00001C C??? F???      03260         MOVFF   r0x05, POSTDEC1
000020 0E02           03261         MOVLW   0x02
000022 CFDB F000      03262         MOVFF   PLUSW2, r0x00
000026 0E03           03263         MOVLW   0x03
000028 CFDB F000      03264         MOVFF   PLUSW2, r0x01
00002C 0E04           03265         MOVLW   0x04
00002E CFDB F000      03266         MOVFF   PLUSW2, r0x02
                      03267         .line   707; ../../RF24Network_c.c      if ( RF24N_available() )
000032 EC?? F0??      03268         CALL    _RF24N_available
Message[1301]: Using default destination of 0 (Access Bank).
000036 6E??           03269         MOVWF   r0x03
000038 50??           03270         MOVF    r0x03, W
00003A B4D8           03271         BTFSC   STATUS, 2
00003C D???           03272         BRA     _00502_DS_
                      03273         .line   715; ../../RF24Network_c.c      RF24NetworkFrame *frame = (RF24NetworkFrame*)(rn.frame_q
                            ueue);
00003E 0E??           03274         MOVLW   LOW(_rn + 59)
Message[1301]: Using default destination of 0 (Access Bank).
000040 6E??           03275         MOVWF   r0x03
000042 0E??           03276         MOVLW   HIGH(_rn + 59)
Message[1301]: Using default destination of 0 (Access Bank).
000044 6E??           03277         MOVWF   r0x04
000046 50??           03278         MOVF    r0x04, W
Message[1301]: Using default destination of 0 (Access Bank).
000048 6E??           03279         MOVWF   r0x04
00004A 50??           03280         MOVF    r0x03, W
gpasm-1.4.0 #1107 (May  9 2015) build/sdcc/pr   12-5-2016  17:29:30         PAGE 72


LOC    OBJECT CODE    LINE  SOURCE TEXT
  VALUE

Message[1301]: Using default destination of 0 (Access Bank).
00004C 6E??           03281         MOVWF   r0x03
00004E 0E80           03282         MOVLW   0x80
Message[1301]: Using default destination of 0 (Access Bank).
000050 6E??           03283         MOVWF   r0x05
                      03284         .line   716; ../../RF24Network_c.c      memcpy(header,&frame->header,sizeof(RF24NetworkHeader));
000052 50??           03285         MOVF    r0x02, W
Message[1301]: Using default destination of 0 (Access Bank).
000054 6E??           03286         MOVWF   r0x02
000056 50??           03287         MOVF    r0x01, W
Message[1301]: Using default destination of 0 (Access Bank).
000058 6E??           03288         MOVWF   r0x01
00005A 50??           03289         MOVF    r0x00, W
Message[1301]: Using default destination of 0 (Access Bank).
00005C 6E??           03290         MOVWF   r0x00
00005E 50??           03291         MOVF    r0x05, W
Message[1301]: Using default destination of 0 (Access Bank).
000060 6E??           03292         MOVWF   r0x05
000062 50??           03293         MOVF    r0x04, W
Message[1301]: Using default destination of 0 (Access Bank).
000064 6E??           03294         MOVWF   r0x04
000066 50??           03295         MOVF    r0x03, W
Message[1301]: Using default destination of 0 (Access Bank).
000068 6E??           03296         MOVWF   r0x03
00006A 0E00           03297         MOVLW   0x00
Message[1301]: Using default destination of 0 (Access Bank).
00006C 6EE5           03298         MOVWF   POSTDEC1
00006E 0E08           03299         MOVLW   0x08
Message[1301]: Using default destination of 0 (Access Bank).
000070 6EE5           03300         MOVWF   POSTDEC1
000072 50??           03301         MOVF    r0x05, W
Message[1301]: Using default destination of 0 (Access Bank).
000074 6EE5           03302         MOVWF   POSTDEC1
000076 50??           03303         MOVF    r0x04, W
Message[1301]: Using default destination of 0 (Access Bank).
000078 6EE5           03304         MOVWF   POSTDEC1
00007A 50??           03305         MOVF    r0x03, W
Message[1301]: Using default destination of 0 (Access Bank).
00007C 6EE5           03306         MOVWF   POSTDEC1
00007E 50??           03307         MOVF    r0x02, W
Message[1301]: Using default destination of 0 (Access Bank).
000080 6EE5           03308         MOVWF   POSTDEC1
000082 50??           03309         MOVF    r0x01, W
Message[1301]: Using default destination of 0 (Access Bank).
000084 6EE5           03310         MOVWF   POSTDEC1
000086 50??           03311         MOVF    r0x00, W
Message[1301]: Using default destination of 0 (Access Bank).
000088 6EE5           03312         MOVWF   POSTDEC1
00008A EC?? F0??      03313         CALL    _memcpy
00008E 0E08           03314         MOVLW   0x08
000090 26E1           03315         ADDWF   FSR1L, F
                      03316         .line   717; ../../RF24Network_c.c      memcpy(&msg_size,rn.frame_queue+8,2);
000092 0E??           03317         MOVLW   HIGH(_RF24N_peek_msg_size_2_234)
gpasm-1.4.0 #1107 (May  9 2015) build/sdcc/pr   12-5-2016  17:29:30         PAGE 73


LOC    OBJECT CODE    LINE  SOURCE TEXT
  VALUE

Message[1301]: Using default destination of 0 (Access Bank).
000094 6E??           03318         MOVWF   r0x01
000096 0E??           03319         MOVLW   LOW(_RF24N_peek_msg_size_2_234)
Message[1301]: Using default destination of 0 (Access Bank).
000098 6E??           03320         MOVWF   r0x00
00009A 0E80           03321         MOVLW   0x80
Message[1301]: Using default destination of 0 (Access Bank).
00009C 6E??           03322         MOVWF   r0x02
00009E 0E??           03323         MOVLW   HIGH(_rn + 67)
Message[1301]: Using default destination of 0 (Access Bank).
0000A0 6E??           03324         MOVWF   r0x04
0000A2 0E??           03325         MOVLW   LOW(_rn + 67)
Message[1301]: Using default destination of 0 (Access Bank).
0000A4 6E??           03326         MOVWF   r0x03
0000A6 0E80           03327         MOVLW   0x80
Message[1301]: Using default destination of 0 (Access Bank).
0000A8 6E??           03328         MOVWF   r0x05
0000AA 0E00           03329         MOVLW   0x00
Message[1301]: Using default destination of 0 (Access Bank).
0000AC 6EE5           03330         MOVWF   POSTDEC1
0000AE 0E02           03331         MOVLW   0x02
Message[1301]: Using default destination of 0 (Access Bank).
0000B0 6EE5           03332         MOVWF   POSTDEC1
0000B2 50??           03333         MOVF    r0x05, W
Message[1301]: Using default destination of 0 (Access Bank).
0000B4 6EE5           03334         MOVWF   POSTDEC1
0000B6 50??           03335         MOVF    r0x04, W
Message[1301]: Using default destination of 0 (Access Bank).
0000B8 6EE5           03336         MOVWF   POSTDEC1
0000BA 50??           03337         MOVF    r0x03, W
Message[1301]: Using default destination of 0 (Access Bank).
0000BC 6EE5           03338         MOVWF   POSTDEC1
0000BE 50??           03339         MOVF    r0x02, W
Message[1301]: Using default destination of 0 (Access Bank).
0000C0 6EE5           03340         MOVWF   POSTDEC1
0000C2 50??           03341         MOVF    r0x01, W
Message[1301]: Using default destination of 0 (Access Bank).
0000C4 6EE5           03342         MOVWF   POSTDEC1
0000C6 50??           03343         MOVF    r0x00, W
Message[1301]: Using default destination of 0 (Access Bank).
0000C8 6EE5           03344         MOVWF   POSTDEC1
0000CA EC?? F0??      03345         CALL    _memcpy
0000CE 0E08           03346         MOVLW   0x08
0000D0 26E1           03347         ADDWF   FSR1L, F
                      03348         .line   718; ../../RF24Network_c.c      return msg_size;
0000D2 C??? F???      03349         MOVFF   (_RF24N_peek_msg_size_2_234 + 1), PRODL
0000D6 ????           03350         BANKSEL _RF24N_peek_msg_size_2_234
0000D8 51??           03351         MOVF    _RF24N_peek_msg_size_2_234, W, B
0000DA D???           03352         BRA     _00503_DS_
0000DC                03353 _00502_DS_:
                      03354         .line   721; ../../RF24Network_c.c      return 0;
Message[1301]: Using default destination of 0 (Access Bank).
0000DC 6AF3           03355         CLRF    PRODL
gpasm-1.4.0 #1107 (May  9 2015) build/sdcc/pr   12-5-2016  17:29:30         PAGE 74


LOC    OBJECT CODE    LINE  SOURCE TEXT
  VALUE

Message[1301]: Using default destination of 0 (Access Bank).
0000DE 6AE8           03356         CLRF    WREG
0000E0                03357 _00503_DS_:
0000E0 CFE4 F000      03358         MOVFF   PREINC1, r0x05
0000E4 CFE4 F000      03359         MOVFF   PREINC1, r0x04
0000E8 CFE4 F000      03360         MOVFF   PREINC1, r0x03
0000EC CFE4 F000      03361         MOVFF   PREINC1, r0x02
0000F0 CFE4 F000      03362         MOVFF   PREINC1, r0x01
0000F4 CFE4 F000      03363         MOVFF   PREINC1, r0x00
0000F8 CFE4 FFD9      03364         MOVFF   PREINC1, FSR2L
0000FC 0012           03365         RETURN  
                      03366 
                      03367 ; ; Starting pCode block
                      03368 S_RF24Network_c__RF24N_parent   code
000000                03369 _RF24N_parent:
                      03370         .line   691; ../../RF24Network_c.c      uint16_t RF24N_parent(void) 
000000 CFD9 FFE5      03371         MOVFF   FSR2L, POSTDEC1
000004 CFE1 FFD9      03372         MOVFF   FSR1L, FSR2L
000008 ????           03373         BANKSEL (_rn + 49)
                      03374         .line   693; ../../RF24Network_c.c      if ( rn.node_address == 0 )
00000A 51??           03375         MOVF    (_rn + 49), W, B
00000C ????           03376         BANKSEL (_rn + 50)
00000E 11??           03377         IORWF   (_rn + 50), W, B
000010 E1??           03378         BNZ     _00494_DS_
                      03379         .line   694; ../../RF24Network_c.c      return -1;
Message[1301]: Using default destination of 0 (Access Bank).
000012 68F3           03380         SETF    PRODL
Message[1301]: Using default destination of 0 (Access Bank).
000014 68E8           03381         SETF    WREG
000016 D???           03382         BRA     _00496_DS_
000018                03383 _00494_DS_:
                      03384         .line   696; ../../RF24Network_c.c      return rn.parent_node;
000018 C??? F???      03385         MOVFF   (_rn + 55), PRODL
00001C ????           03386         BANKSEL (_rn + 54)
00001E 51??           03387         MOVF    (_rn + 54), W, B
000020                03388 _00496_DS_:
000020 CFE4 FFD9      03389         MOVFF   PREINC1, FSR2L
000024 0012           03390         RETURN  
                      03391 
                      03392 ; ; Starting pCode block
                      03393 S_RF24Network_c__RF24N_available        code
000000                03394 _RF24N_available:
                      03395         .line   679; ../../RF24Network_c.c      uint8_t RF24N_available(void)
000000 CFD9 FFE5      03396         MOVFF   FSR2L, POSTDEC1
000004 CFE1 FFD9      03397         MOVFF   FSR1L, FSR2L
000008 C??? F???      03398         MOVFF   r0x00, POSTDEC1
00000C C??? F???      03399         MOVFF   r0x01, POSTDEC1
000010 C??? F???      03400         MOVFF   r0x02, POSTDEC1
                      03401         .line   685; ../../RF24Network_c.c      return (rn.next_frame > rn.frame_queue);
000014 0E??           03402         MOVLW   HIGH(_rn + 59)
Message[1301]: Using default destination of 0 (Access Bank).
000016 6E??           03403         MOVWF   r0x01
000018 0E??           03404         MOVLW   LOW(_rn + 59)
gpasm-1.4.0 #1107 (May  9 2015) build/sdcc/pr   12-5-2016  17:29:30         PAGE 75


LOC    OBJECT CODE    LINE  SOURCE TEXT
  VALUE

Message[1301]: Using default destination of 0 (Access Bank).
00001A 6E??           03405         MOVWF   r0x00
00001C 0E80           03406         MOVLW   0x80
Message[1301]: Using default destination of 0 (Access Bank).
00001E 6E??           03407         MOVWF   r0x02
000020 ????           03408         BANKSEL (_rn + 215)
000022 51??           03409         MOVF    (_rn + 215), W, B
000024 5C??           03410         SUBWF   r0x02, W
000026 E1??           03411         BNZ     _00488_DS_
000028 ????           03412         BANKSEL (_rn + 214)
00002A 51??           03413         MOVF    (_rn + 214), W, B
00002C 5C??           03414         SUBWF   r0x01, W
00002E E1??           03415         BNZ     _00488_DS_
000030 ????           03416         BANKSEL (_rn + 213)
000032 51??           03417         MOVF    (_rn + 213), W, B
000034 5C??           03418         SUBWF   r0x00, W
000036                03419 _00488_DS_:
000036 70D8           03420         BTG     STATUS, 0
Message[1301]: Using default destination of 0 (Access Bank).
000038 6A??           03421         CLRF    r0x00
00003A 36??           03422         RLCF    r0x00, F
00003C 50??           03423         MOVF    r0x00, W
00003E CFE4 F000      03424         MOVFF   PREINC1, r0x02
000042 CFE4 F000      03425         MOVFF   PREINC1, r0x01
000046 CFE4 F000      03426         MOVFF   PREINC1, r0x00
00004A CFE4 FFD9      03427         MOVFF   PREINC1, FSR2L
00004E 0012           03428         RETURN  
                      03429 
                      03430 ; ; Starting pCode block
                      03431 S_RF24Network_c__RF24N_enqueue  code
000000                03432 _RF24N_enqueue:
                      03433         .line   527; ../../RF24Network_c.c      uint8_t RF24N_enqueue( RF24NetworkHeader* header)
000000 CFD9 FFE5      03434         MOVFF   FSR2L, POSTDEC1
000004 CFE1 FFD9      03435         MOVFF   FSR1L, FSR2L
000008 C??? F???      03436         MOVFF   r0x00, POSTDEC1
00000C C??? F???      03437         MOVFF   r0x01, POSTDEC1
000010 C??? F???      03438         MOVFF   r0x02, POSTDEC1
000014 C??? F???      03439         MOVFF   r0x03, POSTDEC1
000018 C??? F???      03440         MOVFF   r0x04, POSTDEC1
00001C C??? F???      03441         MOVFF   r0x05, POSTDEC1
000020 C??? F???      03442         MOVFF   r0x06, POSTDEC1
000024 C??? F???      03443         MOVFF   r0x07, POSTDEC1
000028 C??? F???      03444         MOVFF   r0x08, POSTDEC1
00002C C??? F???      03445         MOVFF   r0x09, POSTDEC1
000030 C??? F???      03446         MOVFF   r0x0a, POSTDEC1
000034 C??? F???      03447         MOVFF   r0x0b, POSTDEC1
000038 C??? F???      03448         MOVFF   r0x0c, POSTDEC1
00003C C??? F???      03449         MOVFF   r0x0d, POSTDEC1
000040 C??? F???      03450         MOVFF   r0x0e, POSTDEC1
000044 0E02           03451         MOVLW   0x02
000046 CFDB F000      03452         MOVFF   PLUSW2, r0x00
00004A 0E03           03453         MOVLW   0x03
00004C CFDB F000      03454         MOVFF   PLUSW2, r0x01
gpasm-1.4.0 #1107 (May  9 2015) build/sdcc/pr   12-5-2016  17:29:30         PAGE 76


LOC    OBJECT CODE    LINE  SOURCE TEXT
  VALUE

000050 0E04           03455         MOVLW   0x04
000052 CFDB F000      03456         MOVFF   PLUSW2, r0x02
                      03457         .line   530; ../../RF24Network_c.c      uint16_t message_size = rn.frame_size - sizeof(RF24Netwo
                            rkHeader);
000056 C??? F???      03458         MOVFF   (_rn + 51), r0x03
Message[1301]: Using default destination of 0 (Access Bank).
00005A 6A??           03459         CLRF    r0x04
00005C 0EF8           03460         MOVLW   0xf8
00005E 26??           03461         ADDWF   r0x03, F
000060 A0D8           03462         BTFSS   STATUS, 0
000062 06??           03463         DECF    r0x04, F
000064 C??? F???      03464         MOVFF   r0x03, _RF24N_enqueue_message_size_1_210
000068 C??? F???      03465         MOVFF   r0x04, (_RF24N_enqueue_message_size_1_210 + 1)
                      03466         .line   537; ../../RF24Network_c.c      isFragment = header->type == NETWORK_FIRST_FRAGMENT || h
                            eader->type == NETWORK_MORE_FRAGMENTS || header->type == NETWORK_LAST_FRAGMENT || header->type == NETWOR
                            K_MORE_FRAGMENTS_NACK ;
00006C 50??           03467         MOVF    r0x00, W
00006E 0F06           03468         ADDLW   0x06
Message[1301]: Using default destination of 0 (Access Bank).
000070 6E??           03469         MOVWF   r0x05
000072 0E00           03470         MOVLW   0x00
000074 20??           03471         ADDWFC  r0x01, W
Message[1301]: Using default destination of 0 (Access Bank).
000076 6E??           03472         MOVWF   r0x06
000078 0E00           03473         MOVLW   0x00
00007A 20??           03474         ADDWFC  r0x02, W
Message[1301]: Using default destination of 0 (Access Bank).
00007C 6E??           03475         MOVWF   r0x07
00007E C??? F???      03476         MOVFF   r0x05, FSR0L
000082 C??? F???      03477         MOVFF   r0x06, PRODL
000086 50??           03478         MOVF    r0x07, W
000088 EC?? F0??      03479         CALL    __gptrget1
Message[1301]: Using default destination of 0 (Access Bank).
00008C 6E??           03480         MOVWF   r0x08
00008E 50??           03481         MOVF    r0x08, W
000090 0A94           03482         XORLW   0x94
000092 E0??           03483         BZ      _00370_DS_
000094 50??           03484         MOVF    r0x08, W
000096 0A95           03485         XORLW   0x95
000098 E0??           03486         BZ      _00370_DS_
00009A 50??           03487         MOVF    r0x08, W
00009C 0A96           03488         XORLW   0x96
00009E E0??           03489         BZ      _00370_DS_
0000A0 50??           03490         MOVF    r0x08, W
0000A2 0AC8           03491         XORLW   0xc8
0000A4 E0??           03492         BZ      _00370_DS_
0000A6 EF?? F0??      03493         GOTO    _00360_DS_
0000AA                03494 _00370_DS_:
                      03495         .line   541; ../../RF24Network_c.c      if(header->type == NETWORK_FIRST_FRAGMENT){
0000AA 50??           03496         MOVF    r0x08, W
0000AC 0A94           03497         XORLW   0x94
0000AE E0??           03498         BZ      _00450_DS_
0000B0 D???           03499         BRA     _00355_DS_
gpasm-1.4.0 #1107 (May  9 2015) build/sdcc/pr   12-5-2016  17:29:30         PAGE 77


LOC    OBJECT CODE    LINE  SOURCE TEXT
  VALUE

0000B2                03500 _00450_DS_:
                      03501         .line   543; ../../RF24Network_c.c      if(header->reserved > (MAX_PAYLOAD_SIZE / rn.max_frame_p
                            ayload_size) ){
0000B2 50??           03502         MOVF    r0x00, W
0000B4 0F07           03503         ADDLW   0x07
Message[1301]: Using default destination of 0 (Access Bank).
0000B6 6E??           03504         MOVWF   r0x09
0000B8 0E00           03505         MOVLW   0x00
0000BA 20??           03506         ADDWFC  r0x01, W
Message[1301]: Using default destination of 0 (Access Bank).
0000BC 6E??           03507         MOVWF   r0x0a
0000BE 0E00           03508         MOVLW   0x00
0000C0 20??           03509         ADDWFC  r0x02, W
Message[1301]: Using default destination of 0 (Access Bank).
0000C2 6E??           03510         MOVWF   r0x0b
0000C4 C??? F???      03511         MOVFF   r0x09, FSR0L
0000C8 C??? F???      03512         MOVFF   r0x0a, PRODL
0000CC 50??           03513         MOVF    r0x0b, W
0000CE EC?? F0??      03514         CALL    __gptrget1
Message[1301]: Using default destination of 0 (Access Bank).
0000D2 6E??           03515         MOVWF   r0x09
0000D4 ????           03516         BANKSEL (_rn + 53)
0000D6 51??           03517         MOVF    (_rn + 53), W, B
Message[1301]: Using default destination of 0 (Access Bank).
0000D8 6EE5           03518         MOVWF   POSTDEC1
0000DA ????           03519         BANKSEL (_rn + 52)
0000DC 51??           03520         MOVF    (_rn + 52), W, B
Message[1301]: Using default destination of 0 (Access Bank).
0000DE 6EE5           03521         MOVWF   POSTDEC1
0000E0 0E00           03522         MOVLW   0x00
Message[1301]: Using default destination of 0 (Access Bank).
0000E2 6EE5           03523         MOVWF   POSTDEC1
0000E4 0E0A           03524         MOVLW   0x0a
Message[1301]: Using default destination of 0 (Access Bank).
0000E6 6EE5           03525         MOVWF   POSTDEC1
0000E8 EC?? F0??      03526         CALL    __divuint
Message[1301]: Using default destination of 0 (Access Bank).
0000EC 6E??           03527         MOVWF   r0x0a
0000EE CFF3 F000      03528         MOVFF   PRODL, r0x0b
0000F2 0E04           03529         MOVLW   0x04
0000F4 26E1           03530         ADDWF   FSR1L, F
0000F6 50??           03531         MOVF    r0x0a, W
0000F8 089A           03532         SUBLW   0x9a
Message[1301]: Using default destination of 0 (Access Bank).
0000FA 6E??           03533         MOVWF   r0x0a
0000FC 0E00           03534         MOVLW   0x00
0000FE 56??           03535         SUBFWB  r0x0b, F
000100 C??? F???      03536         MOVFF   r0x09, r0x0c
Message[1301]: Using default destination of 0 (Access Bank).
000104 6A??           03537         CLRF    r0x0d
000106 50??           03538         MOVF    r0x0d, W
000108 5C??           03539         SUBWF   r0x0b, W
00010A E1??           03540         BNZ     _00451_DS_
gpasm-1.4.0 #1107 (May  9 2015) build/sdcc/pr   12-5-2016  17:29:30         PAGE 78


LOC    OBJECT CODE    LINE  SOURCE TEXT
  VALUE

00010C 50??           03541         MOVF    r0x0c, W
00010E 5C??           03542         SUBWF   r0x0a, W
000110                03543 _00451_DS_:
000110 E2??           03544         BC      _00330_DS_
000112 ????           03545         BANKSEL (_rn + 223)
                      03546         .line   548; ../../RF24Network_c.c      rn.frag_queue.header.reserved = 0;
000114 6B??           03547         CLRF    (_rn + 223), B
                      03548         .line   549; ../../RF24Network_c.c      return 0;
Message[1301]: Using default destination of 0 (Access Bank).
000116 6AE8           03549         CLRF    WREG
000118 EF?? F0??      03550         GOTO    _00367_DS_
00011C                03551 _00330_DS_:
                      03552         .line   551; ../../RF24Network_c.c      if(rn.frag_queue.header.id == header->id && rn.frag_queu
                            e.header.from_node == header->from_node){
00011C 50??           03553         MOVF    r0x00, W
00011E 0F04           03554         ADDLW   0x04
Message[1301]: Using default destination of 0 (Access Bank).
000120 6E??           03555         MOVWF   r0x0a
000122 0E00           03556         MOVLW   0x00
000124 20??           03557         ADDWFC  r0x01, W
Message[1301]: Using default destination of 0 (Access Bank).
000126 6E??           03558         MOVWF   r0x0b
000128 0E00           03559         MOVLW   0x00
00012A 20??           03560         ADDWFC  r0x02, W
Message[1301]: Using default destination of 0 (Access Bank).
00012C 6E??           03561         MOVWF   r0x0c
00012E C??? F???      03562         MOVFF   r0x0a, FSR0L
000132 C??? F???      03563         MOVFF   r0x0b, PRODL
000136 50??           03564         MOVF    r0x0c, W
000138 EC?? F0??      03565         CALL    __gptrget2
Message[1301]: Using default destination of 0 (Access Bank).
00013C 6E??           03566         MOVWF   r0x0a
00013E CFF3 F000      03567         MOVFF   PRODL, r0x0b
000142 ????           03568         BANKSEL (_rn + 220)
000144 51??           03569         MOVF    (_rn + 220), W, B
000146 18??           03570         XORWF   r0x0a, W
000148 E1??           03571         BNZ     _00452_DS_
00014A ????           03572         BANKSEL (_rn + 221)
00014C 51??           03573         MOVF    (_rn + 221), W, B
00014E 18??           03574         XORWF   r0x0b, W
000150 E0??           03575         BZ      _00453_DS_
000152                03576 _00452_DS_:
000152 D???           03577         BRA     _00331_DS_
000154                03578 _00453_DS_:
000154 C??? F???      03579         MOVFF   r0x00, FSR0L
000158 C??? F???      03580         MOVFF   r0x01, PRODL
00015C 50??           03581         MOVF    r0x02, W
00015E EC?? F0??      03582         CALL    __gptrget2
Message[1301]: Using default destination of 0 (Access Bank).
000162 6E??           03583         MOVWF   r0x0a
000164 CFF3 F000      03584         MOVFF   PRODL, r0x0b
000168 ????           03585         BANKSEL (_rn + 216)
00016A 51??           03586         MOVF    (_rn + 216), W, B
gpasm-1.4.0 #1107 (May  9 2015) build/sdcc/pr   12-5-2016  17:29:30         PAGE 79


LOC    OBJECT CODE    LINE  SOURCE TEXT
  VALUE

00016C 18??           03587         XORWF   r0x0a, W
00016E E1??           03588         BNZ     _00454_DS_
000170 ????           03589         BANKSEL (_rn + 217)
000172 51??           03590         MOVF    (_rn + 217), W, B
000174 18??           03591         XORWF   r0x0b, W
000176 E0??           03592         BZ      _00455_DS_
000178                03593 _00454_DS_:
000178 D???           03594         BRA     _00331_DS_
00017A                03595 _00455_DS_:
                      03596         .line   552; ../../RF24Network_c.c      return 1;
00017A 0E01           03597         MOVLW   0x01
00017C EF?? F0??      03598         GOTO    _00367_DS_
                      03599 ; ;multiply lit val:0x18 by variable r0x09 and store in r0x09
000180                03600 _00331_DS_:
                      03601         .line   555; ../../RF24Network_c.c      if( (header->reserved * 24) > (MAX_PAYLOAD_SIZE - (rn.ne
                            xt_frame-rn.frame_queue)) ){
000180 50??           03602         MOVF    r0x09, W
000182 0D18           03603         MULLW   0x18
000184 50F4           03604         MOVF    PRODH, W
Message[1301]: Using default destination of 0 (Access Bank).
000186 6E??           03605         MOVWF   r0x0a
000188 CFF3 F000      03606         MOVFF   PRODL, r0x09
00018C 0E??           03607         MOVLW   LOW(_rn + 59)
00018E ????           03608         BANKSEL (_rn + 213)
000190 5D??           03609         SUBWF   (_rn + 213), W, B
Message[1301]: Using default destination of 0 (Access Bank).
000192 6E??           03610         MOVWF   r0x0b
000194 0E??           03611         MOVLW   HIGH(_rn + 59)
000196 ????           03612         BANKSEL (_rn + 214)
000198 59??           03613         SUBWFB  (_rn + 214), W, B
Message[1301]: Using default destination of 0 (Access Bank).
00019A 6E??           03614         MOVWF   r0x0c
00019C 50??           03615         MOVF    r0x0b, W
00019E 0890           03616         SUBLW   0x90
Message[1301]: Using default destination of 0 (Access Bank).
0001A0 6E??           03617         MOVWF   r0x0b
0001A2 0E00           03618         MOVLW   0x00
0001A4 56??           03619         SUBFWB  r0x0c, F
0001A6 50??           03620         MOVF    r0x0c, W
0001A8 0F80           03621         ADDLW   0x80
Message[1301]: Using default destination of 0 (Access Bank).
0001AA 6EF3           03622         MOVWF   PRODL
0001AC 50??           03623         MOVF    r0x0a, W
0001AE 0F80           03624         ADDLW   0x80
0001B0 5CF3           03625         SUBWF   PRODL, W
0001B2 E1??           03626         BNZ     _00456_DS_
0001B4 50??           03627         MOVF    r0x09, W
0001B6 5C??           03628         SUBWF   r0x0b, W
0001B8                03629 _00456_DS_:
0001B8 E2??           03630         BC      _00333_DS_
                      03631         .line   556; ../../RF24Network_c.c      rn.networkFlags |= FLAG_HOLD_INCOMING;
0001BA 0E01           03632         MOVLW   0x01
0001BC ????           03633         BANKSEL (_rn + 43)
gpasm-1.4.0 #1107 (May  9 2015) build/sdcc/pr   12-5-2016  17:29:30         PAGE 80


LOC    OBJECT CODE    LINE  SOURCE TEXT
  VALUE

0001BE 11??           03634         IORWF   (_rn + 43), W, B
Message[1301]: Using default destination of 0 (Access Bank).
0001C0 6E??           03635         MOVWF   r0x09
0001C2 50??           03636         MOVF    r0x09, W
0001C4 ????           03637         BANKSEL (_rn + 43)
0001C6 6F??           03638         MOVWF   (_rn + 43), B
                      03639         .line   557; ../../RF24Network_c.c      RF24_stopListening();
0001C8 EC?? F0??      03640         CALL    _RF24_stopListening
0001CC                03641 _00333_DS_:
                      03642         .line   560; ../../RF24Network_c.c      memcpy(&rn.frag_queue,rn.frame_buffer,8);
0001CC 0E??           03643         MOVLW   HIGH(_rn + 216)
Message[1301]: Using default destination of 0 (Access Bank).
0001CE 6E??           03644         MOVWF   r0x0a
0001D0 0E??           03645         MOVLW   LOW(_rn + 216)
Message[1301]: Using default destination of 0 (Access Bank).
0001D2 6E??           03646         MOVWF   r0x09
0001D4 0E80           03647         MOVLW   0x80
Message[1301]: Using default destination of 0 (Access Bank).
0001D6 6E??           03648         MOVWF   r0x0b
0001D8 0E??           03649         MOVLW   HIGH(_rn + 7)
Message[1301]: Using default destination of 0 (Access Bank).
0001DA 6E??           03650         MOVWF   r0x0d
0001DC 0E??           03651         MOVLW   LOW(_rn + 7)
Message[1301]: Using default destination of 0 (Access Bank).
0001DE 6E??           03652         MOVWF   r0x0c
0001E0 0E80           03653         MOVLW   0x80
Message[1301]: Using default destination of 0 (Access Bank).
0001E2 6E??           03654         MOVWF   r0x0e
0001E4 0E00           03655         MOVLW   0x00
Message[1301]: Using default destination of 0 (Access Bank).
0001E6 6EE5           03656         MOVWF   POSTDEC1
0001E8 0E08           03657         MOVLW   0x08
Message[1301]: Using default destination of 0 (Access Bank).
0001EA 6EE5           03658         MOVWF   POSTDEC1
0001EC 50??           03659         MOVF    r0x0e, W
Message[1301]: Using default destination of 0 (Access Bank).
0001EE 6EE5           03660         MOVWF   POSTDEC1
0001F0 50??           03661         MOVF    r0x0d, W
Message[1301]: Using default destination of 0 (Access Bank).
0001F2 6EE5           03662         MOVWF   POSTDEC1
0001F4 50??           03663         MOVF    r0x0c, W
Message[1301]: Using default destination of 0 (Access Bank).
0001F6 6EE5           03664         MOVWF   POSTDEC1
0001F8 50??           03665         MOVF    r0x0b, W
Message[1301]: Using default destination of 0 (Access Bank).
0001FA 6EE5           03666         MOVWF   POSTDEC1
0001FC 50??           03667         MOVF    r0x0a, W
Message[1301]: Using default destination of 0 (Access Bank).
0001FE 6EE5           03668         MOVWF   POSTDEC1
000200 50??           03669         MOVF    r0x09, W
Message[1301]: Using default destination of 0 (Access Bank).
000202 6EE5           03670         MOVWF   POSTDEC1
000204 EC?? F0??      03671         CALL    _memcpy
gpasm-1.4.0 #1107 (May  9 2015) build/sdcc/pr   12-5-2016  17:29:30         PAGE 81


LOC    OBJECT CODE    LINE  SOURCE TEXT
  VALUE

000208 0E08           03672         MOVLW   0x08
00020A 26E1           03673         ADDWF   FSR1L, F
00020C ????           03674         BANKSEL (_rn + 228)
                      03675         .line   561; ../../RF24Network_c.c      memcpy(rn.frag_queue.message_buffer,rn.frame_buffer+size
                            of(RF24NetworkHeader),message_size);
00020E 51??           03676         MOVF    (_rn + 228), W, B
Message[1301]: Using default destination of 0 (Access Bank).
000210 6E??           03677         MOVWF   r0x0b
000212 ????           03678         BANKSEL (_rn + 227)
000214 51??           03679         MOVF    (_rn + 227), W, B
Message[1301]: Using default destination of 0 (Access Bank).
000216 6E??           03680         MOVWF   r0x0a
000218 ????           03681         BANKSEL (_rn + 226)
00021A 51??           03682         MOVF    (_rn + 226), W, B
Message[1301]: Using default destination of 0 (Access Bank).
00021C 6E??           03683         MOVWF   r0x09
00021E 0E??           03684         MOVLW   HIGH(_rn + 15)
Message[1301]: Using default destination of 0 (Access Bank).
000220 6E??           03685         MOVWF   r0x0d
000222 0E??           03686         MOVLW   LOW(_rn + 15)
Message[1301]: Using default destination of 0 (Access Bank).
000224 6E??           03687         MOVWF   r0x0c
000226 0E80           03688         MOVLW   0x80
Message[1301]: Using default destination of 0 (Access Bank).
000228 6E??           03689         MOVWF   r0x0e
00022A 50??           03690         MOVF    r0x04, W
Message[1301]: Using default destination of 0 (Access Bank).
00022C 6EE5           03691         MOVWF   POSTDEC1
00022E 50??           03692         MOVF    r0x03, W
Message[1301]: Using default destination of 0 (Access Bank).
000230 6EE5           03693         MOVWF   POSTDEC1
000232 50??           03694         MOVF    r0x0e, W
Message[1301]: Using default destination of 0 (Access Bank).
000234 6EE5           03695         MOVWF   POSTDEC1
000236 50??           03696         MOVF    r0x0d, W
Message[1301]: Using default destination of 0 (Access Bank).
000238 6EE5           03697         MOVWF   POSTDEC1
00023A 50??           03698         MOVF    r0x0c, W
Message[1301]: Using default destination of 0 (Access Bank).
00023C 6EE5           03699         MOVWF   POSTDEC1
00023E 50??           03700         MOVF    r0x0b, W
Message[1301]: Using default destination of 0 (Access Bank).
000240 6EE5           03701         MOVWF   POSTDEC1
000242 50??           03702         MOVF    r0x0a, W
Message[1301]: Using default destination of 0 (Access Bank).
000244 6EE5           03703         MOVWF   POSTDEC1
000246 50??           03704         MOVF    r0x09, W
Message[1301]: Using default destination of 0 (Access Bank).
000248 6EE5           03705         MOVWF   POSTDEC1
00024A EC?? F0??      03706         CALL    _memcpy
00024E 0E08           03707         MOVLW   0x08
000250 26E1           03708         ADDWF   FSR1L, F
                      03709         .line   565; ../../RF24Network_c.c      rn.frag_queue.message_size = message_size;
gpasm-1.4.0 #1107 (May  9 2015) build/sdcc/pr   12-5-2016  17:29:30         PAGE 82


LOC    OBJECT CODE    LINE  SOURCE TEXT
  VALUE

000252 50??           03710         MOVF    r0x03, W
000254 ????           03711         BANKSEL (_rn + 224)
000256 6F??           03712         MOVWF   (_rn + 224), B
000258 50??           03713         MOVF    r0x04, W
00025A ????           03714         BANKSEL (_rn + 225)
00025C 6F??           03715         MOVWF   (_rn + 225), B
00025E ????           03716         BANKSEL (_rn + 223)
                      03717         .line   566; ../../RF24Network_c.c      --rn.frag_queue.header.reserved;
000260 05??           03718         DECF    (_rn + 223), W, B
Message[1301]: Using default destination of 0 (Access Bank).
000262 6E??           03719         MOVWF   r0x09
000264 50??           03720         MOVF    r0x09, W
000266 ????           03721         BANKSEL (_rn + 223)
000268 6F??           03722         MOVWF   (_rn + 223), B
                      03723         .line   570; ../../RF24Network_c.c      return 1;               
00026A 0E01           03724         MOVLW   0x01
00026C EF?? F0??      03725         GOTO    _00367_DS_
000270                03726 _00355_DS_:
                      03727         .line   573; ../../RF24Network_c.c      if(header->type == NETWORK_LAST_FRAGMENT || header->type
                             == NETWORK_MORE_FRAGMENTS || header->type == NETWORK_MORE_FRAGMENTS_NACK){
000270 50??           03728         MOVF    r0x08, W
000272 0A96           03729         XORLW   0x96
000274 E0??           03730         BZ      _00350_DS_
000276 50??           03731         MOVF    r0x08, W
000278 0A95           03732         XORLW   0x95
00027A E0??           03733         BZ      _00350_DS_
00027C 50??           03734         MOVF    r0x08, W
00027E 0AC8           03735         XORLW   0xc8
000280 E0??           03736         BZ      _00350_DS_
000282 D???           03737         BRA     _00361_DS_
000284                03738 _00350_DS_:
                      03739         .line   575; ../../RF24Network_c.c      if(rn.frag_queue.message_size + message_size > MAX_PAYLO
                            AD_SIZE){
000284 C??? F???      03740         MOVFF   (_rn + 224), r0x09
000288 C??? F???      03741         MOVFF   (_rn + 225), r0x0a
00028C 50??           03742         MOVF    r0x03, W
00028E 24??           03743         ADDWF   r0x09, W
Message[1301]: Using default destination of 0 (Access Bank).
000290 6E??           03744         MOVWF   r0x0b
000292 50??           03745         MOVF    r0x04, W
000294 20??           03746         ADDWFC  r0x0a, W
Message[1301]: Using default destination of 0 (Access Bank).
000296 6E??           03747         MOVWF   r0x0c
000298 0E00           03748         MOVLW   0x00
00029A 5C??           03749         SUBWF   r0x0c, W
00029C E1??           03750         BNZ     _00464_DS_
00029E 0E91           03751         MOVLW   0x91
0002A0 5C??           03752         SUBWF   r0x0b, W
0002A2                03753 _00464_DS_:
0002A2 E3??           03754         BNC     _00335_DS_
0002A4 ????           03755         BANKSEL (_rn + 223)
                      03756         .line   580; ../../RF24Network_c.c      rn.frag_queue.header.reserved=0;
0002A6 6B??           03757         CLRF    (_rn + 223), B
gpasm-1.4.0 #1107 (May  9 2015) build/sdcc/pr   12-5-2016  17:29:30         PAGE 83


LOC    OBJECT CODE    LINE  SOURCE TEXT
  VALUE

                      03758         .line   581; ../../RF24Network_c.c      return 0;
Message[1301]: Using default destination of 0 (Access Bank).
0002A8 6AE8           03759         CLRF    WREG
0002AA EF?? F0??      03760         GOTO    _00367_DS_
0002AE                03761 _00335_DS_:
                      03762         .line   583; ../../RF24Network_c.c      if(  rn.frag_queue.header.reserved == 0 || (header->type
                             != NETWORK_LAST_FRAGMENT && header->reserved != rn.frag_queue.header.reserved ) || rn.frag_queue.header
                            .id != header->id ){
0002AE C??? F???      03763         MOVFF   (_rn + 223), r0x0b
0002B2 50??           03764         MOVF    r0x0b, W
0002B4 E0??           03765         BZ      _00336_DS_
0002B6 50??           03766         MOVF    r0x08, W
0002B8 0A96           03767         XORLW   0x96
0002BA E0??           03768         BZ      _00340_DS_
0002BC 50??           03769         MOVF    r0x00, W
0002BE 0F07           03770         ADDLW   0x07
Message[1301]: Using default destination of 0 (Access Bank).
0002C0 6E??           03771         MOVWF   r0x0c
0002C2 0E00           03772         MOVLW   0x00
0002C4 20??           03773         ADDWFC  r0x01, W
Message[1301]: Using default destination of 0 (Access Bank).
0002C6 6E??           03774         MOVWF   r0x0d
0002C8 0E00           03775         MOVLW   0x00
0002CA 20??           03776         ADDWFC  r0x02, W
Message[1301]: Using default destination of 0 (Access Bank).
0002CC 6E??           03777         MOVWF   r0x0e
0002CE C??? F???      03778         MOVFF   r0x0c, FSR0L
0002D2 C??? F???      03779         MOVFF   r0x0d, PRODL
0002D6 50??           03780         MOVF    r0x0e, W
0002D8 EC?? F0??      03781         CALL    __gptrget1
Message[1301]: Using default destination of 0 (Access Bank).
0002DC 6E??           03782         MOVWF   r0x0c
0002DE 50??           03783         MOVF    r0x0c, W
0002E0 18??           03784         XORWF   r0x0b, W
0002E2 E1??           03785         BNZ     _00336_DS_
0002E4                03786 _00340_DS_:
0002E4 50??           03787         MOVF    r0x00, W
0002E6 0F04           03788         ADDLW   0x04
Message[1301]: Using default destination of 0 (Access Bank).
0002E8 6E??           03789         MOVWF   r0x0b
0002EA 0E00           03790         MOVLW   0x00
0002EC 20??           03791         ADDWFC  r0x01, W
Message[1301]: Using default destination of 0 (Access Bank).
0002EE 6E??           03792         MOVWF   r0x0c
0002F0 0E00           03793         MOVLW   0x00
0002F2 20??           03794         ADDWFC  r0x02, W
Message[1301]: Using default destination of 0 (Access Bank).
0002F4 6E??           03795         MOVWF   r0x0d
0002F6 C??? F???      03796         MOVFF   r0x0b, FSR0L
0002FA C??? F???      03797         MOVFF   r0x0c, PRODL
0002FE 50??           03798         MOVF    r0x0d, W
000300 EC?? F0??      03799         CALL    __gptrget2
Message[1301]: Using default destination of 0 (Access Bank).
gpasm-1.4.0 #1107 (May  9 2015) build/sdcc/pr   12-5-2016  17:29:30         PAGE 84


LOC    OBJECT CODE    LINE  SOURCE TEXT
  VALUE

000304 6E??           03800         MOVWF   r0x0b
000306 CFF3 F000      03801         MOVFF   PRODL, r0x0c
00030A ????           03802         BANKSEL (_rn + 220)
00030C 51??           03803         MOVF    (_rn + 220), W, B
00030E 18??           03804         XORWF   r0x0b, W
000310 E1??           03805         BNZ     _00336_DS_
000312 ????           03806         BANKSEL (_rn + 221)
000314 51??           03807         MOVF    (_rn + 221), W, B
000316 18??           03808         XORWF   r0x0c, W
000318 E0??           03809         BZ      _00337_DS_
00031A                03810 _00336_DS_:
                      03811         .line   589; ../../RF24Network_c.c      return 0;
Message[1301]: Using default destination of 0 (Access Bank).
00031A 6AE8           03812         CLRF    WREG
00031C EF?? F0??      03813         GOTO    _00367_DS_
000320                03814 _00337_DS_:
                      03815         .line   592; ../../RF24Network_c.c      memcpy(rn.frag_queue.message_buffer+rn.frag_queue.messag
                            e_size,rn.frame_buffer+sizeof(RF24NetworkHeader),message_size);
Message[1301]: Using default destination of 0 (Access Bank).
000320 6A??           03816         CLRF    r0x0b
000322 ????           03817         BANKSEL (_rn + 226)
000324 51??           03818         MOVF    (_rn + 226), W, B
000326 26??           03819         ADDWF   r0x09, F
000328 ????           03820         BANKSEL (_rn + 227)
00032A 51??           03821         MOVF    (_rn + 227), W, B
00032C 22??           03822         ADDWFC  r0x0a, F
00032E ????           03823         BANKSEL (_rn + 228)
000330 51??           03824         MOVF    (_rn + 228), W, B
000332 22??           03825         ADDWFC  r0x0b, F
000334 50??           03826         MOVF    r0x0b, W
Message[1301]: Using default destination of 0 (Access Bank).
000336 6E??           03827         MOVWF   r0x0b
000338 50??           03828         MOVF    r0x0a, W
Message[1301]: Using default destination of 0 (Access Bank).
00033A 6E??           03829         MOVWF   r0x0a
00033C 50??           03830         MOVF    r0x09, W
Message[1301]: Using default destination of 0 (Access Bank).
00033E 6E??           03831         MOVWF   r0x09
000340 0E??           03832         MOVLW   HIGH(_rn + 15)
Message[1301]: Using default destination of 0 (Access Bank).
000342 6E??           03833         MOVWF   r0x0d
000344 0E??           03834         MOVLW   LOW(_rn + 15)
Message[1301]: Using default destination of 0 (Access Bank).
000346 6E??           03835         MOVWF   r0x0c
000348 0E80           03836         MOVLW   0x80
Message[1301]: Using default destination of 0 (Access Bank).
00034A 6E??           03837         MOVWF   r0x0e
00034C 50??           03838         MOVF    r0x04, W
Message[1301]: Using default destination of 0 (Access Bank).
00034E 6EE5           03839         MOVWF   POSTDEC1
000350 50??           03840         MOVF    r0x03, W
Message[1301]: Using default destination of 0 (Access Bank).
000352 6EE5           03841         MOVWF   POSTDEC1
gpasm-1.4.0 #1107 (May  9 2015) build/sdcc/pr   12-5-2016  17:29:30         PAGE 85


LOC    OBJECT CODE    LINE  SOURCE TEXT
  VALUE

000354 50??           03842         MOVF    r0x0e, W
Message[1301]: Using default destination of 0 (Access Bank).
000356 6EE5           03843         MOVWF   POSTDEC1
000358 50??           03844         MOVF    r0x0d, W
Message[1301]: Using default destination of 0 (Access Bank).
00035A 6EE5           03845         MOVWF   POSTDEC1
00035C 50??           03846         MOVF    r0x0c, W
Message[1301]: Using default destination of 0 (Access Bank).
00035E 6EE5           03847         MOVWF   POSTDEC1
000360 50??           03848         MOVF    r0x0b, W
Message[1301]: Using default destination of 0 (Access Bank).
000362 6EE5           03849         MOVWF   POSTDEC1
000364 50??           03850         MOVF    r0x0a, W
Message[1301]: Using default destination of 0 (Access Bank).
000366 6EE5           03851         MOVWF   POSTDEC1
000368 50??           03852         MOVF    r0x09, W
Message[1301]: Using default destination of 0 (Access Bank).
00036A 6EE5           03853         MOVWF   POSTDEC1
00036C EC?? F0??      03854         CALL    _memcpy
000370 0E08           03855         MOVLW   0x08
000372 26E1           03856         ADDWF   FSR1L, F
                      03857         .line   593; ../../RF24Network_c.c      rn.frag_queue.message_size += message_size;
000374 50??           03858         MOVF    r0x03, W
000376 ????           03859         BANKSEL (_rn + 224)
000378 25??           03860         ADDWF   (_rn + 224), W, B
Message[1301]: Using default destination of 0 (Access Bank).
00037A 6E??           03861         MOVWF   r0x09
00037C 50??           03862         MOVF    r0x04, W
00037E ????           03863         BANKSEL (_rn + 225)
000380 21??           03864         ADDWFC  (_rn + 225), W, B
Message[1301]: Using default destination of 0 (Access Bank).
000382 6E??           03865         MOVWF   r0x0a
000384 50??           03866         MOVF    r0x09, W
000386 ????           03867         BANKSEL (_rn + 224)
000388 6F??           03868         MOVWF   (_rn + 224), B
00038A 50??           03869         MOVF    r0x0a, W
00038C ????           03870         BANKSEL (_rn + 225)
00038E 6F??           03871         MOVWF   (_rn + 225), B
                      03872         .line   595; ../../RF24Network_c.c      if(header->type != NETWORK_LAST_FRAGMENT){
000390 C??? F???      03873         MOVFF   r0x05, FSR0L
000394 C??? F???      03874         MOVFF   r0x06, PRODL
000398 50??           03875         MOVF    r0x07, W
00039A EC?? F0??      03876         CALL    __gptrget1
Message[1301]: Using default destination of 0 (Access Bank).
00039E 6E??           03877         MOVWF   r0x05
0003A0 50??           03878         MOVF    r0x05, W
0003A2 0A96           03879         XORLW   0x96
0003A4 E0??           03880         BZ      _00342_DS_
0003A6                03881 _00472_DS_:
0003A6 ????           03882         BANKSEL (_rn + 223)
                      03883         .line   596; ../../RF24Network_c.c      --rn.frag_queue.header.reserved;
0003A8 05??           03884         DECF    (_rn + 223), W, B
Message[1301]: Using default destination of 0 (Access Bank).
gpasm-1.4.0 #1107 (May  9 2015) build/sdcc/pr   12-5-2016  17:29:30         PAGE 86


LOC    OBJECT CODE    LINE  SOURCE TEXT
  VALUE

0003AA 6E??           03885         MOVWF   r0x05
0003AC 50??           03886         MOVF    r0x05, W
0003AE ????           03887         BANKSEL (_rn + 223)
0003B0 6F??           03888         MOVWF   (_rn + 223), B
                      03889         .line   597; ../../RF24Network_c.c      return 1;
0003B2 0E01           03890         MOVLW   0x01
0003B4 EF?? F0??      03891         GOTO    _00367_DS_
0003B8                03892 _00342_DS_:
0003B8 ????           03893         BANKSEL (_rn + 223)
                      03894         .line   599; ../../RF24Network_c.c      rn.frag_queue.header.reserved = 0;
0003BA 6B??           03895         CLRF    (_rn + 223), B
                      03896         .line   600; ../../RF24Network_c.c      rn.frag_queue.header.type = header->reserved;
0003BC 0E07           03897         MOVLW   0x07
0003BE 26??           03898         ADDWF   r0x00, F
0003C0 0E00           03899         MOVLW   0x00
0003C2 22??           03900         ADDWFC  r0x01, F
0003C4 22??           03901         ADDWFC  r0x02, F
0003C6 C??? F???      03902         MOVFF   r0x00, FSR0L
0003CA C??? F???      03903         MOVFF   r0x01, PRODL
0003CE 50??           03904         MOVF    r0x02, W
0003D0 EC?? F0??      03905         CALL    __gptrget1
Message[1301]: Using default destination of 0 (Access Bank).
0003D4 6E??           03906         MOVWF   r0x00
0003D6 50??           03907         MOVF    r0x00, W
0003D8 ????           03908         BANKSEL (_rn + 222)
0003DA 6F??           03909         MOVWF   (_rn + 222), B
                      03910         .line   606; ../../RF24Network_c.c      if(rn.frag_queue.header.type == EXTERNAL_DATA_TYPE){
0003DC 50??           03911         MOVF    r0x00, W
0003DE 0A83           03912         XORLW   0x83
0003E0 E1??           03913         BNZ     _00344_DS_
                      03914         .line   607; ../../RF24Network_c.c      return 2;
0003E2 0E02           03915         MOVLW   0x02
0003E4 EF?? F0??      03916         GOTO    _00367_DS_
0003E8                03917 _00344_DS_:
                      03918         .line   613; ../../RF24Network_c.c      if(MAX_PAYLOAD_SIZE - (rn.next_frame-rn.frame_queue) >= 
                            rn.frag_queue.message_size){
0003E8 C??? F???      03919         MOVFF   (_rn + 213), r0x00
0003EC C??? F???      03920         MOVFF   (_rn + 214), r0x01
0003F0 C??? F???      03921         MOVFF   (_rn + 215), r0x02
0003F4 0E??           03922         MOVLW   LOW(_rn + 59)
0003F6 5C??           03923         SUBWF   r0x00, W
Message[1301]: Using default destination of 0 (Access Bank).
0003F8 6E??           03924         MOVWF   r0x05
0003FA 0E??           03925         MOVLW   HIGH(_rn + 59)
0003FC 58??           03926         SUBWFB  r0x01, W
Message[1301]: Using default destination of 0 (Access Bank).
0003FE 6E??           03927         MOVWF   r0x06
000400 50??           03928         MOVF    r0x05, W
000402 0890           03929         SUBLW   0x90
Message[1301]: Using default destination of 0 (Access Bank).
000404 6E??           03930         MOVWF   r0x05
000406 0E00           03931         MOVLW   0x00
000408 56??           03932         SUBFWB  r0x06, F
gpasm-1.4.0 #1107 (May  9 2015) build/sdcc/pr   12-5-2016  17:29:30         PAGE 87


LOC    OBJECT CODE    LINE  SOURCE TEXT
  VALUE

00040A ????           03933         BANKSEL (_rn + 225)
00040C 51??           03934         MOVF    (_rn + 225), W, B
00040E 5C??           03935         SUBWF   r0x06, W
000410 E1??           03936         BNZ     _00475_DS_
000412 ????           03937         BANKSEL (_rn + 224)
000414 51??           03938         MOVF    (_rn + 224), W, B
000416 5C??           03939         SUBWF   r0x05, W
000418                03940 _00475_DS_:
000418 A0D8           03941         BTFSS   STATUS, 0
00041A D???           03942         BRA     _00348_DS_
                      03943         .line   615; ../../RF24Network_c.c      memcpy(rn.next_frame,&rn.frag_queue,10);
00041C 50??           03944         MOVF    r0x02, W
Message[1301]: Using default destination of 0 (Access Bank).
00041E 6E??           03945         MOVWF   r0x02
000420 50??           03946         MOVF    r0x01, W
Message[1301]: Using default destination of 0 (Access Bank).
000422 6E??           03947         MOVWF   r0x01
000424 50??           03948         MOVF    r0x00, W
Message[1301]: Using default destination of 0 (Access Bank).
000426 6E??           03949         MOVWF   r0x00
000428 0E??           03950         MOVLW   HIGH(_rn + 216)
Message[1301]: Using default destination of 0 (Access Bank).
00042A 6E??           03951         MOVWF   r0x06
00042C 0E??           03952         MOVLW   LOW(_rn + 216)
Message[1301]: Using default destination of 0 (Access Bank).
00042E 6E??           03953         MOVWF   r0x05
000430 0E80           03954         MOVLW   0x80
Message[1301]: Using default destination of 0 (Access Bank).
000432 6E??           03955         MOVWF   r0x07
000434 0E00           03956         MOVLW   0x00
Message[1301]: Using default destination of 0 (Access Bank).
000436 6EE5           03957         MOVWF   POSTDEC1
000438 0E0A           03958         MOVLW   0x0a
Message[1301]: Using default destination of 0 (Access Bank).
00043A 6EE5           03959         MOVWF   POSTDEC1
00043C 50??           03960         MOVF    r0x07, W
Message[1301]: Using default destination of 0 (Access Bank).
00043E 6EE5           03961         MOVWF   POSTDEC1
000440 50??           03962         MOVF    r0x06, W
Message[1301]: Using default destination of 0 (Access Bank).
000442 6EE5           03963         MOVWF   POSTDEC1
000444 50??           03964         MOVF    r0x05, W
Message[1301]: Using default destination of 0 (Access Bank).
000446 6EE5           03965         MOVWF   POSTDEC1
000448 50??           03966         MOVF    r0x02, W
Message[1301]: Using default destination of 0 (Access Bank).
00044A 6EE5           03967         MOVWF   POSTDEC1
00044C 50??           03968         MOVF    r0x01, W
Message[1301]: Using default destination of 0 (Access Bank).
00044E 6EE5           03969         MOVWF   POSTDEC1
000450 50??           03970         MOVF    r0x00, W
Message[1301]: Using default destination of 0 (Access Bank).
000452 6EE5           03971         MOVWF   POSTDEC1
gpasm-1.4.0 #1107 (May  9 2015) build/sdcc/pr   12-5-2016  17:29:30         PAGE 88


LOC    OBJECT CODE    LINE  SOURCE TEXT
  VALUE

000454 EC?? F0??      03972         CALL    _memcpy
000458 0E08           03973         MOVLW   0x08
00045A 26E1           03974         ADDWF   FSR1L, F
00045C ????           03975         BANKSEL (_rn + 213)
                      03976         .line   616; ../../RF24Network_c.c      memcpy(rn.next_frame+10,rn.frag_queue.message_buffer,rn.
                            frag_queue.message_size);
00045E 51??           03977         MOVF    (_rn + 213), W, B
000460 0F0A           03978         ADDLW   0x0a
Message[1301]: Using default destination of 0 (Access Bank).
000462 6E??           03979         MOVWF   r0x00
000464 0E00           03980         MOVLW   0x00
000466 ????           03981         BANKSEL (_rn + 214)
000468 21??           03982         ADDWFC  (_rn + 214), W, B
Message[1301]: Using default destination of 0 (Access Bank).
00046A 6E??           03983         MOVWF   r0x01
00046C 0E00           03984         MOVLW   0x00
00046E ????           03985         BANKSEL (_rn + 215)
000470 21??           03986         ADDWFC  (_rn + 215), W, B
Message[1301]: Using default destination of 0 (Access Bank).
000472 6E??           03987         MOVWF   r0x02
000474 50??           03988         MOVF    r0x02, W
Message[1301]: Using default destination of 0 (Access Bank).
000476 6E??           03989         MOVWF   r0x02
000478 50??           03990         MOVF    r0x01, W
Message[1301]: Using default destination of 0 (Access Bank).
00047A 6E??           03991         MOVWF   r0x01
00047C 50??           03992         MOVF    r0x00, W
Message[1301]: Using default destination of 0 (Access Bank).
00047E 6E??           03993         MOVWF   r0x00
000480 ????           03994         BANKSEL (_rn + 228)
000482 51??           03995         MOVF    (_rn + 228), W, B
Message[1301]: Using default destination of 0 (Access Bank).
000484 6E??           03996         MOVWF   r0x07
000486 ????           03997         BANKSEL (_rn + 227)
000488 51??           03998         MOVF    (_rn + 227), W, B
Message[1301]: Using default destination of 0 (Access Bank).
00048A 6E??           03999         MOVWF   r0x06
00048C ????           04000         BANKSEL (_rn + 226)
00048E 51??           04001         MOVF    (_rn + 226), W, B
Message[1301]: Using default destination of 0 (Access Bank).
000490 6E??           04002         MOVWF   r0x05
000492 ????           04003         BANKSEL (_rn + 225)
000494 51??           04004         MOVF    (_rn + 225), W, B
Message[1301]: Using default destination of 0 (Access Bank).
000496 6EE5           04005         MOVWF   POSTDEC1
000498 ????           04006         BANKSEL (_rn + 224)
00049A 51??           04007         MOVF    (_rn + 224), W, B
Message[1301]: Using default destination of 0 (Access Bank).
00049C 6EE5           04008         MOVWF   POSTDEC1
00049E 50??           04009         MOVF    r0x07, W
Message[1301]: Using default destination of 0 (Access Bank).
0004A0 6EE5           04010         MOVWF   POSTDEC1
0004A2 50??           04011         MOVF    r0x06, W
gpasm-1.4.0 #1107 (May  9 2015) build/sdcc/pr   12-5-2016  17:29:30         PAGE 89


LOC    OBJECT CODE    LINE  SOURCE TEXT
  VALUE

Message[1301]: Using default destination of 0 (Access Bank).
0004A4 6EE5           04012         MOVWF   POSTDEC1
0004A6 50??           04013         MOVF    r0x05, W
Message[1301]: Using default destination of 0 (Access Bank).
0004A8 6EE5           04014         MOVWF   POSTDEC1
0004AA 50??           04015         MOVF    r0x02, W
Message[1301]: Using default destination of 0 (Access Bank).
0004AC 6EE5           04016         MOVWF   POSTDEC1
0004AE 50??           04017         MOVF    r0x01, W
Message[1301]: Using default destination of 0 (Access Bank).
0004B0 6EE5           04018         MOVWF   POSTDEC1
0004B2 50??           04019         MOVF    r0x00, W
Message[1301]: Using default destination of 0 (Access Bank).
0004B4 6EE5           04020         MOVWF   POSTDEC1
0004B6 EC?? F0??      04021         CALL    _memcpy
0004BA 0E08           04022         MOVLW   0x08
0004BC 26E1           04023         ADDWF   FSR1L, F
0004BE ????           04024         BANKSEL (_rn + 224)
                      04025         .line   617; ../../RF24Network_c.c      rn.next_frame += (10+rn.frag_queue.message_size);
0004C0 51??           04026         MOVF    (_rn + 224), W, B
0004C2 0F0A           04027         ADDLW   0x0a
Message[1301]: Using default destination of 0 (Access Bank).
0004C4 6E??           04028         MOVWF   r0x00
0004C6 0E00           04029         MOVLW   0x00
0004C8 ????           04030         BANKSEL (_rn + 225)
0004CA 21??           04031         ADDWFC  (_rn + 225), W, B
Message[1301]: Using default destination of 0 (Access Bank).
0004CC 6E??           04032         MOVWF   r0x01
Message[1301]: Using default destination of 0 (Access Bank).
0004CE 6A??           04033         CLRF    r0x02
0004D0 ????           04034         BANKSEL (_rn + 213)
0004D2 51??           04035         MOVF    (_rn + 213), W, B
0004D4 26??           04036         ADDWF   r0x00, F
0004D6 ????           04037         BANKSEL (_rn + 214)
0004D8 51??           04038         MOVF    (_rn + 214), W, B
0004DA 22??           04039         ADDWFC  r0x01, F
0004DC ????           04040         BANKSEL (_rn + 215)
0004DE 51??           04041         MOVF    (_rn + 215), W, B
0004E0 22??           04042         ADDWFC  r0x02, F
0004E2 50??           04043         MOVF    r0x00, W
0004E4 ????           04044         BANKSEL (_rn + 213)
0004E6 6F??           04045         MOVWF   (_rn + 213), B
0004E8 50??           04046         MOVF    r0x01, W
0004EA ????           04047         BANKSEL (_rn + 214)
0004EC 6F??           04048         MOVWF   (_rn + 214), B
0004EE 50??           04049         MOVF    r0x02, W
0004F0 ????           04050         BANKSEL (_rn + 215)
0004F2 6F??           04051         MOVWF   (_rn + 215), B
0004F4 ????           04052         BANKSEL (_rn + 224)
                      04053         .line   619; ../../RF24Network_c.c      if((padding = (rn.frag_queue.message_size+10)%4)){
0004F6 51??           04054         MOVF    (_rn + 224), W, B
0004F8 0F0A           04055         ADDLW   0x0a
Message[1301]: Using default destination of 0 (Access Bank).
gpasm-1.4.0 #1107 (May  9 2015) build/sdcc/pr   12-5-2016  17:29:30         PAGE 90


LOC    OBJECT CODE    LINE  SOURCE TEXT
  VALUE

0004FA 6E??           04056         MOVWF   r0x00
0004FC 0E00           04057         MOVLW   0x00
0004FE ????           04058         BANKSEL (_rn + 225)
000500 21??           04059         ADDWFC  (_rn + 225), W, B
Message[1301]: Using default destination of 0 (Access Bank).
000502 6E??           04060         MOVWF   r0x01
000504 0E03           04061         MOVLW   0x03
000506 16??           04062         ANDWF   r0x00, F
Message[1301]: Using default destination of 0 (Access Bank).
000508 6A??           04063         CLRF    r0x01
00050A C??? F???      04064         MOVFF   r0x00, r0x01
00050E 50??           04065         MOVF    r0x00, W
000510 E0??           04066         BZ      _00346_DS_
                      04067         .line   620; ../../RF24Network_c.c      rn.next_frame += 4 - padding;
Message[1301]: Using default destination of 0 (Access Bank).
000512 6A??           04068         CLRF    r0x00
000514 50??           04069         MOVF    r0x01, W
000516 0804           04070         SUBLW   0x04
Message[1301]: Using default destination of 0 (Access Bank).
000518 6E??           04071         MOVWF   r0x01
00051A 0E00           04072         MOVLW   0x00
00051C 56??           04073         SUBFWB  r0x00, F
Message[1301]: Using default destination of 0 (Access Bank).
00051E 6A??           04074         CLRF    r0x02
000520 BE??           04075         BTFSC   r0x00, 7
Message[1301]: Using default destination of 0 (Access Bank).
000522 68??           04076         SETF    r0x02
000524 ????           04077         BANKSEL (_rn + 213)
000526 51??           04078         MOVF    (_rn + 213), W, B
000528 26??           04079         ADDWF   r0x01, F
00052A ????           04080         BANKSEL (_rn + 214)
00052C 51??           04081         MOVF    (_rn + 214), W, B
00052E 22??           04082         ADDWFC  r0x00, F
000530 ????           04083         BANKSEL (_rn + 215)
000532 51??           04084         MOVF    (_rn + 215), W, B
000534 22??           04085         ADDWFC  r0x02, F
000536 50??           04086         MOVF    r0x01, W
000538 ????           04087         BANKSEL (_rn + 213)
00053A 6F??           04088         MOVWF   (_rn + 213), B
00053C 50??           04089         MOVF    r0x00, W
00053E ????           04090         BANKSEL (_rn + 214)
000540 6F??           04091         MOVWF   (_rn + 214), B
000542 50??           04092         MOVF    r0x02, W
000544 ????           04093         BANKSEL (_rn + 215)
000546 6F??           04094         MOVWF   (_rn + 215), B
000548                04095 _00346_DS_:
                      04096         .line   624; ../../RF24Network_c.c      return 1;
000548 0E01           04097         MOVLW   0x01
00054A D???           04098         BRA     _00367_DS_
00054C                04099 _00348_DS_:
                      04100         .line   626; ../../RF24Network_c.c      RF24_stopListening();
00054C EC?? F0??      04101         CALL    _RF24_stopListening
                      04102         .line   627; ../../RF24Network_c.c      rn.networkFlags |= FLAG_HOLD_INCOMING;          
gpasm-1.4.0 #1107 (May  9 2015) build/sdcc/pr   12-5-2016  17:29:30         PAGE 91


LOC    OBJECT CODE    LINE  SOURCE TEXT
  VALUE

000550 0E01           04103         MOVLW   0x01
000552 ????           04104         BANKSEL (_rn + 43)
000554 11??           04105         IORWF   (_rn + 43), W, B
Message[1301]: Using default destination of 0 (Access Bank).
000556 6E??           04106         MOVWF   r0x00
000558 50??           04107         MOVF    r0x00, W
00055A ????           04108         BANKSEL (_rn + 43)
00055C 6F??           04109         MOVWF   (_rn + 43), B
                      04110         .line   630; ../../RF24Network_c.c      return 0;
Message[1301]: Using default destination of 0 (Access Bank).
00055E 6AE8           04111         CLRF    WREG
000560 D???           04112         BRA     _00367_DS_
000562                04113 _00360_DS_:
                      04114         .line   640; ../../RF24Network_c.c      if(header->type == EXTERNAL_DATA_TYPE){
000562 50??           04115         MOVF    r0x08, W
000564 0A83           04116         XORLW   0x83
000566 E0??           04117         BZ      _00479_DS_
000568 D???           04118         BRA     _00361_DS_
00056A                04119 _00479_DS_:
                      04120         .line   641; ../../RF24Network_c.c      memcpy(&rn.frag_queue,rn.frame_buffer,8);
00056A 0E??           04121         MOVLW   HIGH(_rn + 216)
Message[1301]: Using default destination of 0 (Access Bank).
00056C 6E??           04122         MOVWF   r0x01
00056E 0E??           04123         MOVLW   LOW(_rn + 216)
Message[1301]: Using default destination of 0 (Access Bank).
000570 6E??           04124         MOVWF   r0x00
000572 0E80           04125         MOVLW   0x80
Message[1301]: Using default destination of 0 (Access Bank).
000574 6E??           04126         MOVWF   r0x02
000576 0E??           04127         MOVLW   HIGH(_rn + 7)
Message[1301]: Using default destination of 0 (Access Bank).
000578 6E??           04128         MOVWF   r0x06
00057A 0E??           04129         MOVLW   LOW(_rn + 7)
Message[1301]: Using default destination of 0 (Access Bank).
00057C 6E??           04130         MOVWF   r0x05
00057E 0E80           04131         MOVLW   0x80
Message[1301]: Using default destination of 0 (Access Bank).
000580 6E??           04132         MOVWF   r0x07
000582 0E00           04133         MOVLW   0x00
Message[1301]: Using default destination of 0 (Access Bank).
000584 6EE5           04134         MOVWF   POSTDEC1
000586 0E08           04135         MOVLW   0x08
Message[1301]: Using default destination of 0 (Access Bank).
000588 6EE5           04136         MOVWF   POSTDEC1
00058A 50??           04137         MOVF    r0x07, W
Message[1301]: Using default destination of 0 (Access Bank).
00058C 6EE5           04138         MOVWF   POSTDEC1
00058E 50??           04139         MOVF    r0x06, W
Message[1301]: Using default destination of 0 (Access Bank).
000590 6EE5           04140         MOVWF   POSTDEC1
000592 50??           04141         MOVF    r0x05, W
Message[1301]: Using default destination of 0 (Access Bank).
000594 6EE5           04142         MOVWF   POSTDEC1
gpasm-1.4.0 #1107 (May  9 2015) build/sdcc/pr   12-5-2016  17:29:30         PAGE 92


LOC    OBJECT CODE    LINE  SOURCE TEXT
  VALUE

000596 50??           04143         MOVF    r0x02, W
Message[1301]: Using default destination of 0 (Access Bank).
000598 6EE5           04144         MOVWF   POSTDEC1
00059A 50??           04145         MOVF    r0x01, W
Message[1301]: Using default destination of 0 (Access Bank).
00059C 6EE5           04146         MOVWF   POSTDEC1
00059E 50??           04147         MOVF    r0x00, W
Message[1301]: Using default destination of 0 (Access Bank).
0005A0 6EE5           04148         MOVWF   POSTDEC1
0005A2 EC?? F0??      04149         CALL    _memcpy
0005A6 0E08           04150         MOVLW   0x08
0005A8 26E1           04151         ADDWF   FSR1L, F
                      04152         .line   642; ../../RF24Network_c.c      rn.frag_queue.message_buffer = rn.frame_buffer+sizeof(RF
                            24NetworkHeader);
0005AA 0E??           04153         MOVLW   HIGH(_rn + 15)
Message[1301]: Using default destination of 0 (Access Bank).
0005AC 6E??           04154         MOVWF   r0x01
0005AE 0E??           04155         MOVLW   LOW(_rn + 15)
Message[1301]: Using default destination of 0 (Access Bank).
0005B0 6E??           04156         MOVWF   r0x00
0005B2 0E80           04157         MOVLW   0x80
Message[1301]: Using default destination of 0 (Access Bank).
0005B4 6E??           04158         MOVWF   r0x02
0005B6 50??           04159         MOVF    r0x00, W
0005B8 ????           04160         BANKSEL (_rn + 226)
0005BA 6F??           04161         MOVWF   (_rn + 226), B
0005BC 50??           04162         MOVF    r0x01, W
0005BE ????           04163         BANKSEL (_rn + 227)
0005C0 6F??           04164         MOVWF   (_rn + 227), B
0005C2 50??           04165         MOVF    r0x02, W
0005C4 ????           04166         BANKSEL (_rn + 228)
0005C6 6F??           04167         MOVWF   (_rn + 228), B
                      04168         .line   643; ../../RF24Network_c.c      rn.frag_queue.message_size = message_size;
0005C8 50??           04169         MOVF    r0x03, W
0005CA ????           04170         BANKSEL (_rn + 224)
0005CC 6F??           04171         MOVWF   (_rn + 224), B
0005CE 50??           04172         MOVF    r0x04, W
0005D0 ????           04173         BANKSEL (_rn + 225)
0005D2 6F??           04174         MOVWF   (_rn + 225), B
                      04175         .line   644; ../../RF24Network_c.c      return 2;
0005D4 0E02           04176         MOVLW   0x02
0005D6 D???           04177         BRA     _00367_DS_
0005D8                04178 _00361_DS_:
                      04179         .line   651; ../../RF24Network_c.c      if(message_size + (rn.next_frame-rn.frame_queue) <= MAIN
                            _BUFFER_SIZE){
0005D8 C??? F???      04180         MOVFF   (_rn + 213), r0x00
0005DC C??? F???      04181         MOVFF   (_rn + 214), r0x01
0005E0 C??? F???      04182         MOVFF   (_rn + 215), r0x02
0005E4 0E??           04183         MOVLW   LOW(_rn + 59)
0005E6 5C??           04184         SUBWF   r0x00, W
Message[1301]: Using default destination of 0 (Access Bank).
0005E8 6E??           04185         MOVWF   r0x05
0005EA 0E??           04186         MOVLW   HIGH(_rn + 59)
gpasm-1.4.0 #1107 (May  9 2015) build/sdcc/pr   12-5-2016  17:29:30         PAGE 93


LOC    OBJECT CODE    LINE  SOURCE TEXT
  VALUE

0005EC 58??           04187         SUBWFB  r0x01, W
Message[1301]: Using default destination of 0 (Access Bank).
0005EE 6E??           04188         MOVWF   r0x06
0005F0 50??           04189         MOVF    r0x05, W
0005F2 26??           04190         ADDWF   r0x03, F
0005F4 50??           04191         MOVF    r0x06, W
0005F6 22??           04192         ADDWFC  r0x04, F
0005F8 0E00           04193         MOVLW   0x00
0005FA 5C??           04194         SUBWF   r0x04, W
0005FC E1??           04195         BNZ     _00480_DS_
0005FE 0E9B           04196         MOVLW   0x9b
000600 5C??           04197         SUBWF   r0x03, W
000602                04198 _00480_DS_:
000602 B0D8           04199         BTFSC   STATUS, 0
000604 D???           04200         BRA     _00365_DS_
                      04201         .line   653; ../../RF24Network_c.c      memcpy(rn.next_frame,rn.frame_buffer,8);
000606 50??           04202         MOVF    r0x02, W
Message[1301]: Using default destination of 0 (Access Bank).
000608 6E??           04203         MOVWF   r0x02
00060A 50??           04204         MOVF    r0x01, W
Message[1301]: Using default destination of 0 (Access Bank).
00060C 6E??           04205         MOVWF   r0x01
00060E 50??           04206         MOVF    r0x00, W
Message[1301]: Using default destination of 0 (Access Bank).
000610 6E??           04207         MOVWF   r0x00
000612 0E??           04208         MOVLW   HIGH(_rn + 7)
Message[1301]: Using default destination of 0 (Access Bank).
000614 6E??           04209         MOVWF   r0x04
000616 0E??           04210         MOVLW   LOW(_rn + 7)
Message[1301]: Using default destination of 0 (Access Bank).
000618 6E??           04211         MOVWF   r0x03
00061A 0E80           04212         MOVLW   0x80
Message[1301]: Using default destination of 0 (Access Bank).
00061C 6E??           04213         MOVWF   r0x05
00061E 0E00           04214         MOVLW   0x00
Message[1301]: Using default destination of 0 (Access Bank).
000620 6EE5           04215         MOVWF   POSTDEC1
000622 0E08           04216         MOVLW   0x08
Message[1301]: Using default destination of 0 (Access Bank).
000624 6EE5           04217         MOVWF   POSTDEC1
000626 50??           04218         MOVF    r0x05, W
Message[1301]: Using default destination of 0 (Access Bank).
000628 6EE5           04219         MOVWF   POSTDEC1
00062A 50??           04220         MOVF    r0x04, W
Message[1301]: Using default destination of 0 (Access Bank).
00062C 6EE5           04221         MOVWF   POSTDEC1
00062E 50??           04222         MOVF    r0x03, W
Message[1301]: Using default destination of 0 (Access Bank).
000630 6EE5           04223         MOVWF   POSTDEC1
000632 50??           04224         MOVF    r0x02, W
Message[1301]: Using default destination of 0 (Access Bank).
000634 6EE5           04225         MOVWF   POSTDEC1
000636 50??           04226         MOVF    r0x01, W
gpasm-1.4.0 #1107 (May  9 2015) build/sdcc/pr   12-5-2016  17:29:30         PAGE 94


LOC    OBJECT CODE    LINE  SOURCE TEXT
  VALUE

Message[1301]: Using default destination of 0 (Access Bank).
000638 6EE5           04227         MOVWF   POSTDEC1
00063A 50??           04228         MOVF    r0x00, W
Message[1301]: Using default destination of 0 (Access Bank).
00063C 6EE5           04229         MOVWF   POSTDEC1
00063E EC?? F0??      04230         CALL    _memcpy
000642 0E08           04231         MOVLW   0x08
000644 26E1           04232         ADDWF   FSR1L, F
000646 ????           04233         BANKSEL (_rn + 213)
                      04234         .line   654; ../../RF24Network_c.c      memcpy(rn.next_frame+8,&message_size,2);
000648 51??           04235         MOVF    (_rn + 213), W, B
00064A 0F08           04236         ADDLW   0x08
Message[1301]: Using default destination of 0 (Access Bank).
00064C 6E??           04237         MOVWF   r0x00
00064E 0E00           04238         MOVLW   0x00
000650 ????           04239         BANKSEL (_rn + 214)
000652 21??           04240         ADDWFC  (_rn + 214), W, B
Message[1301]: Using default destination of 0 (Access Bank).
000654 6E??           04241         MOVWF   r0x01
000656 0E00           04242         MOVLW   0x00
000658 ????           04243         BANKSEL (_rn + 215)
00065A 21??           04244         ADDWFC  (_rn + 215), W, B
Message[1301]: Using default destination of 0 (Access Bank).
00065C 6E??           04245         MOVWF   r0x02
00065E 50??           04246         MOVF    r0x02, W
Message[1301]: Using default destination of 0 (Access Bank).
000660 6E??           04247         MOVWF   r0x02
000662 50??           04248         MOVF    r0x01, W
Message[1301]: Using default destination of 0 (Access Bank).
000664 6E??           04249         MOVWF   r0x01
000666 50??           04250         MOVF    r0x00, W
Message[1301]: Using default destination of 0 (Access Bank).
000668 6E??           04251         MOVWF   r0x00
00066A 0E??           04252         MOVLW   HIGH(_RF24N_enqueue_message_size_1_210)
Message[1301]: Using default destination of 0 (Access Bank).
00066C 6E??           04253         MOVWF   r0x04
00066E 0E??           04254         MOVLW   LOW(_RF24N_enqueue_message_size_1_210)
Message[1301]: Using default destination of 0 (Access Bank).
000670 6E??           04255         MOVWF   r0x03
000672 0E80           04256         MOVLW   0x80
Message[1301]: Using default destination of 0 (Access Bank).
000674 6E??           04257         MOVWF   r0x05
000676 0E00           04258         MOVLW   0x00
Message[1301]: Using default destination of 0 (Access Bank).
000678 6EE5           04259         MOVWF   POSTDEC1
00067A 0E02           04260         MOVLW   0x02
Message[1301]: Using default destination of 0 (Access Bank).
00067C 6EE5           04261         MOVWF   POSTDEC1
00067E 50??           04262         MOVF    r0x05, W
Message[1301]: Using default destination of 0 (Access Bank).
000680 6EE5           04263         MOVWF   POSTDEC1
000682 50??           04264         MOVF    r0x04, W
Message[1301]: Using default destination of 0 (Access Bank).
gpasm-1.4.0 #1107 (May  9 2015) build/sdcc/pr   12-5-2016  17:29:30         PAGE 95


LOC    OBJECT CODE    LINE  SOURCE TEXT
  VALUE

000684 6EE5           04265         MOVWF   POSTDEC1
000686 50??           04266         MOVF    r0x03, W
Message[1301]: Using default destination of 0 (Access Bank).
000688 6EE5           04267         MOVWF   POSTDEC1
00068A 50??           04268         MOVF    r0x02, W
Message[1301]: Using default destination of 0 (Access Bank).
00068C 6EE5           04269         MOVWF   POSTDEC1
00068E 50??           04270         MOVF    r0x01, W
Message[1301]: Using default destination of 0 (Access Bank).
000690 6EE5           04271         MOVWF   POSTDEC1
000692 50??           04272         MOVF    r0x00, W
Message[1301]: Using default destination of 0 (Access Bank).
000694 6EE5           04273         MOVWF   POSTDEC1
000696 EC?? F0??      04274         CALL    _memcpy
00069A 0E08           04275         MOVLW   0x08
00069C 26E1           04276         ADDWF   FSR1L, F
00069E ????           04277         BANKSEL (_rn + 213)
                      04278         .line   655; ../../RF24Network_c.c      memcpy(rn.next_frame+10,rn.frame_buffer+8,message_size);
0006A0 51??           04279         MOVF    (_rn + 213), W, B
0006A2 0F0A           04280         ADDLW   0x0a
Message[1301]: Using default destination of 0 (Access Bank).
0006A4 6E??           04281         MOVWF   r0x00
0006A6 0E00           04282         MOVLW   0x00
0006A8 ????           04283         BANKSEL (_rn + 214)
0006AA 21??           04284         ADDWFC  (_rn + 214), W, B
Message[1301]: Using default destination of 0 (Access Bank).
0006AC 6E??           04285         MOVWF   r0x01
0006AE 0E00           04286         MOVLW   0x00
0006B0 ????           04287         BANKSEL (_rn + 215)
0006B2 21??           04288         ADDWFC  (_rn + 215), W, B
Message[1301]: Using default destination of 0 (Access Bank).
0006B4 6E??           04289         MOVWF   r0x02
0006B6 50??           04290         MOVF    r0x02, W
Message[1301]: Using default destination of 0 (Access Bank).
0006B8 6E??           04291         MOVWF   r0x02
0006BA 50??           04292         MOVF    r0x01, W
Message[1301]: Using default destination of 0 (Access Bank).
0006BC 6E??           04293         MOVWF   r0x01
0006BE 50??           04294         MOVF    r0x00, W
Message[1301]: Using default destination of 0 (Access Bank).
0006C0 6E??           04295         MOVWF   r0x00
0006C2 0E??           04296         MOVLW   HIGH(_rn + 15)
Message[1301]: Using default destination of 0 (Access Bank).
0006C4 6E??           04297         MOVWF   r0x04
0006C6 0E??           04298         MOVLW   LOW(_rn + 15)
Message[1301]: Using default destination of 0 (Access Bank).
0006C8 6E??           04299         MOVWF   r0x03
0006CA 0E80           04300         MOVLW   0x80
Message[1301]: Using default destination of 0 (Access Bank).
0006CC 6E??           04301         MOVWF   r0x05
0006CE ????           04302         BANKSEL (_RF24N_enqueue_message_size_1_210 + 1)
0006D0 51??           04303         MOVF    (_RF24N_enqueue_message_size_1_210 + 1), W, B
Message[1301]: Using default destination of 0 (Access Bank).
gpasm-1.4.0 #1107 (May  9 2015) build/sdcc/pr   12-5-2016  17:29:30         PAGE 96


LOC    OBJECT CODE    LINE  SOURCE TEXT
  VALUE

0006D2 6EE5           04304         MOVWF   POSTDEC1
0006D4 ????           04305         BANKSEL _RF24N_enqueue_message_size_1_210
0006D6 51??           04306         MOVF    _RF24N_enqueue_message_size_1_210, W, B
Message[1301]: Using default destination of 0 (Access Bank).
0006D8 6EE5           04307         MOVWF   POSTDEC1
0006DA 50??           04308         MOVF    r0x05, W
Message[1301]: Using default destination of 0 (Access Bank).
0006DC 6EE5           04309         MOVWF   POSTDEC1
0006DE 50??           04310         MOVF    r0x04, W
Message[1301]: Using default destination of 0 (Access Bank).
0006E0 6EE5           04311         MOVWF   POSTDEC1
0006E2 50??           04312         MOVF    r0x03, W
Message[1301]: Using default destination of 0 (Access Bank).
0006E4 6EE5           04313         MOVWF   POSTDEC1
0006E6 50??           04314         MOVF    r0x02, W
Message[1301]: Using default destination of 0 (Access Bank).
0006E8 6EE5           04315         MOVWF   POSTDEC1
0006EA 50??           04316         MOVF    r0x01, W
Message[1301]: Using default destination of 0 (Access Bank).
0006EC 6EE5           04317         MOVWF   POSTDEC1
0006EE 50??           04318         MOVF    r0x00, W
Message[1301]: Using default destination of 0 (Access Bank).
0006F0 6EE5           04319         MOVWF   POSTDEC1
0006F2 EC?? F0??      04320         CALL    _memcpy
0006F6 0E08           04321         MOVLW   0x08
0006F8 26E1           04322         ADDWF   FSR1L, F
0006FA ????           04323         BANKSEL _RF24N_enqueue_message_size_1_210
                      04324         .line   659; ../../RF24Network_c.c      rn.next_frame += (message_size + 10);
0006FC 51??           04325         MOVF    _RF24N_enqueue_message_size_1_210, W, B
0006FE 0F0A           04326         ADDLW   0x0a
Message[1301]: Using default destination of 0 (Access Bank).
000700 6E??           04327         MOVWF   r0x00
000702 0E00           04328         MOVLW   0x00
000704 ????           04329         BANKSEL (_RF24N_enqueue_message_size_1_210 + 1)
000706 21??           04330         ADDWFC  (_RF24N_enqueue_message_size_1_210 + 1), W, B
Message[1301]: Using default destination of 0 (Access Bank).
000708 6E??           04331         MOVWF   r0x01
Message[1301]: Using default destination of 0 (Access Bank).
00070A 6A??           04332         CLRF    r0x02
00070C ????           04333         BANKSEL (_rn + 213)
00070E 51??           04334         MOVF    (_rn + 213), W, B
000710 26??           04335         ADDWF   r0x00, F
000712 ????           04336         BANKSEL (_rn + 214)
000714 51??           04337         MOVF    (_rn + 214), W, B
000716 22??           04338         ADDWFC  r0x01, F
000718 ????           04339         BANKSEL (_rn + 215)
00071A 51??           04340         MOVF    (_rn + 215), W, B
00071C 22??           04341         ADDWFC  r0x02, F
00071E 50??           04342         MOVF    r0x00, W
000720 ????           04343         BANKSEL (_rn + 213)
000722 6F??           04344         MOVWF   (_rn + 213), B
000724 50??           04345         MOVF    r0x01, W
000726 ????           04346         BANKSEL (_rn + 214)
gpasm-1.4.0 #1107 (May  9 2015) build/sdcc/pr   12-5-2016  17:29:30         PAGE 97


LOC    OBJECT CODE    LINE  SOURCE TEXT
  VALUE

000728 6F??           04347         MOVWF   (_rn + 214), B
00072A 50??           04348         MOVF    r0x02, W
00072C ????           04349         BANKSEL (_rn + 215)
00072E 6F??           04350         MOVWF   (_rn + 215), B
000730 ????           04351         BANKSEL _RF24N_enqueue_message_size_1_210
                      04352         .line   661; ../../RF24Network_c.c      if((padding = (message_size+10)%4)){
000732 51??           04353         MOVF    _RF24N_enqueue_message_size_1_210, W, B
000734 0F0A           04354         ADDLW   0x0a
Message[1301]: Using default destination of 0 (Access Bank).
000736 6E??           04355         MOVWF   r0x00
000738 0E00           04356         MOVLW   0x00
00073A ????           04357         BANKSEL (_RF24N_enqueue_message_size_1_210 + 1)
00073C 21??           04358         ADDWFC  (_RF24N_enqueue_message_size_1_210 + 1), W, B
Message[1301]: Using default destination of 0 (Access Bank).
00073E 6E??           04359         MOVWF   r0x01
000740 0E03           04360         MOVLW   0x03
000742 16??           04361         ANDWF   r0x00, F
Message[1301]: Using default destination of 0 (Access Bank).
000744 6A??           04362         CLRF    r0x01
000746 C??? F???      04363         MOVFF   r0x00, r0x01
00074A 50??           04364         MOVF    r0x00, W
00074C E0??           04365         BZ      _00363_DS_
                      04366         .line   662; ../../RF24Network_c.c      rn.next_frame += 4 - padding;
Message[1301]: Using default destination of 0 (Access Bank).
00074E 6A??           04367         CLRF    r0x00
000750 50??           04368         MOVF    r0x01, W
000752 0804           04369         SUBLW   0x04
Message[1301]: Using default destination of 0 (Access Bank).
000754 6E??           04370         MOVWF   r0x01
000756 0E00           04371         MOVLW   0x00
000758 56??           04372         SUBFWB  r0x00, F
Message[1301]: Using default destination of 0 (Access Bank).
00075A 6A??           04373         CLRF    r0x02
00075C BE??           04374         BTFSC   r0x00, 7
Message[1301]: Using default destination of 0 (Access Bank).
00075E 68??           04375         SETF    r0x02
000760 ????           04376         BANKSEL (_rn + 213)
000762 51??           04377         MOVF    (_rn + 213), W, B
000764 26??           04378         ADDWF   r0x01, F
000766 ????           04379         BANKSEL (_rn + 214)
000768 51??           04380         MOVF    (_rn + 214), W, B
00076A 22??           04381         ADDWFC  r0x00, F
00076C ????           04382         BANKSEL (_rn + 215)
00076E 51??           04383         MOVF    (_rn + 215), W, B
000770 22??           04384         ADDWFC  r0x02, F
000772 50??           04385         MOVF    r0x01, W
000774 ????           04386         BANKSEL (_rn + 213)
000776 6F??           04387         MOVWF   (_rn + 213), B
000778 50??           04388         MOVF    r0x00, W
00077A ????           04389         BANKSEL (_rn + 214)
00077C 6F??           04390         MOVWF   (_rn + 214), B
00077E 50??           04391         MOVF    r0x02, W
000780 ????           04392         BANKSEL (_rn + 215)
gpasm-1.4.0 #1107 (May  9 2015) build/sdcc/pr   12-5-2016  17:29:30         PAGE 98


LOC    OBJECT CODE    LINE  SOURCE TEXT
  VALUE

000782 6F??           04393         MOVWF   (_rn + 215), B
000784                04394 _00363_DS_:
                      04395         .line   667; ../../RF24Network_c.c      result = 1;
000784 0E01           04396         MOVLW   0x01
Message[1301]: Using default destination of 0 (Access Bank).
000786 6E??           04397         MOVWF   r0x00
000788 D???           04398         BRA     _00366_DS_
00078A                04399 _00365_DS_:
                      04400         .line   669; ../../RF24Network_c.c      result = 0;
Message[1301]: Using default destination of 0 (Access Bank).
00078A 6A??           04401         CLRF    r0x00
00078C                04402 _00366_DS_:
                      04403         .line   672; ../../RF24Network_c.c      return result;
00078C 50??           04404         MOVF    r0x00, W
00078E                04405 _00367_DS_:
00078E CFE4 F000      04406         MOVFF   PREINC1, r0x0e
000792 CFE4 F000      04407         MOVFF   PREINC1, r0x0d
000796 CFE4 F000      04408         MOVFF   PREINC1, r0x0c
00079A CFE4 F000      04409         MOVFF   PREINC1, r0x0b
00079E CFE4 F000      04410         MOVFF   PREINC1, r0x0a
0007A2 CFE4 F000      04411         MOVFF   PREINC1, r0x09
0007A6 CFE4 F000      04412         MOVFF   PREINC1, r0x08
0007AA CFE4 F000      04413         MOVFF   PREINC1, r0x07
0007AE CFE4 F000      04414         MOVFF   PREINC1, r0x06
0007B2 CFE4 F000      04415         MOVFF   PREINC1, r0x05
0007B6 CFE4 F000      04416         MOVFF   PREINC1, r0x04
0007BA CFE4 F000      04417         MOVFF   PREINC1, r0x03
0007BE CFE4 F000      04418         MOVFF   PREINC1, r0x02
0007C2 CFE4 F000      04419         MOVFF   PREINC1, r0x01
0007C6 CFE4 F000      04420         MOVFF   PREINC1, r0x00
0007CA CFE4 FFD9      04421         MOVFF   PREINC1, FSR2L
0007CE 0012           04422         RETURN  
                      04423 
                      04424 ; ; Starting pCode block
                      04425 S_RF24Network_c__RF24N_update   code
000000                04426 _RF24N_update:
                      04427         .line   226; ../../RF24Network_c.c      uint8_t RF24N_update()
000000 CFD9 FFE5      04428         MOVFF   FSR2L, POSTDEC1
000004 CFE1 FFD9      04429         MOVFF   FSR1L, FSR2L
000008 C??? F???      04430         MOVFF   r0x00, POSTDEC1
00000C C??? F???      04431         MOVFF   r0x01, POSTDEC1
000010 C??? F???      04432         MOVFF   r0x02, POSTDEC1
000014 C??? F???      04433         MOVFF   r0x03, POSTDEC1
000018 C??? F???      04434         MOVFF   r0x04, POSTDEC1
00001C C??? F???      04435         MOVFF   r0x05, POSTDEC1
000020 C??? F???      04436         MOVFF   r0x06, POSTDEC1
000024 C??? F???      04437         MOVFF   r0x07, POSTDEC1
000028 C??? F???      04438         MOVFF   r0x08, POSTDEC1
00002C C??? F???      04439         MOVFF   r0x09, POSTDEC1
000030 C??? F???      04440         MOVFF   r0x0a, POSTDEC1
000034 C??? F???      04441         MOVFF   r0x0b, POSTDEC1
000038 C??? F???      04442         MOVFF   r0x0c, POSTDEC1
00003C C??? F???      04443         MOVFF   r0x0d, POSTDEC1
gpasm-1.4.0 #1107 (May  9 2015) build/sdcc/pr   12-5-2016  17:29:30         PAGE 99


LOC    OBJECT CODE    LINE  SOURCE TEXT
  VALUE

000040 C??? F???      04444         MOVFF   r0x0e, POSTDEC1
                      04445         .line   230; ../../RF24Network_c.c      uint8_t returnVal = 0;
Message[1301]: Using default destination of 0 (Access Bank).
000044 6A??           04446         CLRF    r0x00
                      04447         .line   237; ../../RF24Network_c.c      if(!(rn.networkFlags & FLAG_BYPASS_HOLDS)){
000046 C??? F???      04448         MOVFF   (_rn + 43), r0x01
00004A B2??           04449         BTFSC   r0x01, 1
00004C D???           04450         BRA     _00197_DS_
                      04451         .line   238; ../../RF24Network_c.c      if( (rn.networkFlags & FLAG_HOLD_INCOMING) || (rn.next_f
                            rame-rn.frame_queue) + 34 > MAIN_BUFFER_SIZE ){
00004E B0??           04452         BTFSC   r0x01, 0
000050 D???           04453         BRA     _00151_DS_
000052 0E??           04454         MOVLW   LOW(_rn + 59)
000054 ????           04455         BANKSEL (_rn + 213)
000056 5D??           04456         SUBWF   (_rn + 213), W, B
Message[1301]: Using default destination of 0 (Access Bank).
000058 6E??           04457         MOVWF   r0x01
00005A 0E??           04458         MOVLW   HIGH(_rn + 59)
00005C ????           04459         BANKSEL (_rn + 214)
00005E 59??           04460         SUBWFB  (_rn + 214), W, B
Message[1301]: Using default destination of 0 (Access Bank).
000060 6E??           04461         MOVWF   r0x02
000062 0E22           04462         MOVLW   0x22
000064 26??           04463         ADDWF   r0x01, F
000066 B0D8           04464         BTFSC   STATUS, 0
000068 2A??           04465         INCF    r0x02, F
00006A 50??           04466         MOVF    r0x02, W
00006C 0F80           04467         ADDLW   0x80
00006E 0F80           04468         ADDLW   0x80
000070 E1??           04469         BNZ     _00285_DS_
000072 0E9B           04470         MOVLW   0x9b
000074 5C??           04471         SUBWF   r0x01, W
000076                04472 _00285_DS_:
000076 E3??           04473         BNC     _00197_DS_
000078                04474 _00151_DS_:
                      04475         .line   239; ../../RF24Network_c.c      if(!RF24N_available()){
000078 EC?? F0??      04476         CALL    _RF24N_available
Message[1301]: Using default destination of 0 (Access Bank).
00007C 6E??           04477         MOVWF   r0x01
00007E 50??           04478         MOVF    r0x01, W
000080 E1??           04479         BNZ     _00149_DS_
                      04480         .line   240; ../../RF24Network_c.c      rn.networkFlags &= ~FLAG_HOLD_INCOMING;
000082 0EFE           04481         MOVLW   0xfe
000084 ????           04482         BANKSEL (_rn + 43)
000086 15??           04483         ANDWF   (_rn + 43), W, B
Message[1301]: Using default destination of 0 (Access Bank).
000088 6E??           04484         MOVWF   r0x01
00008A 50??           04485         MOVF    r0x01, W
00008C ????           04486         BANKSEL (_rn + 43)
00008E 6F??           04487         MOVWF   (_rn + 43), B
000090 D???           04488         BRA     _00197_DS_
000092                04489 _00149_DS_:
                      04490         .line   242; ../../RF24Network_c.c      return 0;
gpasm-1.4.0 #1107 (May  9 2015) build/sdcc/pr   12-5-2016  17:29:30         PAGE 100


LOC    OBJECT CODE    LINE  SOURCE TEXT
  VALUE

Message[1301]: Using default destination of 0 (Access Bank).
000092 6AE8           04491         CLRF    WREG
000094 EF?? F0??      04492         GOTO    _00200_DS_
000098                04493 _00197_DS_:
                      04494         .line   248; ../../RF24Network_c.c      while ( RF24_isValid() && RF24_available_p(&pipe_num) ){
000098 EC?? F0??      04495         CALL    _RF24_isValid
Message[1301]: Using default destination of 0 (Access Bank).
00009C 6E??           04496         MOVWF   r0x01
00009E 50??           04497         MOVF    r0x01, W
0000A0 B4D8           04498         BTFSC   STATUS, 2
0000A2 EF?? F0??      04499         GOTO    _00199_DS_
0000A6 0E??           04500         MOVLW   HIGH(_RF24N_update_pipe_num_1_186)
Message[1301]: Using default destination of 0 (Access Bank).
0000A8 6E??           04501         MOVWF   r0x02
0000AA 0E??           04502         MOVLW   LOW(_RF24N_update_pipe_num_1_186)
Message[1301]: Using default destination of 0 (Access Bank).
0000AC 6E??           04503         MOVWF   r0x01
0000AE 0E80           04504         MOVLW   0x80
Message[1301]: Using default destination of 0 (Access Bank).
0000B0 6E??           04505         MOVWF   r0x03
0000B2 50??           04506         MOVF    r0x03, W
Message[1301]: Using default destination of 0 (Access Bank).
0000B4 6EE5           04507         MOVWF   POSTDEC1
0000B6 50??           04508         MOVF    r0x02, W
Message[1301]: Using default destination of 0 (Access Bank).
0000B8 6EE5           04509         MOVWF   POSTDEC1
0000BA 50??           04510         MOVF    r0x01, W
Message[1301]: Using default destination of 0 (Access Bank).
0000BC 6EE5           04511         MOVWF   POSTDEC1
0000BE EC?? F0??      04512         CALL    _RF24_available_p
Message[1301]: Using default destination of 0 (Access Bank).
0000C2 6E??           04513         MOVWF   r0x01
0000C4 0E03           04514         MOVLW   0x03
0000C6 26E1           04515         ADDWF   FSR1L, F
0000C8 50??           04516         MOVF    r0x01, W
0000CA B4D8           04517         BTFSC   STATUS, 2
0000CC D???           04518         BRA     _00199_DS_
                      04519         .line   252; ../../RF24Network_c.c      if( (rn.frame_size = RF24_getDynamicPayloadSize() ) < si
                            zeof(RF24NetworkHeader)){
0000CE EC?? F0??      04520         CALL    _RF24_getDynamicPayloadSize
Message[1301]: Using default destination of 0 (Access Bank).
0000D2 6E??           04521         MOVWF   r0x01
0000D4 50??           04522         MOVF    r0x01, W
0000D6 ????           04523         BANKSEL (_rn + 51)
0000D8 6F??           04524         MOVWF   (_rn + 51), B
0000DA 0E08           04525         MOVLW   0x08
0000DC 5C??           04526         SUBWF   r0x01, W
0000DE E2??           04527         BC      _00157_DS_
                      04528         .line   253; ../../RF24Network_c.c      delay(10);
0000E0 0E00           04529         MOVLW   0x00
Message[1301]: Using default destination of 0 (Access Bank).
0000E2 6EE5           04530         MOVWF   POSTDEC1
0000E4 0E0A           04531         MOVLW   0x0a
gpasm-1.4.0 #1107 (May  9 2015) build/sdcc/pr   12-5-2016  17:29:30         PAGE 101


LOC    OBJECT CODE    LINE  SOURCE TEXT
  VALUE

Message[1301]: Using default destination of 0 (Access Bank).
0000E6 6EE5           04532         MOVWF   POSTDEC1
0000E8 EC?? F0??      04533         CALL    _delay
0000EC 52E6           04534         MOVF    POSTINC1, F
0000EE 52E6           04535         MOVF    POSTINC1, F
                      04536         .line   254; ../../RF24Network_c.c      continue;
0000F0 D???           04537         BRA     _00197_DS_
0000F2                04538 _00157_DS_:
                      04539         .line   261; ../../RF24Network_c.c      RF24_read(rn.frame_buffer, rn.frame_size );
0000F2 0E??           04540         MOVLW   HIGH(_rn + 7)
Message[1301]: Using default destination of 0 (Access Bank).
0000F4 6E??           04541         MOVWF   r0x02
0000F6 0E??           04542         MOVLW   LOW(_rn + 7)
Message[1301]: Using default destination of 0 (Access Bank).
0000F8 6E??           04543         MOVWF   r0x01
0000FA 0E80           04544         MOVLW   0x80
Message[1301]: Using default destination of 0 (Access Bank).
0000FC 6E??           04545         MOVWF   r0x03
0000FE ????           04546         BANKSEL (_rn + 51)
000100 51??           04547         MOVF    (_rn + 51), W, B
Message[1301]: Using default destination of 0 (Access Bank).
000102 6EE5           04548         MOVWF   POSTDEC1
000104 50??           04549         MOVF    r0x03, W
Message[1301]: Using default destination of 0 (Access Bank).
000106 6EE5           04550         MOVWF   POSTDEC1
000108 50??           04551         MOVF    r0x02, W
Message[1301]: Using default destination of 0 (Access Bank).
00010A 6EE5           04552         MOVWF   POSTDEC1
00010C 50??           04553         MOVF    r0x01, W
Message[1301]: Using default destination of 0 (Access Bank).
00010E 6EE5           04554         MOVWF   POSTDEC1
000110 EC?? F0??      04555         CALL    _RF24_read
000114 0E04           04556         MOVLW   0x04
000116 26E1           04557         ADDWF   FSR1L, F
                      04558         .line   264; ../../RF24Network_c.c      header = (RF24NetworkHeader*)(rn.frame_buffer);
000118 0E??           04559         MOVLW   HIGH(_rn + 7)
Message[1301]: Using default destination of 0 (Access Bank).
00011A 6E??           04560         MOVWF   r0x02
00011C 0E??           04561         MOVLW   LOW(_rn + 7)
Message[1301]: Using default destination of 0 (Access Bank).
00011E 6E??           04562         MOVWF   r0x01
000120 0E80           04563         MOVLW   0x80
Message[1301]: Using default destination of 0 (Access Bank).
000122 6E??           04564         MOVWF   r0x03
                      04565         .line   278; ../../RF24Network_c.c      if ( !RF24N_is_valid_address( header->to_node) ){
000124 50??           04566         MOVF    r0x01, W
000126 0F02           04567         ADDLW   0x02
Message[1301]: Using default destination of 0 (Access Bank).
000128 6E??           04568         MOVWF   r0x04
00012A 0E00           04569         MOVLW   0x00
00012C 20??           04570         ADDWFC  r0x02, W
Message[1301]: Using default destination of 0 (Access Bank).
00012E 6E??           04571         MOVWF   r0x05
gpasm-1.4.0 #1107 (May  9 2015) build/sdcc/pr   12-5-2016  17:29:30         PAGE 102


LOC    OBJECT CODE    LINE  SOURCE TEXT
  VALUE

000130 0E00           04572         MOVLW   0x00
000132 20??           04573         ADDWFC  r0x03, W
Message[1301]: Using default destination of 0 (Access Bank).
000134 6E??           04574         MOVWF   r0x06
000136 C??? F???      04575         MOVFF   r0x04, FSR0L
00013A C??? F???      04576         MOVFF   r0x05, PRODL
00013E 50??           04577         MOVF    r0x06, W
000140 EC?? F0??      04578         CALL    __gptrget2
Message[1301]: Using default destination of 0 (Access Bank).
000144 6E??           04579         MOVWF   r0x07
000146 CFF3 F000      04580         MOVFF   PRODL, r0x08
00014A 50??           04581         MOVF    r0x08, W
Message[1301]: Using default destination of 0 (Access Bank).
00014C 6EE5           04582         MOVWF   POSTDEC1
00014E 50??           04583         MOVF    r0x07, W
Message[1301]: Using default destination of 0 (Access Bank).
000150 6EE5           04584         MOVWF   POSTDEC1
000152 EC?? F0??      04585         CALL    _RF24N_is_valid_address
Message[1301]: Using default destination of 0 (Access Bank).
000156 6E??           04586         MOVWF   r0x07
000158 52E6           04587         MOVF    POSTINC1, F
00015A 52E6           04588         MOVF    POSTINC1, F
00015C 50??           04589         MOVF    r0x07, W
00015E B4D8           04590         BTFSC   STATUS, 2
000160 D???           04591         BRA     _00197_DS_
                      04592         .line   282; ../../RF24Network_c.c      returnVal = header->type;
000162 50??           04593         MOVF    r0x01, W
000164 0F06           04594         ADDLW   0x06
Message[1301]: Using default destination of 0 (Access Bank).
000166 6E??           04595         MOVWF   r0x07
000168 0E00           04596         MOVLW   0x00
00016A 20??           04597         ADDWFC  r0x02, W
Message[1301]: Using default destination of 0 (Access Bank).
00016C 6E??           04598         MOVWF   r0x08
00016E 0E00           04599         MOVLW   0x00
000170 20??           04600         ADDWFC  r0x03, W
Message[1301]: Using default destination of 0 (Access Bank).
000172 6E??           04601         MOVWF   r0x09
000174 C??? F???      04602         MOVFF   r0x07, FSR0L
000178 C??? F???      04603         MOVFF   r0x08, PRODL
00017C 50??           04604         MOVF    r0x09, W
00017E EC?? F0??      04605         CALL    __gptrget1
Message[1301]: Using default destination of 0 (Access Bank).
000182 6E??           04606         MOVWF   r0x0a
000184 C??? F???      04607         MOVFF   r0x0a, r0x00
                      04608         .line   285; ../../RF24Network_c.c      if ( header->to_node == rn.node_address   ){
000188 C??? F???      04609         MOVFF   r0x04, FSR0L
00018C C??? F???      04610         MOVFF   r0x05, PRODL
000190 50??           04611         MOVF    r0x06, W
000192 EC?? F0??      04612         CALL    __gptrget2
Message[1301]: Using default destination of 0 (Access Bank).
000196 6E??           04613         MOVWF   r0x0b
000198 CFF3 F000      04614         MOVFF   PRODL, r0x0c
gpasm-1.4.0 #1107 (May  9 2015) build/sdcc/pr   12-5-2016  17:29:30         PAGE 103


LOC    OBJECT CODE    LINE  SOURCE TEXT
  VALUE

00019C C??? F???      04615         MOVFF   (_rn + 49), r0x0d
0001A0 C??? F???      04616         MOVFF   (_rn + 50), r0x0e
0001A4 50??           04617         MOVF    r0x0b, W
0001A6 18??           04618         XORWF   r0x0d, W
0001A8 E1??           04619         BNZ     _00288_DS_
0001AA 50??           04620         MOVF    r0x0c, W
0001AC 18??           04621         XORWF   r0x0e, W
0001AE E0??           04622         BZ      _00289_DS_
0001B0                04623 _00288_DS_:
0001B0 D???           04624         BRA     _00194_DS_
0001B2                04625 _00289_DS_:
                      04626         .line   287; ../../RF24Network_c.c      if(header->type == NETWORK_PING){
0001B2 50??           04627         MOVF    r0x0a, W
0001B4 0A82           04628         XORLW   0x82
0001B6 E1??           04629         BNZ     _00291_DS_
0001B8 D???           04630         BRA     _00197_DS_
0001BA                04631 _00291_DS_:
                      04632         .line   290; ../../RF24Network_c.c      if(header->type == NETWORK_ADDR_RESPONSE ){     
0001BA 50??           04633         MOVF    r0x0a, W
0001BC 0A80           04634         XORLW   0x80
0001BE E0??           04635         BZ      _00293_DS_
0001C0 D???           04636         BRA     _00165_DS_
0001C2                04637 _00293_DS_:
                      04638         .line   292; ../../RF24Network_c.c      if(requester != rn.node_address){
0001C2 50??           04639         MOVF    r0x0d, W
0001C4 0A24           04640         XORLW   0x24
0001C6 E1??           04641         BNZ     _00295_DS_
0001C8 50??           04642         MOVF    r0x0e, W
0001CA 0A09           04643         XORLW   0x09
0001CC E1??           04644         BNZ     _00295_DS_
0001CE D???           04645         BRA     _00165_DS_
0001D0                04646 _00295_DS_:
                      04647         .line   293; ../../RF24Network_c.c      header->to_node = requester;
0001D0 0E24           04648         MOVLW   0x24
Message[1301]: Using default destination of 0 (Access Bank).
0001D2 6EE5           04649         MOVWF   POSTDEC1
0001D4 0E09           04650         MOVLW   0x09
Message[1301]: Using default destination of 0 (Access Bank).
0001D6 6EF4           04651         MOVWF   PRODH
0001D8 C??? F???      04652         MOVFF   r0x04, FSR0L
0001DC C??? F???      04653         MOVFF   r0x05, PRODL
0001E0 50??           04654         MOVF    r0x06, W
0001E2 EC?? F0??      04655         CALL    __gptrput2
                      04656         .line   294; ../../RF24Network_c.c      RF24N_write(header->to_node,USER_TX_TO_PHYSICAL_ADDRESS)
                            ;
0001E6 C??? F???      04657         MOVFF   r0x04, FSR0L
0001EA C??? F???      04658         MOVFF   r0x05, PRODL
0001EE 50??           04659         MOVF    r0x06, W
0001F0 EC?? F0??      04660         CALL    __gptrget2
Message[1301]: Using default destination of 0 (Access Bank).
0001F4 6E??           04661         MOVWF   r0x0b
0001F6 CFF3 F000      04662         MOVFF   PRODL, r0x0c
0001FA 0E02           04663         MOVLW   0x02
gpasm-1.4.0 #1107 (May  9 2015) build/sdcc/pr   12-5-2016  17:29:30         PAGE 104


LOC    OBJECT CODE    LINE  SOURCE TEXT
  VALUE

Message[1301]: Using default destination of 0 (Access Bank).
0001FC 6EE5           04664         MOVWF   POSTDEC1
0001FE 50??           04665         MOVF    r0x0c, W
Message[1301]: Using default destination of 0 (Access Bank).
000200 6EE5           04666         MOVWF   POSTDEC1
000202 50??           04667         MOVF    r0x0b, W
Message[1301]: Using default destination of 0 (Access Bank).
000204 6EE5           04668         MOVWF   POSTDEC1
000206 EC?? F0??      04669         CALL    _RF24N_write
00020A 0E03           04670         MOVLW   0x03
00020C 26E1           04671         ADDWF   FSR1L, F
                      04672         .line   295; ../../RF24Network_c.c      delay(10);
00020E 0E00           04673         MOVLW   0x00
Message[1301]: Using default destination of 0 (Access Bank).
000210 6EE5           04674         MOVWF   POSTDEC1
000212 0E0A           04675         MOVLW   0x0a
Message[1301]: Using default destination of 0 (Access Bank).
000214 6EE5           04676         MOVWF   POSTDEC1
000216 EC?? F0??      04677         CALL    _delay
00021A 52E6           04678         MOVF    POSTINC1, F
00021C 52E6           04679         MOVF    POSTINC1, F
                      04680         .line   296; ../../RF24Network_c.c      RF24N_write(header->to_node,USER_TX_TO_PHYSICAL_ADDRESS)
                            ;
00021E C??? F???      04681         MOVFF   r0x04, FSR0L
000222 C??? F???      04682         MOVFF   r0x05, PRODL
000226 50??           04683         MOVF    r0x06, W
000228 EC?? F0??      04684         CALL    __gptrget2
Message[1301]: Using default destination of 0 (Access Bank).
00022C 6E??           04685         MOVWF   r0x0b
00022E CFF3 F000      04686         MOVFF   PRODL, r0x0c
000232 0E02           04687         MOVLW   0x02
Message[1301]: Using default destination of 0 (Access Bank).
000234 6EE5           04688         MOVWF   POSTDEC1
000236 50??           04689         MOVF    r0x0c, W
Message[1301]: Using default destination of 0 (Access Bank).
000238 6EE5           04690         MOVWF   POSTDEC1
00023A 50??           04691         MOVF    r0x0b, W
Message[1301]: Using default destination of 0 (Access Bank).
00023C 6EE5           04692         MOVWF   POSTDEC1
00023E EC?? F0??      04693         CALL    _RF24N_write
000242 0E03           04694         MOVLW   0x03
000244 26E1           04695         ADDWF   FSR1L, F
                      04696         .line   298; ../../RF24Network_c.c      continue;
000246 D???           04697         BRA     _00197_DS_
000248                04698 _00165_DS_:
                      04699         .line   301; ../../RF24Network_c.c      if(header->type == NETWORK_REQ_ADDRESS && rn.node_addres
                            s){
000248 C??? F???      04700         MOVFF   r0x07, FSR0L
00024C C??? F???      04701         MOVFF   r0x08, PRODL
000250 50??           04702         MOVF    r0x09, W
000252 EC?? F0??      04703         CALL    __gptrget1
Message[1301]: Using default destination of 0 (Access Bank).
000256 6E??           04704         MOVWF   r0x0b
gpasm-1.4.0 #1107 (May  9 2015) build/sdcc/pr   12-5-2016  17:29:30         PAGE 105


LOC    OBJECT CODE    LINE  SOURCE TEXT
  VALUE

000258 50??           04705         MOVF    r0x0b, W
00025A 0AC3           04706         XORLW   0xc3
00025C E1??           04707         BNZ     _00167_DS_
00025E C??? F???      04708         MOVFF   (_rn + 49), r0x0b
000262 C??? F???      04709         MOVFF   (_rn + 50), r0x0c
000266 50??           04710         MOVF    r0x0b, W
000268 10??           04711         IORWF   r0x0c, W
00026A E0??           04712         BZ      _00167_DS_
                      04713         .line   303; ../../RF24Network_c.c      header->from_node = rn.node_address;
00026C C??? F???      04714         MOVFF   r0x0b, POSTDEC1
000270 C??? F???      04715         MOVFF   r0x0c, PRODH
000274 C??? F???      04716         MOVFF   r0x01, FSR0L
000278 C??? F???      04717         MOVFF   r0x02, PRODL
00027C 50??           04718         MOVF    r0x03, W
00027E EC?? F0??      04719         CALL    __gptrput2
                      04720         .line   304; ../../RF24Network_c.c      header->to_node = 0;
000282 0E00           04721         MOVLW   0x00
Message[1301]: Using default destination of 0 (Access Bank).
000284 6EE5           04722         MOVWF   POSTDEC1
000286 0E00           04723         MOVLW   0x00
Message[1301]: Using default destination of 0 (Access Bank).
000288 6EF4           04724         MOVWF   PRODH
00028A C??? F???      04725         MOVFF   r0x04, FSR0L
00028E C??? F???      04726         MOVFF   r0x05, PRODL
000292 50??           04727         MOVF    r0x06, W
000294 EC?? F0??      04728         CALL    __gptrput2
                      04729         .line   305; ../../RF24Network_c.c      RF24N_write(header->to_node,TX_NORMAL);
000298 C??? F???      04730         MOVFF   r0x04, FSR0L
00029C C??? F???      04731         MOVFF   r0x05, PRODL
0002A0 50??           04732         MOVF    r0x06, W
0002A2 EC?? F0??      04733         CALL    __gptrget2
Message[1301]: Using default destination of 0 (Access Bank).
0002A6 6E??           04734         MOVWF   r0x0b
0002A8 CFF3 F000      04735         MOVFF   PRODL, r0x0c
0002AC 0E00           04736         MOVLW   0x00
Message[1301]: Using default destination of 0 (Access Bank).
0002AE 6EE5           04737         MOVWF   POSTDEC1
0002B0 50??           04738         MOVF    r0x0c, W
Message[1301]: Using default destination of 0 (Access Bank).
0002B2 6EE5           04739         MOVWF   POSTDEC1
0002B4 50??           04740         MOVF    r0x0b, W
Message[1301]: Using default destination of 0 (Access Bank).
0002B6 6EE5           04741         MOVWF   POSTDEC1
0002B8 EC?? F0??      04742         CALL    _RF24N_write
0002BC 0E03           04743         MOVLW   0x03
0002BE 26E1           04744         ADDWF   FSR1L, F
                      04745         .line   306; ../../RF24Network_c.c      continue;
0002C0 D???           04746         BRA     _00197_DS_
0002C2                04747 _00167_DS_:
0002C2 ????           04748         BANKSEL (_rn + 42)
                      04749         .line   309; ../../RF24Network_c.c      if( (rn.returnSysMsgs && header->type > 127) || header->
                            type == NETWORK_ACK ){  
0002C4 51??           04750         MOVF    (_rn + 42), W, B
gpasm-1.4.0 #1107 (May  9 2015) build/sdcc/pr   12-5-2016  17:29:30         PAGE 106


LOC    OBJECT CODE    LINE  SOURCE TEXT
  VALUE

0002C6 E0??           04751         BZ      _00178_DS_
0002C8 C??? F???      04752         MOVFF   r0x07, FSR0L
0002CC C??? F???      04753         MOVFF   r0x08, PRODL
0002D0 50??           04754         MOVF    r0x09, W
0002D2 EC?? F0??      04755         CALL    __gptrget1
Message[1301]: Using default destination of 0 (Access Bank).
0002D6 6E??           04756         MOVWF   r0x0b
0002D8 0E80           04757         MOVLW   0x80
0002DA 5C??           04758         SUBWF   r0x0b, W
0002DC E2??           04759         BC      _00175_DS_
0002DE                04760 _00178_DS_:
0002DE C??? F???      04761         MOVFF   r0x07, FSR0L
0002E2 C??? F???      04762         MOVFF   r0x08, PRODL
0002E6 50??           04763         MOVF    r0x09, W
0002E8 EC?? F0??      04764         CALL    __gptrget1
Message[1301]: Using default destination of 0 (Access Bank).
0002EC 6E??           04765         MOVWF   r0x0b
0002EE 50??           04766         MOVF    r0x0b, W
0002F0 0AC1           04767         XORLW   0xc1
0002F2 E1??           04768         BNZ     _00176_DS_
0002F4                04769 _00175_DS_:
                      04770         .line   312; ../../RF24Network_c.c      if( header->type != NETWORK_FIRST_FRAGMENT && header->ty
                            pe != NETWORK_MORE_FRAGMENTS && header->type != NETWORK_MORE_FRAGMENTS_NACK && header->type != EXTERNAL_
                            DATA_TYPE && header->type!= NETWORK_LAST_FRAGMENT){
0002F4 C??? F???      04771         MOVFF   r0x07, FSR0L
0002F8 C??? F???      04772         MOVFF   r0x08, PRODL
0002FC 50??           04773         MOVF    r0x09, W
0002FE EC?? F0??      04774         CALL    __gptrget1
Message[1301]: Using default destination of 0 (Access Bank).
000302 6E??           04775         MOVWF   r0x07
000304 50??           04776         MOVF    r0x07, W
000306 0A94           04777         XORLW   0x94
000308 E0??           04778         BZ      _00176_DS_
00030A 50??           04779         MOVF    r0x07, W
00030C 0A95           04780         XORLW   0x95
00030E E0??           04781         BZ      _00176_DS_
000310 50??           04782         MOVF    r0x07, W
000312 0AC8           04783         XORLW   0xc8
000314 E0??           04784         BZ      _00176_DS_
000316 50??           04785         MOVF    r0x07, W
000318 0A83           04786         XORLW   0x83
00031A E0??           04787         BZ      _00176_DS_
00031C 50??           04788         MOVF    r0x07, W
00031E 0A96           04789         XORLW   0x96
000320 E0??           04790         BZ      _00176_DS_
                      04791         .line   313; ../../RF24Network_c.c      return returnVal;
000322 50??           04792         MOVF    r0x00, W
000324 D???           04793         BRA     _00200_DS_
000326                04794 _00176_DS_:
                      04795         .line   317; ../../RF24Network_c.c      if( RF24N_enqueue(header) == 2 ){ //External data receiv
                            ed                      
000326 50??           04796         MOVF    r0x03, W
Message[1301]: Using default destination of 0 (Access Bank).
gpasm-1.4.0 #1107 (May  9 2015) build/sdcc/pr   12-5-2016  17:29:30         PAGE 107


LOC    OBJECT CODE    LINE  SOURCE TEXT
  VALUE

000328 6EE5           04797         MOVWF   POSTDEC1
00032A 50??           04798         MOVF    r0x02, W
Message[1301]: Using default destination of 0 (Access Bank).
00032C 6EE5           04799         MOVWF   POSTDEC1
00032E 50??           04800         MOVF    r0x01, W
Message[1301]: Using default destination of 0 (Access Bank).
000330 6EE5           04801         MOVWF   POSTDEC1
000332 EC?? F0??      04802         CALL    _RF24N_enqueue
Message[1301]: Using default destination of 0 (Access Bank).
000336 6E??           04803         MOVWF   r0x07
000338 0E03           04804         MOVLW   0x03
00033A 26E1           04805         ADDWF   FSR1L, F
00033C 50??           04806         MOVF    r0x07, W
00033E 0A02           04807         XORLW   0x02
000340 E0??           04808         BZ      _00312_DS_
000342 D???           04809         BRA     _00197_DS_
000344                04810 _00312_DS_:
                      04811         .line   321; ../../RF24Network_c.c      return EXTERNAL_DATA_TYPE;                              
000344 0E83           04812         MOVLW   0x83
000346 D???           04813         BRA     _00200_DS_
000348                04814 _00194_DS_:
                      04815         .line   327; ../../RF24Network_c.c      if( header->to_node == 0100){
000348 C??? F???      04816         MOVFF   r0x04, FSR0L
00034C C??? F???      04817         MOVFF   r0x05, PRODL
000350 50??           04818         MOVF    r0x06, W
000352 EC?? F0??      04819         CALL    __gptrget2
Message[1301]: Using default destination of 0 (Access Bank).
000356 6E??           04820         MOVWF   r0x07
000358 CFF3 F000      04821         MOVFF   PRODL, r0x08
00035C 50??           04822         MOVF    r0x07, W
00035E 0A40           04823         XORLW   0x40
000360 E1??           04824         BNZ     _00313_DS_
000362 50??           04825         MOVF    r0x08, W
000364 E0??           04826         BZ      _00314_DS_
000366                04827 _00313_DS_:
000366 D???           04828         BRA     _00191_DS_
000368                04829 _00314_DS_:
                      04830         .line   330; ../../RF24Network_c.c      if(header->type == NETWORK_POLL  ){
000368 50??           04831         MOVF    r0x0a, W
00036A 0AC2           04832         XORLW   0xc2
00036C E0??           04833         BZ      _00316_DS_
00036E D???           04834         BRA     _00185_DS_
000370                04835 _00316_DS_:
000370 ????           04836         BANKSEL (_rn + 43)
                      04837         .line   331; ../../RF24Network_c.c      if( !(rn.networkFlags & FLAG_NO_POLL) && rn.node_address
                             != 04444 ){
000372 B6??           04838         BTFSC   (_rn + 43), 3
000374 D???           04839         BRA     _00197_DS_
000376 50??           04840         MOVF    r0x0d, W
000378 0A24           04841         XORLW   0x24
00037A E1??           04842         BNZ     _00319_DS_
00037C 50??           04843         MOVF    r0x0e, W
00037E 0A09           04844         XORLW   0x09
gpasm-1.4.0 #1107 (May  9 2015) build/sdcc/pr   12-5-2016  17:29:30         PAGE 108


LOC    OBJECT CODE    LINE  SOURCE TEXT
  VALUE

000380 E1??           04845         BNZ     _00319_DS_
000382 D???           04846         BRA     _00197_DS_
000384                04847 _00319_DS_:
                      04848         .line   332; ../../RF24Network_c.c      header->to_node = header->from_node;
000384 C??? F???      04849         MOVFF   r0x01, FSR0L
000388 C??? F???      04850         MOVFF   r0x02, PRODL
00038C 50??           04851         MOVF    r0x03, W
00038E EC?? F0??      04852         CALL    __gptrget2
Message[1301]: Using default destination of 0 (Access Bank).
000392 6E??           04853         MOVWF   r0x07
000394 CFF3 F000      04854         MOVFF   PRODL, r0x08
000398 C??? F???      04855         MOVFF   r0x07, POSTDEC1
00039C C??? F???      04856         MOVFF   r0x08, PRODH
0003A0 C??? F???      04857         MOVFF   r0x04, FSR0L
0003A4 C??? F???      04858         MOVFF   r0x05, PRODL
0003A8 50??           04859         MOVF    r0x06, W
0003AA EC?? F0??      04860         CALL    __gptrput2
                      04861         .line   333; ../../RF24Network_c.c      header->from_node = rn.node_address;                    
0003AE C??? F???      04862         MOVFF   (_rn + 49), r0x07
0003B2 C??? F???      04863         MOVFF   (_rn + 50), r0x08
0003B6 C??? F???      04864         MOVFF   r0x07, POSTDEC1
0003BA C??? F???      04865         MOVFF   r0x08, PRODH
0003BE C??? F???      04866         MOVFF   r0x01, FSR0L
0003C2 C??? F???      04867         MOVFF   r0x02, PRODL
0003C6 50??           04868         MOVF    r0x03, W
0003C8 EC?? F0??      04869         CALL    __gptrput2
                      04870         .line   334; ../../RF24Network_c.c      delay(rn.parent_pipe);
0003CC C??? F???      04871         MOVFF   (_rn + 56), r0x07
Message[1301]: Using default destination of 0 (Access Bank).
0003D0 6A??           04872         CLRF    r0x08
0003D2 50??           04873         MOVF    r0x08, W
Message[1301]: Using default destination of 0 (Access Bank).
0003D4 6EE5           04874         MOVWF   POSTDEC1
0003D6 50??           04875         MOVF    r0x07, W
Message[1301]: Using default destination of 0 (Access Bank).
0003D8 6EE5           04876         MOVWF   POSTDEC1
0003DA EC?? F0??      04877         CALL    _delay
0003DE 52E6           04878         MOVF    POSTINC1, F
0003E0 52E6           04879         MOVF    POSTINC1, F
                      04880         .line   335; ../../RF24Network_c.c      RF24N_write(header->to_node,USER_TX_TO_PHYSICAL_ADDRESS)
                            ;                      
0003E2 C??? F???      04881         MOVFF   r0x04, FSR0L
0003E6 C??? F???      04882         MOVFF   r0x05, PRODL
0003EA 50??           04883         MOVF    r0x06, W
0003EC EC?? F0??      04884         CALL    __gptrget2
Message[1301]: Using default destination of 0 (Access Bank).
0003F0 6E??           04885         MOVWF   r0x07
0003F2 CFF3 F000      04886         MOVFF   PRODL, r0x08
0003F6 0E02           04887         MOVLW   0x02
Message[1301]: Using default destination of 0 (Access Bank).
0003F8 6EE5           04888         MOVWF   POSTDEC1
0003FA 50??           04889         MOVF    r0x08, W
Message[1301]: Using default destination of 0 (Access Bank).
gpasm-1.4.0 #1107 (May  9 2015) build/sdcc/pr   12-5-2016  17:29:30         PAGE 109


LOC    OBJECT CODE    LINE  SOURCE TEXT
  VALUE

0003FC 6EE5           04890         MOVWF   POSTDEC1
0003FE 50??           04891         MOVF    r0x07, W
Message[1301]: Using default destination of 0 (Access Bank).
000400 6EE5           04892         MOVWF   POSTDEC1
000402 EC?? F0??      04893         CALL    _RF24N_write
000406 0E03           04894         MOVLW   0x03
000408 26E1           04895         ADDWF   FSR1L, F
                      04896         .line   337; ../../RF24Network_c.c      continue;
00040A D???           04897         BRA     _00197_DS_
00040C                04898 _00185_DS_:
                      04899         .line   339; ../../RF24Network_c.c      val = RF24N_enqueue(header);
00040C 50??           04900         MOVF    r0x03, W
Message[1301]: Using default destination of 0 (Access Bank).
00040E 6EE5           04901         MOVWF   POSTDEC1
000410 50??           04902         MOVF    r0x02, W
Message[1301]: Using default destination of 0 (Access Bank).
000412 6EE5           04903         MOVWF   POSTDEC1
000414 50??           04904         MOVF    r0x01, W
Message[1301]: Using default destination of 0 (Access Bank).
000416 6EE5           04905         MOVWF   POSTDEC1
000418 EC?? F0??      04906         CALL    _RF24N_enqueue
Message[1301]: Using default destination of 0 (Access Bank).
00041C 6E??           04907         MOVWF   r0x01
00041E 0E03           04908         MOVLW   0x03
000420 26E1           04909         ADDWF   FSR1L, F
000422 ????           04910         BANKSEL _rn
                      04911         .line   341; ../../RF24Network_c.c      if(rn.multicastRelay){                                  
000424 51??           04912         MOVF    _rn, W, B
000426 E0??           04913         BZ      _00187_DS_
000428 ????           04914         BANKSEL (_rn + 48)
                      04915         .line   343; ../../RF24Network_c.c      RF24N_write(RF24N_levelToAddress(rn.multicast_level)<<3,
                            4);
00042A 51??           04916         MOVF    (_rn + 48), W, B
Message[1301]: Using default destination of 0 (Access Bank).
00042C 6EE5           04917         MOVWF   POSTDEC1
00042E EC?? F0??      04918         CALL    _RF24N_levelToAddress
Message[1301]: Using default destination of 0 (Access Bank).
000432 6E??           04919         MOVWF   r0x02
000434 CFF3 F000      04920         MOVFF   PRODL, r0x03
000438 52E6           04921         MOVF    POSTINC1, F
00043A 50??           04922         MOVF    r0x02, W
Message[1301]: Using default destination of 0 (Access Bank).
00043C 6E??           04923         MOVWF   r0x07
00043E 26??           04924         ADDWF   r0x07, F
000440 34??           04925         RLCF    r0x03, W
Message[1301]: Using default destination of 0 (Access Bank).
000442 6E??           04926         MOVWF   r0x08
000444 90D8           04927         BCF     STATUS, 0
000446 36??           04928         RLCF    r0x07, F
000448 36??           04929         RLCF    r0x08, F
00044A 90D8           04930         BCF     STATUS, 0
00044C 36??           04931         RLCF    r0x07, F
00044E 36??           04932         RLCF    r0x08, F
gpasm-1.4.0 #1107 (May  9 2015) build/sdcc/pr   12-5-2016  17:29:30         PAGE 110


LOC    OBJECT CODE    LINE  SOURCE TEXT
  VALUE

000450 0E04           04933         MOVLW   0x04
Message[1301]: Using default destination of 0 (Access Bank).
000452 6EE5           04934         MOVWF   POSTDEC1
000454 50??           04935         MOVF    r0x08, W
Message[1301]: Using default destination of 0 (Access Bank).
000456 6EE5           04936         MOVWF   POSTDEC1
000458 50??           04937         MOVF    r0x07, W
Message[1301]: Using default destination of 0 (Access Bank).
00045A 6EE5           04938         MOVWF   POSTDEC1
00045C EC?? F0??      04939         CALL    _RF24N_write
000460 0E03           04940         MOVLW   0x03
000462 26E1           04941         ADDWF   FSR1L, F
000464                04942 _00187_DS_:
                      04943         .line   345; ../../RF24Network_c.c      if( val == 2 ){ //External data received                
                                    
000464 50??           04944         MOVF    r0x01, W
000466 0A02           04945         XORLW   0x02
000468 E0??           04946         BZ      _00321_DS_
00046A D???           04947         BRA     _00197_DS_
00046C                04948 _00321_DS_:
                      04949         .line   347; ../../RF24Network_c.c      return EXTERNAL_DATA_TYPE;
00046C 0E83           04950         MOVLW   0x83
00046E D???           04951         BRA     _00200_DS_
000470                04952 _00191_DS_:
                      04953         .line   351; ../../RF24Network_c.c      RF24N_write(header->to_node,1); //Send it on, indicate i
                            t is a routed payload
000470 C??? F???      04954         MOVFF   r0x04, FSR0L
000474 C??? F???      04955         MOVFF   r0x05, PRODL
000478 50??           04956         MOVF    r0x06, W
00047A EC?? F0??      04957         CALL    __gptrget2
Message[1301]: Using default destination of 0 (Access Bank).
00047E 6E??           04958         MOVWF   r0x04
000480 CFF3 F000      04959         MOVFF   PRODL, r0x05
000484 0E01           04960         MOVLW   0x01
Message[1301]: Using default destination of 0 (Access Bank).
000486 6EE5           04961         MOVWF   POSTDEC1
000488 50??           04962         MOVF    r0x05, W
Message[1301]: Using default destination of 0 (Access Bank).
00048A 6EE5           04963         MOVWF   POSTDEC1
00048C 50??           04964         MOVF    r0x04, W
Message[1301]: Using default destination of 0 (Access Bank).
00048E 6EE5           04965         MOVWF   POSTDEC1
000490 EC?? F0??      04966         CALL    _RF24N_write
000494 0E03           04967         MOVLW   0x03
000496 26E1           04968         ADDWF   FSR1L, F
000498 EF?? F0??      04969         GOTO    _00197_DS_
00049C                04970 _00199_DS_:
                      04971         .line   359; ../../RF24Network_c.c      return returnVal;
00049C 50??           04972         MOVF    r0x00, W
00049E                04973 _00200_DS_:
00049E CFE4 F000      04974         MOVFF   PREINC1, r0x0e
0004A2 CFE4 F000      04975         MOVFF   PREINC1, r0x0d
0004A6 CFE4 F000      04976         MOVFF   PREINC1, r0x0c
gpasm-1.4.0 #1107 (May  9 2015) build/sdcc/pr   12-5-2016  17:29:30         PAGE 111


LOC    OBJECT CODE    LINE  SOURCE TEXT
  VALUE

0004AA CFE4 F000      04977         MOVFF   PREINC1, r0x0b
0004AE CFE4 F000      04978         MOVFF   PREINC1, r0x0a
0004B2 CFE4 F000      04979         MOVFF   PREINC1, r0x09
0004B6 CFE4 F000      04980         MOVFF   PREINC1, r0x08
0004BA CFE4 F000      04981         MOVFF   PREINC1, r0x07
0004BE CFE4 F000      04982         MOVFF   PREINC1, r0x06
0004C2 CFE4 F000      04983         MOVFF   PREINC1, r0x05
0004C6 CFE4 F000      04984         MOVFF   PREINC1, r0x04
0004CA CFE4 F000      04985         MOVFF   PREINC1, r0x03
0004CE CFE4 F000      04986         MOVFF   PREINC1, r0x02
0004D2 CFE4 F000      04987         MOVFF   PREINC1, r0x01
0004D6 CFE4 F000      04988         MOVFF   PREINC1, r0x00
0004DA CFE4 FFD9      04989         MOVFF   PREINC1, FSR2L
0004DE 0012           04990         RETURN  
                      04991 
                      04992 ; ; Starting pCode block
                      04993 S_RF24Network_c__RF24N_begin_d  code
000000                04994 _RF24N_begin_d:
                      04995         .line   163; ../../RF24Network_c.c      void RF24N_begin_d(uint8_t _channel, uint16_t _node_addr
                            ess )
000000 CFD9 FFE5      04996         MOVFF   FSR2L, POSTDEC1
000004 CFE1 FFD9      04997         MOVFF   FSR1L, FSR2L
000008 C??? F???      04998         MOVFF   r0x00, POSTDEC1
00000C C??? F???      04999         MOVFF   r0x01, POSTDEC1
000010 C??? F???      05000         MOVFF   r0x02, POSTDEC1
000014 C??? F???      05001         MOVFF   r0x03, POSTDEC1
000018 C??? F???      05002         MOVFF   r0x04, POSTDEC1
00001C C??? F???      05003         MOVFF   r0x05, POSTDEC1
000020 0E02           05004         MOVLW   0x02
000022 CFDB F000      05005         MOVFF   PLUSW2, r0x00
000026 0E03           05006         MOVLW   0x03
000028 CFDB F000      05007         MOVFF   PLUSW2, r0x01
00002C 0E04           05008         MOVLW   0x04
00002E CFDB F000      05009         MOVFF   PLUSW2, r0x02
                      05010         .line   168; ../../RF24Network_c.c      if (! RF24N_is_valid_address(_node_address) )
000032 50??           05011         MOVF    r0x02, W
Message[1301]: Using default destination of 0 (Access Bank).
000034 6EE5           05012         MOVWF   POSTDEC1
000036 50??           05013         MOVF    r0x01, W
Message[1301]: Using default destination of 0 (Access Bank).
000038 6EE5           05014         MOVWF   POSTDEC1
00003A EC?? F0??      05015         CALL    _RF24N_is_valid_address
Message[1301]: Using default destination of 0 (Access Bank).
00003E 6E??           05016         MOVWF   r0x03
000040 52E6           05017         MOVF    POSTINC1, F
000042 52E6           05018         MOVF    POSTINC1, F
000044 50??           05019         MOVF    r0x03, W
000046 E1??           05020         BNZ     _00116_DS_
                      05021         .line   169; ../../RF24Network_c.c      return;
000048 D???           05022         BRA     _00124_DS_
00004A                05023 _00116_DS_:
                      05024         .line   171; ../../RF24Network_c.c      rn.node_address = _node_address;
00004A 50??           05025         MOVF    r0x01, W
gpasm-1.4.0 #1107 (May  9 2015) build/sdcc/pr   12-5-2016  17:29:30         PAGE 112


LOC    OBJECT CODE    LINE  SOURCE TEXT
  VALUE

00004C ????           05026         BANKSEL (_rn + 49)
00004E 6F??           05027         MOVWF   (_rn + 49), B
000050 50??           05028         MOVF    r0x02, W
000052 ????           05029         BANKSEL (_rn + 50)
000054 6F??           05030         MOVWF   (_rn + 50), B
                      05031         .line   173; ../../RF24Network_c.c      if ( ! RF24_isValid() ){
000056 EC?? F0??      05032         CALL    _RF24_isValid
Message[1301]: Using default destination of 0 (Access Bank).
00005A 6E??           05033         MOVWF   r0x03
00005C 50??           05034         MOVF    r0x03, W
00005E E1??           05035         BNZ     _00118_DS_
                      05036         .line   174; ../../RF24Network_c.c      return;
000060 D???           05037         BRA     _00124_DS_
000062                05038 _00118_DS_:
                      05039         .line   178; ../../RF24Network_c.c      if(_channel != USE_CURRENT_CHANNEL){
000062 50??           05040         MOVF    r0x00, W
000064 0AFF           05041         XORLW   0xff
000066 E0??           05042         BZ      _00120_DS_
                      05043         .line   179; ../../RF24Network_c.c      RF24_setChannel(_channel);
000068 50??           05044         MOVF    r0x00, W
Message[1301]: Using default destination of 0 (Access Bank).
00006A 6EE5           05045         MOVWF   POSTDEC1
00006C EC?? F0??      05046         CALL    _RF24_setChannel
000070 52E6           05047         MOVF    POSTINC1, F
000072                05048 _00120_DS_:
                      05049         .line   182; ../../RF24Network_c.c      RF24_setAutoAck_p(0,0);
000072 0E00           05050         MOVLW   0x00
Message[1301]: Using default destination of 0 (Access Bank).
000074 6EE5           05051         MOVWF   POSTDEC1
000076 0E00           05052         MOVLW   0x00
Message[1301]: Using default destination of 0 (Access Bank).
000078 6EE5           05053         MOVWF   POSTDEC1
00007A EC?? F0??      05054         CALL    _RF24_setAutoAck_p
00007E 52E6           05055         MOVF    POSTINC1, F
000080 52E6           05056         MOVF    POSTINC1, F
                      05057         .line   185; ../../RF24Network_c.c      RF24_enableDynamicPayloads();
000082 EC?? F0??      05058         CALL    _RF24_enableDynamicPayloads
                      05059         .line   189; ../../RF24Network_c.c      retryVar = (((rn.node_address % 6)+1) *2) + 3;
000086 0E00           05060         MOVLW   0x00
Message[1301]: Using default destination of 0 (Access Bank).
000088 6EE5           05061         MOVWF   POSTDEC1
00008A 0E06           05062         MOVLW   0x06
Message[1301]: Using default destination of 0 (Access Bank).
00008C 6EE5           05063         MOVWF   POSTDEC1
00008E ????           05064         BANKSEL (_rn + 50)
000090 51??           05065         MOVF    (_rn + 50), W, B
Message[1301]: Using default destination of 0 (Access Bank).
000092 6EE5           05066         MOVWF   POSTDEC1
000094 ????           05067         BANKSEL (_rn + 49)
000096 51??           05068         MOVF    (_rn + 49), W, B
Message[1301]: Using default destination of 0 (Access Bank).
000098 6EE5           05069         MOVWF   POSTDEC1
00009A EC?? F0??      05070         CALL    __moduint
gpasm-1.4.0 #1107 (May  9 2015) build/sdcc/pr   12-5-2016  17:29:30         PAGE 113


LOC    OBJECT CODE    LINE  SOURCE TEXT
  VALUE

Message[1301]: Using default destination of 0 (Access Bank).
00009E 6E??           05071         MOVWF   r0x00
0000A0 CFF3 F000      05072         MOVFF   PRODL, r0x03
0000A4 0E04           05073         MOVLW   0x04
0000A6 26E1           05074         ADDWF   FSR1L, F
0000A8 2A??           05075         INCF    r0x00, F
                      05076 ; ;multiply lit val:0x02 by variable r0x00 and store in r0x00
0000AA 50??           05077         MOVF    r0x00, W
0000AC 0D02           05078         MULLW   0x02
0000AE CFF3 F000      05079         MOVFF   PRODL, r0x00
0000B2 0E03           05080         MOVLW   0x03
0000B4 26??           05081         ADDWF   r0x00, F
                      05082         .line   190; ../../RF24Network_c.c      RF24_setRetries(retryVar, 5); // max about 85ms per atte
                            mpt
0000B6 0E05           05083         MOVLW   0x05
Message[1301]: Using default destination of 0 (Access Bank).
0000B8 6EE5           05084         MOVWF   POSTDEC1
0000BA 50??           05085         MOVF    r0x00, W
Message[1301]: Using default destination of 0 (Access Bank).
0000BC 6EE5           05086         MOVWF   POSTDEC1
0000BE EC?? F0??      05087         CALL    _RF24_setRetries
0000C2 52E6           05088         MOVF    POSTINC1, F
0000C4 52E6           05089         MOVF    POSTINC1, F
                      05090         .line   191; ../../RF24Network_c.c      rn.txTimeout = 25;
0000C6 0E19           05091         MOVLW   0x19
0000C8 ????           05092         BANKSEL (_rn + 1)
0000CA 6F??           05093         MOVWF   (_rn + 1), B
0000CC ????           05094         BANKSEL (_rn + 2)
0000CE 6B??           05095         CLRF    (_rn + 2), B
0000D0 ????           05096         BANKSEL (_rn + 3)
0000D2 6B??           05097         CLRF    (_rn + 3), B
0000D4 ????           05098         BANKSEL (_rn + 4)
0000D6 6B??           05099         CLRF    (_rn + 4), B
0000D8 ????           05100         BANKSEL (_rn + 4)
                      05101         .line   192; ../../RF24Network_c.c      rn.routeTimeout = rn.txTimeout*3; // Adjust for max dela
                            y per node within a single chain
0000DA 51??           05102         MOVF    (_rn + 4), W, B
Message[1301]: Using default destination of 0 (Access Bank).
0000DC 6EE5           05103         MOVWF   POSTDEC1
0000DE ????           05104         BANKSEL (_rn + 3)
0000E0 51??           05105         MOVF    (_rn + 3), W, B
Message[1301]: Using default destination of 0 (Access Bank).
0000E2 6EE5           05106         MOVWF   POSTDEC1
0000E4 ????           05107         BANKSEL (_rn + 2)
0000E6 51??           05108         MOVF    (_rn + 2), W, B
Message[1301]: Using default destination of 0 (Access Bank).
0000E8 6EE5           05109         MOVWF   POSTDEC1
0000EA ????           05110         BANKSEL (_rn + 1)
0000EC 51??           05111         MOVF    (_rn + 1), W, B
Message[1301]: Using default destination of 0 (Access Bank).
0000EE 6EE5           05112         MOVWF   POSTDEC1
0000F0 0E00           05113         MOVLW   0x00
Message[1301]: Using default destination of 0 (Access Bank).
gpasm-1.4.0 #1107 (May  9 2015) build/sdcc/pr   12-5-2016  17:29:30         PAGE 114


LOC    OBJECT CODE    LINE  SOURCE TEXT
  VALUE

0000F2 6EE5           05114         MOVWF   POSTDEC1
0000F4 0E00           05115         MOVLW   0x00
Message[1301]: Using default destination of 0 (Access Bank).
0000F6 6EE5           05116         MOVWF   POSTDEC1
0000F8 0E00           05117         MOVLW   0x00
Message[1301]: Using default destination of 0 (Access Bank).
0000FA 6EE5           05118         MOVWF   POSTDEC1
0000FC 0E03           05119         MOVLW   0x03
Message[1301]: Using default destination of 0 (Access Bank).
0000FE 6EE5           05120         MOVWF   POSTDEC1
000100 EC?? F0??      05121         CALL    __mullong
Message[1301]: Using default destination of 0 (Access Bank).
000104 6E??           05122         MOVWF   r0x00
000106 CFF3 F000      05123         MOVFF   PRODL, r0x03
00010A CFF4 F000      05124         MOVFF   PRODH, r0x04
00010E CFE9 F000      05125         MOVFF   FSR0L, r0x05
000112 0E08           05126         MOVLW   0x08
000114 26E1           05127         ADDWF   FSR1L, F
000116 50??           05128         MOVF    r0x00, W
000118 ????           05129         BANKSEL (_rn + 5)
00011A 6F??           05130         MOVWF   (_rn + 5), B
00011C 50??           05131         MOVF    r0x03, W
00011E ????           05132         BANKSEL (_rn + 6)
000120 6F??           05133         MOVWF   (_rn + 6), B
                      05134         .line   202; ../../RF24Network_c.c      RF24N_setup_address();
000122 EC?? F0??      05135         CALL    _RF24N_setup_address
                      05136         .line   206; ../../RF24Network_c.c      while (i--){
000126 0E06           05137         MOVLW   0x06
Message[1301]: Using default destination of 0 (Access Bank).
000128 6E??           05138         MOVWF   r0x00
00012A                05139 _00121_DS_:
00012A C??? F???      05140         MOVFF   r0x00, r0x03
00012E 06??           05141         DECF    r0x00, F
000130 50??           05142         MOVF    r0x03, W
000132 E0??           05143         BZ      _00123_DS_
                      05144         .line   208; ../../RF24Network_c.c      RF24N_pipe_address(_node_address,i,addr);       
000134 0E??           05145         MOVLW   HIGH(_RF24N_begin_d_addr_2_185)
Message[1301]: Using default destination of 0 (Access Bank).
000136 6E??           05146         MOVWF   r0x04
000138 0E??           05147         MOVLW   LOW(_RF24N_begin_d_addr_2_185)
Message[1301]: Using default destination of 0 (Access Bank).
00013A 6E??           05148         MOVWF   r0x03
00013C 0E80           05149         MOVLW   0x80
Message[1301]: Using default destination of 0 (Access Bank).
00013E 6E??           05150         MOVWF   r0x05
000140 50??           05151         MOVF    r0x05, W
Message[1301]: Using default destination of 0 (Access Bank).
000142 6EE5           05152         MOVWF   POSTDEC1
000144 50??           05153         MOVF    r0x04, W
Message[1301]: Using default destination of 0 (Access Bank).
000146 6EE5           05154         MOVWF   POSTDEC1
000148 50??           05155         MOVF    r0x03, W
Message[1301]: Using default destination of 0 (Access Bank).
gpasm-1.4.0 #1107 (May  9 2015) build/sdcc/pr   12-5-2016  17:29:30         PAGE 115


LOC    OBJECT CODE    LINE  SOURCE TEXT
  VALUE

00014A 6EE5           05156         MOVWF   POSTDEC1
00014C 50??           05157         MOVF    r0x00, W
Message[1301]: Using default destination of 0 (Access Bank).
00014E 6EE5           05158         MOVWF   POSTDEC1
000150 50??           05159         MOVF    r0x02, W
Message[1301]: Using default destination of 0 (Access Bank).
000152 6EE5           05160         MOVWF   POSTDEC1
000154 50??           05161         MOVF    r0x01, W
Message[1301]: Using default destination of 0 (Access Bank).
000156 6EE5           05162         MOVWF   POSTDEC1
000158 EC?? F0??      05163         CALL    _RF24N_pipe_address
00015C 0E06           05164         MOVLW   0x06
00015E 26E1           05165         ADDWF   FSR1L, F
                      05166         .line   209; ../../RF24Network_c.c      RF24_openReadingPipe_d(i,addr); 
000160 0E??           05167         MOVLW   HIGH(_RF24N_begin_d_addr_2_185)
Message[1301]: Using default destination of 0 (Access Bank).
000162 6E??           05168         MOVWF   r0x04
000164 0E??           05169         MOVLW   LOW(_RF24N_begin_d_addr_2_185)
Message[1301]: Using default destination of 0 (Access Bank).
000166 6E??           05170         MOVWF   r0x03
000168 0E80           05171         MOVLW   0x80
Message[1301]: Using default destination of 0 (Access Bank).
00016A 6E??           05172         MOVWF   r0x05
00016C 50??           05173         MOVF    r0x05, W
Message[1301]: Using default destination of 0 (Access Bank).
00016E 6EE5           05174         MOVWF   POSTDEC1
000170 50??           05175         MOVF    r0x04, W
Message[1301]: Using default destination of 0 (Access Bank).
000172 6EE5           05176         MOVWF   POSTDEC1
000174 50??           05177         MOVF    r0x03, W
Message[1301]: Using default destination of 0 (Access Bank).
000176 6EE5           05178         MOVWF   POSTDEC1
000178 50??           05179         MOVF    r0x00, W
Message[1301]: Using default destination of 0 (Access Bank).
00017A 6EE5           05180         MOVWF   POSTDEC1
00017C EC?? F0??      05181         CALL    _RF24_openReadingPipe_d
000180 0E04           05182         MOVLW   0x04
000182 26E1           05183         ADDWF   FSR1L, F
000184 D???           05184         BRA     _00121_DS_
000186                05185 _00123_DS_:
                      05186         .line   211; ../../RF24Network_c.c      RF24_startListening();
000186 EC?? F0??      05187         CALL    _RF24_startListening
00018A                05188 _00124_DS_:
00018A CFE4 F000      05189         MOVFF   PREINC1, r0x05
00018E CFE4 F000      05190         MOVFF   PREINC1, r0x04
000192 CFE4 F000      05191         MOVFF   PREINC1, r0x03
000196 CFE4 F000      05192         MOVFF   PREINC1, r0x02
00019A CFE4 F000      05193         MOVFF   PREINC1, r0x01
00019E CFE4 F000      05194         MOVFF   PREINC1, r0x00
0001A2 CFE4 FFD9      05195         MOVFF   PREINC1, FSR2L
0001A6 0012           05196         RETURN  
                      05197 
                      05198 ; ; Starting pCode block
gpasm-1.4.0 #1107 (May  9 2015) build/sdcc/pr   12-5-2016  17:29:30         PAGE 116


LOC    OBJECT CODE    LINE  SOURCE TEXT
  VALUE

                      05199 S_RF24Network_c__RF24N_init     code
000000                05200 _RF24N_init:
                      05201         .line   84; ../../RF24Network_c.c       void RF24N_init(void)
000000 CFD9 FFE5      05202         MOVFF   FSR2L, POSTDEC1
000004 CFE1 FFD9      05203         MOVFF   FSR1L, FSR2L
000008 C??? F???      05204         MOVFF   r0x00, POSTDEC1
00000C C??? F???      05205         MOVFF   r0x01, POSTDEC1
000010 C??? F???      05206         MOVFF   r0x02, POSTDEC1
                      05207         .line   86; ../../RF24Network_c.c       rn.next_frame= rn.frame_queue; 
000014 0E??           05208         MOVLW   HIGH(_rn + 59)
Message[1301]: Using default destination of 0 (Access Bank).
000016 6E??           05209         MOVWF   r0x01
000018 0E??           05210         MOVLW   LOW(_rn + 59)
Message[1301]: Using default destination of 0 (Access Bank).
00001A 6E??           05211         MOVWF   r0x00
00001C 0E80           05212         MOVLW   0x80
Message[1301]: Using default destination of 0 (Access Bank).
00001E 6E??           05213         MOVWF   r0x02
000020 50??           05214         MOVF    r0x00, W
000022 ????           05215         BANKSEL (_rn + 213)
000024 6F??           05216         MOVWF   (_rn + 213), B
000026 50??           05217         MOVF    r0x01, W
000028 ????           05218         BANKSEL (_rn + 214)
00002A 6F??           05219         MOVWF   (_rn + 214), B
00002C 50??           05220         MOVF    r0x02, W
00002E ????           05221         BANKSEL (_rn + 215)
000030 6F??           05222         MOVWF   (_rn + 215), B
                      05223         .line   88; ../../RF24Network_c.c       rn.frag_queue.message_buffer=&rn.frag_queue_message_buff
                            er[0];
000032 0E??           05224         MOVLW   HIGH(_rn + 229)
Message[1301]: Using default destination of 0 (Access Bank).
000034 6E??           05225         MOVWF   r0x01
000036 0E??           05226         MOVLW   LOW(_rn + 229)
Message[1301]: Using default destination of 0 (Access Bank).
000038 6E??           05227         MOVWF   r0x00
00003A 0E80           05228         MOVLW   0x80
Message[1301]: Using default destination of 0 (Access Bank).
00003C 6E??           05229         MOVWF   r0x02
00003E 50??           05230         MOVF    r0x00, W
000040 ????           05231         BANKSEL (_rn + 226)
000042 6F??           05232         MOVWF   (_rn + 226), B
000044 50??           05233         MOVF    r0x01, W
000046 ????           05234         BANKSEL (_rn + 227)
000048 6F??           05235         MOVWF   (_rn + 227), B
00004A 50??           05236         MOVF    r0x02, W
00004C ????           05237         BANKSEL (_rn + 228)
00004E 6F??           05238         MOVWF   (_rn + 228), B
                      05239         .line   89; ../../RF24Network_c.c       rn.frag_ptr = &rn.frag_queue;
000050 0E??           05240         MOVLW   HIGH(_rn + 216)
Message[1301]: Using default destination of 0 (Access Bank).
000052 6E??           05241         MOVWF   r0x01
000054 0E??           05242         MOVLW   LOW(_rn + 216)
Message[1301]: Using default destination of 0 (Access Bank).
gpasm-1.4.0 #1107 (May  9 2015) build/sdcc/pr   12-5-2016  17:29:30         PAGE 117


LOC    OBJECT CODE    LINE  SOURCE TEXT
  VALUE

000056 6E??           05243         MOVWF   r0x00
000058 0E80           05244         MOVLW   0x80
Message[1301]: Using default destination of 0 (Access Bank).
00005A 6E??           05245         MOVWF   r0x02
00005C 50??           05246         MOVF    r0x00, W
00005E ????           05247         BANKSEL (_rn + 39)
000060 6F??           05248         MOVWF   (_rn + 39), B
000062 50??           05249         MOVF    r0x01, W
000064 ????           05250         BANKSEL (_rn + 40)
000066 6F??           05251         MOVWF   (_rn + 40), B
000068 50??           05252         MOVF    r0x02, W
00006A ????           05253         BANKSEL (_rn + 41)
00006C 6F??           05254         MOVWF   (_rn + 41), B
00006E ????           05255         BANKSEL (_rn + 44)
                      05256         .line   91; ../../RF24Network_c.c       rn.txTime=0; 
000070 6B??           05257         CLRF    (_rn + 44), B
000072 ????           05258         BANKSEL (_rn + 45)
000074 6B??           05259         CLRF    (_rn + 45), B
000076 ????           05260         BANKSEL (_rn + 46)
000078 6B??           05261         CLRF    (_rn + 46), B
00007A ????           05262         BANKSEL (_rn + 47)
00007C 6B??           05263         CLRF    (_rn + 47), B
00007E ????           05264         BANKSEL (_rn + 43)
                      05265         .line   92; ../../RF24Network_c.c       rn.networkFlags=0; 
000080 6B??           05266         CLRF    (_rn + 43), B
000082 ????           05267         BANKSEL (_rn + 42)
                      05268         .line   93; ../../RF24Network_c.c       rn.returnSysMsgs=0; 
000084 6B??           05269         CLRF    (_rn + 42), B
000086 ????           05270         BANKSEL _rn
                      05271         .line   94; ../../RF24Network_c.c       rn.multicastRelay=0;
000088 6B??           05272         CLRF    _rn, B
                      05273         .line   99; ../../RF24Network_c.c       rn.max_frame_payload_size = MAX_FRAME_SIZE-sizeof(RF24Ne
                            tworkHeader);
00008A 0E18           05274         MOVLW   0x18
00008C ????           05275         BANKSEL (_rn + 52)
00008E 6F??           05276         MOVWF   (_rn + 52), B
000090 ????           05277         BANKSEL (_rn + 53)
000092 6B??           05278         CLRF    (_rn + 53), B
000094 CFE4 F000      05279         MOVFF   PREINC1, r0x02
000098 CFE4 F000      05280         MOVFF   PREINC1, r0x01
00009C CFE4 F000      05281         MOVFF   PREINC1, r0x00
0000A0 CFE4 FFD9      05282         MOVFF   PREINC1, FSR2L
0000A4 0012           05283         RETURN  
                      05284 
                      05285 ; ; Starting pCode block
                      05286 S_RF24Network_c__RF24NH_init    code
000000                05287 _RF24NH_init:
                      05288         .line   47; ../../RF24Network_c.c       void RF24NH_init(RF24NetworkHeader *rnh, uint16_t _to, u
                            nsigned char _type)
000000 CFD9 FFE5      05289         MOVFF   FSR2L, POSTDEC1
000004 CFE1 FFD9      05290         MOVFF   FSR1L, FSR2L
000008 C??? F???      05291         MOVFF   r0x00, POSTDEC1
00000C C??? F???      05292         MOVFF   r0x01, POSTDEC1
gpasm-1.4.0 #1107 (May  9 2015) build/sdcc/pr   12-5-2016  17:29:30         PAGE 118


LOC    OBJECT CODE    LINE  SOURCE TEXT
  VALUE

000010 C??? F???      05293         MOVFF   r0x02, POSTDEC1
000014 C??? F???      05294         MOVFF   r0x03, POSTDEC1
000018 C??? F???      05295         MOVFF   r0x04, POSTDEC1
00001C C??? F???      05296         MOVFF   r0x05, POSTDEC1
000020 C??? F???      05297         MOVFF   r0x06, POSTDEC1
000024 C??? F???      05298         MOVFF   r0x07, POSTDEC1
000028 C??? F???      05299         MOVFF   r0x08, POSTDEC1
00002C 0E02           05300         MOVLW   0x02
00002E CFDB F000      05301         MOVFF   PLUSW2, r0x00
000032 0E03           05302         MOVLW   0x03
000034 CFDB F000      05303         MOVFF   PLUSW2, r0x01
000038 0E04           05304         MOVLW   0x04
00003A CFDB F000      05305         MOVFF   PLUSW2, r0x02
00003E 0E05           05306         MOVLW   0x05
000040 CFDB F000      05307         MOVFF   PLUSW2, r0x03
000044 0E06           05308         MOVLW   0x06
000046 CFDB F000      05309         MOVFF   PLUSW2, r0x04
00004A 0E07           05310         MOVLW   0x07
00004C CFDB F000      05311         MOVFF   PLUSW2, r0x05
                      05312         .line   49; ../../RF24Network_c.c       rnh->to_node=_to;
000050 50??           05313         MOVF    r0x00, W
000052 0F02           05314         ADDLW   0x02
Message[1301]: Using default destination of 0 (Access Bank).
000054 6E??           05315         MOVWF   r0x06
000056 0E00           05316         MOVLW   0x00
000058 20??           05317         ADDWFC  r0x01, W
Message[1301]: Using default destination of 0 (Access Bank).
00005A 6E??           05318         MOVWF   r0x07
00005C 0E00           05319         MOVLW   0x00
00005E 20??           05320         ADDWFC  r0x02, W
Message[1301]: Using default destination of 0 (Access Bank).
000060 6E??           05321         MOVWF   r0x08
000062 C??? F???      05322         MOVFF   r0x03, POSTDEC1
000066 C??? F???      05323         MOVFF   r0x04, PRODH
00006A C??? F???      05324         MOVFF   r0x06, FSR0L
00006E C??? F???      05325         MOVFF   r0x07, PRODL
000072 50??           05326         MOVF    r0x08, W
000074 EC?? F0??      05327         CALL    __gptrput2
                      05328         .line   50; ../../RF24Network_c.c       rnh->id=next_id++;
000078 50??           05329         MOVF    r0x00, W
00007A 0F04           05330         ADDLW   0x04
Message[1301]: Using default destination of 0 (Access Bank).
00007C 6E??           05331         MOVWF   r0x03
00007E 0E00           05332         MOVLW   0x00
000080 20??           05333         ADDWFC  r0x01, W
Message[1301]: Using default destination of 0 (Access Bank).
000082 6E??           05334         MOVWF   r0x04
000084 0E00           05335         MOVLW   0x00
000086 20??           05336         ADDWFC  r0x02, W
Message[1301]: Using default destination of 0 (Access Bank).
000088 6E??           05337         MOVWF   r0x06
00008A C??? F???      05338         MOVFF   _next_id, r0x07
00008E C??? F???      05339         MOVFF   (_next_id + 1), r0x08
gpasm-1.4.0 #1107 (May  9 2015) build/sdcc/pr   12-5-2016  17:29:30         PAGE 119


LOC    OBJECT CODE    LINE  SOURCE TEXT
  VALUE

000092 ????           05340         BANKSEL _next_id
000094 3F??           05341         INCFSZ  _next_id, F, B
000096 D???           05342         BRA     _11002_DS_
000098 ????           05343         BANKSEL (_next_id + 1)
00009A 2B??           05344         INCF    (_next_id + 1), F, B
00009C                05345 _11002_DS_:
00009C C??? F???      05346         MOVFF   r0x07, POSTDEC1
0000A0 C??? F???      05347         MOVFF   r0x08, PRODH
0000A4 C??? F???      05348         MOVFF   r0x03, FSR0L
0000A8 C??? F???      05349         MOVFF   r0x04, PRODL
0000AC 50??           05350         MOVF    r0x06, W
0000AE EC?? F0??      05351         CALL    __gptrput2
                      05352         .line   51; ../../RF24Network_c.c       rnh->type=_type;
0000B2 0E06           05353         MOVLW   0x06
0000B4 26??           05354         ADDWF   r0x00, F
0000B6 0E00           05355         MOVLW   0x00
0000B8 22??           05356         ADDWFC  r0x01, F
0000BA 22??           05357         ADDWFC  r0x02, F
0000BC C??? F???      05358         MOVFF   r0x05, POSTDEC1
0000C0 C??? F???      05359         MOVFF   r0x00, FSR0L
0000C4 C??? F???      05360         MOVFF   r0x01, PRODL
0000C8 50??           05361         MOVF    r0x02, W
0000CA EC?? F0??      05362         CALL    __gptrput1
0000CE CFE4 F000      05363         MOVFF   PREINC1, r0x08
0000D2 CFE4 F000      05364         MOVFF   PREINC1, r0x07
0000D6 CFE4 F000      05365         MOVFF   PREINC1, r0x06
0000DA CFE4 F000      05366         MOVFF   PREINC1, r0x05
0000DE CFE4 F000      05367         MOVFF   PREINC1, r0x04
0000E2 CFE4 F000      05368         MOVFF   PREINC1, r0x03
0000E6 CFE4 F000      05369         MOVFF   PREINC1, r0x02
0000EA CFE4 F000      05370         MOVFF   PREINC1, r0x01
0000EE CFE4 F000      05371         MOVFF   PREINC1, r0x00
0000F2 CFE4 FFD9      05372         MOVFF   PREINC1, FSR2L
0000F6 0012           05373         RETURN  
                      05374 
                      05375 
                      05376 
                      05377 ; Statistics:
                      05378 ; code size:    10904 (0x2a98) bytes ( 8.32%)
                      05379 ;                5452 (0x154c) words
                      05380 ; udata size:     404 (0x0194) bytes (10.52%)
                      05381 ; access size:     27 (0x001b) bytes
                      05382 
                      05383 
                      05384         end
gpasm-1.4.0 #1107 (May  9 2015) build/sdcc/pr   12-5-2016  17:29:30         PAGE 120


SYMBOL TABLE
  LABEL                             VALUE

FSR0H                             00000FEA
FSR0L                             00000FE9
FSR1L                             00000FE1
FSR2L                             00000FD9
INDF0                             00000FEF
PLUSW2                            00000FDB
POSTDEC1                          00000FE5
POSTINC1                          00000FE6
PREINC1                           00000FE4
PRODH                             00000FF4
PRODL                             00000FF3
STATUS                            00000FD8
WREG                              00000FE8
_00116_DS_                        0000004A
_00118_DS_                        00000062
_00120_DS_                        00000072
_00121_DS_                        0000012A
_00123_DS_                        00000186
_00124_DS_                        0000018A
_00149_DS_                        00000092
_00151_DS_                        00000078
_00157_DS_                        000000F2
_00165_DS_                        00000248
_00167_DS_                        000002C2
_00175_DS_                        000002F4
_00176_DS_                        00000326
_00178_DS_                        000002DE
_00185_DS_                        0000040C
_00187_DS_                        00000464
_00191_DS_                        00000470
_00194_DS_                        00000348
_00197_DS_                        00000098
_00199_DS_                        0000049C
_00200_DS_                        0000049E
_00285_DS_                        00000076
_00288_DS_                        000001B0
_00289_DS_                        000001B2
_00291_DS_                        000001BA
_00293_DS_                        000001C2
_00295_DS_                        000001D0
_00312_DS_                        00000344
_00313_DS_                        00000366
_00314_DS_                        00000368
_00316_DS_                        00000370
_00319_DS_                        00000384
_00321_DS_                        0000046C
_00330_DS_                        0000011C
_00331_DS_                        00000180
_00333_DS_                        000001CC
_00335_DS_                        000002AE
_00336_DS_                        0000031A
_00337_DS_                        00000320
_00340_DS_                        000002E4
gpasm-1.4.0 #1107 (May  9 2015) build/sdcc/pr   12-5-2016  17:29:30         PAGE 121


SYMBOL TABLE
  LABEL                             VALUE 

_00342_DS_                        000003B8
_00344_DS_                        000003E8
_00346_DS_                        00000548
_00348_DS_                        0000054C
_00350_DS_                        00000284
_00355_DS_                        00000270
_00360_DS_                        00000562
_00361_DS_                        000005D8
_00363_DS_                        00000784
_00365_DS_                        0000078A
_00366_DS_                        0000078C
_00367_DS_                        0000078E
_00370_DS_                        000000AA
_00450_DS_                        000000B2
_00451_DS_                        00000110
_00452_DS_                        00000152
_00453_DS_                        00000154
_00454_DS_                        00000178
_00455_DS_                        0000017A
_00456_DS_                        000001B8
_00464_DS_                        000002A2
_00472_DS_                        000003A6
_00475_DS_                        00000418
_00479_DS_                        0000056A
_00480_DS_                        00000602
_00488_DS_                        00000036
_00494_DS_                        00000018
_00496_DS_                        00000020
_00502_DS_                        000000DC
_00503_DS_                        000000E0
_00509_DS_                        0000015C
_00511_DS_                        000001F2
_00513_DS_                        00000264
_00516_DS_                        00000118
_00517_DS_                        00000120
_00530_DS_                        0000010C
_00547_DS_                        000000B0
_00549_DS_                        000000FE
_00551_DS_                        00000166
_00553_DS_                        00000194
_00555_DS_                        000001A4
_00557_DS_                        00000234
_00559_DS_                        000002CE
_00562_DS_                        000002B6
_00563_DS_                        000002E0
_00565_DS_                        000003AA
_00566_DS_                        000003B0
_00570_DS_                        00000260
_00574_DS_                        00000414
_00576_DS_                        0000042A
_00578_DS_                        0000045C
_00579_DS_                        0000045E
_00581_DS_                        000001CE
gpasm-1.4.0 #1107 (May  9 2015) build/sdcc/pr   12-5-2016  17:29:30         PAGE 122


SYMBOL TABLE
  LABEL                             VALUE 

_00582_DS_                        000001D0
_00584_DS_                        0000032C
_00602_DS_                        000003BE
_00637_DS_                        000000F0
_00639_DS_                        0000011A
_00640_DS_                        0000019E
_00642_DS_                        00000222
_00646_DS_                        00000322
_00654_DS_                        0000011C
_00656_DS_                        00000160
_00658_DS_                        00000172
_00660_DS_                        0000018C
_00661_DS_                        000001C2
_00676_DS_                        00000126
_00677_DS_                        0000015A
_00678_DS_                        0000015C
_00679_DS_                        0000016C
_00680_DS_                        0000016E
_00686_DS_                        00000064
_00689_DS_                        0000007E
_00691_DS_                        000001E0
_00696_DS_                        00000252
_00699_DS_                        00000268
_00703_DS_                        000002BC
_00707_DS_                        00000204
_00709_DS_                        000002C6
_00710_DS_                        000002C8
_00763_DS_                        000000DE
_00764_DS_                        000000F4
_00765_DS_                        000000F6
_00767_DS_                        000001F8
_00774_DS_                        000002B8
_00783_DS_                        0000011A
_00786_DS_                        000000D6
_00787_DS_                        00000172
_00805_DS_                        00000072
_00807_DS_                        00000088
_00808_DS_                        00000098
_00810_DS_                        00000120
_00829_DS_                        0000007E
_00845_DS_                        0000003E
_00846_DS_                        00000040
_00851_DS_                        00000024
_00853_DS_                        00000050
_00854_DS_                        0000009C
_00856_DS_                        000000C8
_00862_DS_                        00000056
_00864_DS_                        00000066
_00874_DS_                        00000080
_00875_DS_                        00000078
_00886_DS_                        00000044
_00887_DS_                        0000002C
_00889_DS_                        00000058
gpasm-1.4.0 #1107 (May  9 2015) build/sdcc/pr   12-5-2016  17:29:30         PAGE 123


SYMBOL TABLE
  LABEL                             VALUE 

_00913_DS_                        00000070
_00914_DS_                        00000076
_00915_DS_                        0000007C
_00920_DS_                        0000006E
_00921_DS_                        0000005A
_00922_DS_                        00000066
_00923_DS_                        00000064
_00928_DS_                        000000B6
_00929_DS_                        000000F6
_00931_DS_                        000000A6
_00933_DS_                        0000010C
_00934_DS_                        00000116
_00935_DS_                        00000140
_00939_DS_                        00000174
_00947_DS_                        00000172
_00961_DS_                        00000148
_11002_DS_                        0000009C
_ADCON0                           00000000
_ADCON0bits                       00000000
_ADCON1                           00000000
_ADCON1bits                       00000000
_ADCON2                           00000000
_ADCON2bits                       00000000
_ADRES                            00000000
_ADRESH                           00000000
_ADRESL                           00000000
_BAUDCON                          00000000
_BAUDCONbits                      00000000
_BAUDCTL                          00000000
_BAUDCTLbits                      00000000
_BSR                              00000000
_CCP1CON                          00000000
_CCP1CONbits                      00000000
_CCP2CON                          00000000
_CCP2CONbits                      00000000
_CCPR1                            00000000
_CCPR1H                           00000000
_CCPR1L                           00000000
_CCPR2                            00000000
_CCPR2H                           00000000
_CCPR2L                           00000000
_CMCON                            00000000
_CMCONbits                        00000000
_CVRCON                           00000000
_CVRCONbits                       00000000
_DDRA                             00000000
_DDRAbits                         00000000
_DDRB                             00000000
_DDRBbits                         00000000
_DDRC                             00000000
_DDRCbits                         00000000
_DDRD                             00000000
_DDRDbits                         00000000
gpasm-1.4.0 #1107 (May  9 2015) build/sdcc/pr   12-5-2016  17:29:30         PAGE 124


SYMBOL TABLE
  LABEL                             VALUE 

_DDRE                             00000000
_DDREbits                         00000000
_ECCP1AS                          00000000
_ECCP1ASbits                      00000000
_EEADR                            00000000
_EEADRH                           00000000
_EECON1                           00000000
_EECON1bits                       00000000
_EECON2                           00000000
_EEDATA                           00000000
_FSR0H                            00000000
_FSR0L                            00000000
_FSR1H                            00000000
_FSR1L                            00000000
_FSR2H                            00000000
_FSR2L                            00000000
_HLVDCON                          00000000
_HLVDCONbits                      00000000
_INDF0                            00000000
_INDF1                            00000000
_INDF2                            00000000
_INTCON                           00000000
_INTCON2                          00000000
_INTCON2bits                      00000000
_INTCON3                          00000000
_INTCON3bits                      00000000
_INTCONbits                       00000000
_IPR1                             00000000
_IPR1bits                         00000000
_IPR2                             00000000
_IPR2bits                         00000000
_LATA                             00000000
_LATAbits                         00000000
_LATB                             00000000
_LATBbits                         00000000
_LATC                             00000000
_LATCbits                         00000000
_LATD                             00000000
_LATDbits                         00000000
_LATE                             00000000
_LATEbits                         00000000
_LVDCON                           00000000
_LVDCONbits                       00000000
_OSCCON                           00000000
_OSCCONbits                       00000000
_OSCTUNE                          00000000
_OSCTUNEbits                      00000000
_PC                               00000000
_PCL                              00000000
_PCLATH                           00000000
_PCLATU                           00000000
_PIE1                             00000000
_PIE1bits                         00000000
gpasm-1.4.0 #1107 (May  9 2015) build/sdcc/pr   12-5-2016  17:29:30         PAGE 125


SYMBOL TABLE
  LABEL                             VALUE 

_PIE2                             00000000
_PIE2bits                         00000000
_PIR1                             00000000
_PIR1bits                         00000000
_PIR2                             00000000
_PIR2bits                         00000000
_PLUSW0                           00000000
_PLUSW1                           00000000
_PLUSW2                           00000000
_PORTA                            00000000
_PORTAbits                        00000000
_PORTB                            00000000
_PORTBbits                        00000000
_PORTC                            00000000
_PORTCbits                        00000000
_PORTD                            00000000
_PORTDbits                        00000000
_PORTE                            00000000
_PORTEbits                        00000000
_POSTDEC0                         00000000
_POSTDEC1                         00000000
_POSTDEC2                         00000000
_POSTINC0                         00000000
_POSTINC1                         00000000
_POSTINC2                         00000000
_PR2                              00000000
_PREINC0                          00000000
_PREINC1                          00000000
_PREINC2                          00000000
_PROD                             00000000
_PRODH                            00000000
_PRODL                            00000000
_PWM1CON                          00000000
_PWM1CONbits                      00000000
_RCON                             00000000
_RCONbits                         00000000
_RCREG                            00000000
_RCSTA                            00000000
_RCSTAbits                        00000000
_RF24NH_init                      00000000
_RF24N__write                     00000000
_RF24N_addressOfPipe              00000000
_RF24N_available                  00000000
_RF24N_begin                      00000000
_RF24N_begin_d                    00000000
_RF24N_begin_d_addr_2_185         00000000
_RF24N_direct_child_route_to      00000000
_RF24N_enqueue                    00000000
_RF24N_enqueue_message_size_1_210  00000000
_RF24N_getFrag_ptr                00000000
_RF24N_getFrame_buffer            00000000
_RF24N_getNetworkFlags            00000000
_RF24N_getRouteTimeout            00000000
gpasm-1.4.0 #1107 (May  9 2015) build/sdcc/pr   12-5-2016  17:29:30         PAGE 126


SYMBOL TABLE
  LABEL                             VALUE 

_RF24N_init                       00000000
_RF24N_is_descendant              00000000
_RF24N_is_direct_child            00000000
_RF24N_is_valid_address           00000000
_RF24N_levelToAddress             00000000
_RF24N_logicalToPhysicalAddress   00000000
_RF24N_multicast                  00000000
_RF24N_multicastLevel             00000000
_RF24N_multicastLevel_addr_1_309  00000000
_RF24N_parent                     00000000
_RF24N_peek                       00000000
_RF24N_peek_msg_size_2_234        00000000
_RF24N_pipe_address               00000000
_RF24N_pipe_address_address_translation_1_315  00000002
_RF24N_pipe_address_result_1_315  00000000
_RF24N_read                       00000000
_RF24N_read_bufsize_1_236         00000000
_RF24N_setMulticastRelay          00000000
_RF24N_setNetworkFlags            00000000
_RF24N_setReturnSysMsgs           00000000
_RF24N_setup_address              00000000
_RF24N_update                     00000000
_RF24N_update_pipe_num_1_186      00000000
_RF24N_write                      00000000
_RF24N_write_                     00000000
_RF24N_write_conversion_1_270     00000000
_RF24N_write_m                    00000000
_RF24N_write_to_pipe              00000000
_RF24N_write_to_pipe_out_pipe_1_285  00000000
_RF24_available_p                 00000000
_RF24_enableDynamicPayloads       00000000
_RF24_getDynamicPayloadSize       00000000
_RF24_isValid                     00000000
_RF24_openReadingPipe_d           00000000
_RF24_openWritingPipe_d           00000000
_RF24_read                        00000000
_RF24_setAutoAck_p                00000000
_RF24_setChannel                  00000000
_RF24_setRetries                  00000000
_RF24_startListening              00000000
_RF24_stopListening               00000000
_RF24_txStandBy_t                 00000000
_RF24_writeFast_m                 00000000
_SPBRG                            00000000
_SPBRGH                           00000000
_SSPADD                           00000000
_SSPBUF                           00000000
_SSPCON1                          00000000
_SSPCON1bits                      00000000
_SSPCON2                          00000000
_SSPCON2bits                      00000000
_SSPSTAT                          00000000
_SSPSTATbits                      00000000
gpasm-1.4.0 #1107 (May  9 2015) build/sdcc/pr   12-5-2016  17:29:30         PAGE 127


SYMBOL TABLE
  LABEL                             VALUE 

_STATUS                           00000000
_STATUSbits                       00000000
_STKPTR                           00000000
_STKPTRbits                       00000000
_T0CON                            00000000
_T0CONbits                        00000000
_T1CON                            00000000
_T1CONbits                        00000000
_T2CON                            00000000
_T2CONbits                        00000000
_T3CON                            00000000
_T3CONbits                        00000000
_TABLAT                           00000000
_TBLPTR                           00000000
_TBLPTRH                          00000000
_TBLPTRL                          00000000
_TBLPTRU                          00000000
_TMR0                             00000000
_TMR0H                            00000000
_TMR0L                            00000000
_TMR1                             00000000
_TMR1H                            00000000
_TMR1L                            00000000
_TMR2                             00000000
_TMR3                             00000000
_TMR3H                            00000000
_TMR3L                            00000000
_TOS                              00000000
_TOSH                             00000000
_TOSL                             00000000
_TOSU                             00000000
_TRISA                            00000000
_TRISAbits                        00000000
_TRISB                            00000000
_TRISBbits                        00000000
_TRISC                            00000000
_TRISCbits                        00000000
_TRISD                            00000000
_TRISDbits                        00000000
_TRISE                            00000000
_TRISEbits                        00000000
_TXREG                            00000000
_TXSTA                            00000000
_TXSTAbits                        00000000
_WDTCON                           00000000
_WDTCONbits                       00000000
_WREG                             00000000
__18F4620                         00000001
__ACC_RAM_LOW_END                 0000007F
__CODE_END                        0000FFFF
__CODE_START                      00000000
__EEPROM_END                      00F003FF
__EEPROM_START                    00F00000
gpasm-1.4.0 #1107 (May  9 2015) build/sdcc/pr   12-5-2016  17:29:30         PAGE 128


SYMBOL TABLE
  LABEL                             VALUE 

__VECTOR_INT_HIGH                 00000008
__VECTOR_INT_LOW                  00000018
__VECTOR_RESET                    00000000
__divuint                         00000000
__gptrget1                        00000000
__gptrget2                        00000000
__gptrput1                        00000000
__gptrput2                        00000000
__moduint                         00000000
__mulint                          00000000
__mullong                         00000000
_delay                            00000000
_delayMicroseconds                00000000
_memcpy                           00000000
_memmove                          00000000
_millis                           00000000
_mtime                            00000000
_next_id                          00000000
_rn                               00000000
_stdin                            00000000
_stdout                           00000000
r0x00                             00000000
r0x01                             00000001
r0x02                             00000002
r0x03                             00000003
r0x04                             00000004
r0x05                             00000005
r0x06                             00000006
r0x07                             00000007
r0x08                             00000008
r0x09                             00000009
r0x0a                             0000000A
r0x0b                             0000000B
r0x0c                             0000000C
r0x0d                             0000000D
r0x0e                             0000000E
r0x0f                             0000000F
r0x10                             00000010
r0x11                             00000011
r0x12                             00000012
r0x13                             00000013
r0x14                             00000014
r0x15                             00000015
r0x16                             00000016
r0x17                             00000017
r0x18                             00000018
r0x19                             00000019
r0x1a                             0000001A

Errors   :     0
Warnings :     0 reported,     0 suppressed
Messages :   838 reported,     0 suppressed

